(dp0
S'29.1-257cc578a26560b7ae9ec7888f54a1ad.raw'
p1
(lp2
S'29-7e1342bba879767880aaf65d9e6859c9.raw,1.96083550914'
p3
asS'14.5-b5c50b8bd0b9db915fdfed483f87f3fc.raw'
p4
(lp5
S'14.1.2-bb50eab41b5b5da6811b498ba787ebd0.raw,1.89032258065'
p6
asS'14.6-0c7de3e28d712110b9693c97e55cda73.raw'
p7
(lp8
S'14.1.2-bb50eab41b5b5da6811b498ba787ebd0.raw,1.85542168675'
p9
asS'14.5-392b618c7ab897ccfe8cbdad9a1531db.raw'
p10
(lp11
S'14.1.2-bb50eab41b5b5da6811b498ba787ebd0.raw,1.87545126354'
p12
asS'14.6-0af88469d89e56e428a2cd0c70fdf905.raw'
p13
(lp14
S'14.1.2-bb50eab41b5b5da6811b498ba787ebd0.raw,1.85331905782'
p15
asS'14.1.2-c2ebd8e7c451ee66d3be2c0d4bc8fa3a.raw'
p16
(lp17
S'14.5-035d206e2b3b4810e7f12f8fffd903d4.raw,1.87443946188'
p18
asS'14.1.2-545358c4de6b0f3b7a4ae540ccf16732.raw'
p19
(lp20
S'14.5-035d206e2b3b4810e7f12f8fffd903d4.raw,1.88251121076'
p21
asS'14.1.2-29303771b81258c99d79d852ad1bb56d.raw'
p22
(lp23
S'14.5-035d206e2b3b4810e7f12f8fffd903d4.raw,1.87443946188'
p24
asS'14.1.2-a83d8b396c494895f572bc3988952a7c.raw'
p25
(lp26
S'14.5-035d206e2b3b4810e7f12f8fffd903d4.raw,1.88161434978'
p27
asS'14.6-5c8c0cf8755b027234eb50717723113e.raw'
p28
(lp29
S'14.1.2-bb50eab41b5b5da6811b498ba787ebd0.raw,1.85392051557'
p30
asS'18-9d484817327e5204821c4e6f1443325f.raw'
p31
(lp32
S'18-0a2d6f20fb149e9943e3da6342e3aa00.raw,1.8320610687'
p33
asS'29'
p34
(lp35
S'29.1-257cc578a26560b7ae9ec7888f54a1ad.raw'
p36
asS'14.5-821e9c215d84e3db9f8bd1fc0fecb3dc.raw'
p37
(lp38
S'14.1.2-bb50eab41b5b5da6811b498ba787ebd0.raw,1.88847583643'
p39
asS'14.5-c0e600b27a7de6714e7d75c66967151f.raw'
p40
(lp41
S'14.1.2-bb50eab41b5b5da6811b498ba787ebd0.raw,1.87047101449'
p42
asS'2'
p43
(lp44
sS'5'
p45
(lp46
S'5.3-718a9b08a38c979146cece8ff674ecd2.raw'
p47
asS'14.6-10ba8d0e754458237fb50442d3c2ca42.raw'
p48
(lp49
S'14.1.2-bb50eab41b5b5da6811b498ba787ebd0.raw,1.85530546624'
p50
asS'8'
p51
(lp52
S'8-6bf6cb9da054e0d5b22b0f4c5f54f59a.raw'
p53
asS'11-1e5efe8964d4ff3255f415e51a8781e8.raw'
p54
(lp55
S'11-78ef0a12b949f2cbac528610ceb59f14.raw,1.6'
p56
asS'14.1.2-ad85fd04665793ec30b30cd2c7952ce0.raw'
p57
(lp58
S'14.5-035d206e2b3b4810e7f12f8fffd903d4.raw,1.88340807175'
p59
asS'14.5-561bd3c9ec7acc959e13d005efe759c1.raw'
p60
(lp61
S'14.1.2-bb50eab41b5b5da6811b498ba787ebd0.raw,1.8679245283'
p62
asS'14.1.2-883516c63f6ca421f208f02e0a53dfda.raw'
p63
(lp64
S'14.5-035d206e2b3b4810e7f12f8fffd903d4.raw,1.8735426009'
p65
asS'2-0914a08287845112141cf3563170b8c0.raw'
p66
(lp67
S'2-8b95ea1626adbeb7a0320dbbcc1a5ca9.raw,1.78571428571'
p68
asS'14.5-47248b4882fdd25c8ffbdec4401233ff.raw'
p69
(lp70
S'14.1.2-bb50eab41b5b5da6811b498ba787ebd0.raw,1.8668503214'
p71
asS'14.1.2-c3b69b7940ffab4f7ab1c6776621c174.raw'
p72
(lp73
S'14.5-035d206e2b3b4810e7f12f8fffd903d4.raw,1.87443946188'
p74
asS'14.6-18e21d0add83d0452212a39cc4f30cc3.raw'
p75
(lp76
S'14.1.2-bb50eab41b5b5da6811b498ba787ebd0.raw,1.85360602799'
p77
asS'14.6-60edf812cf3e97b888713d6b695e5e1b.raw'
p78
(lp79
S'14.1.2-bb50eab41b5b5da6811b498ba787ebd0.raw,1.85591397849'
p80
asS'14.6-76e8f6f9bd06d43aaccfbe7177742f76.raw'
p81
(lp82
S'14.1.2-bb50eab41b5b5da6811b498ba787ebd0.raw,1.8543263965'
p83
asS'14.6-afb3a89e813e29b90a1ed791577a3100.raw'
p84
(lp85
S'14.1.2-bb50eab41b5b5da6811b498ba787ebd0.raw,1.8560523446'
p86
asS'14.6-35d864d008ed3f859bc0152e399b7cf7.raw'
p87
(lp88
S'14.1.2-bb50eab41b5b5da6811b498ba787ebd0.raw,1.85745614035'
p89
asS'11'
p90
(lp91
sS'14.5-0f142c762c2ee6a43998a9b1eab39bf9.raw'
p92
(lp93
S'14.1.2-bb50eab41b5b5da6811b498ba787ebd0.raw,1.89013035382'
p94
asS'14'
p95
(lp96
S'14.1.2-883516c63f6ca421f208f02e0a53dfda.raw'
p97
ag84
aS'14.6-727db1fdb8bb6e9b18cf2cace89dbd74.raw'
p98
ag25
ag13
ag72
aS'14.1.2-ae4652b546a10c092c22036bbc0db641.raw'
p99
ag7
ag69
aS'14.1.2-bb50eab41b5b5da6811b498ba787ebd0.raw'
p100
ag57
aS'14.5-7f7e973fe844fa162f3025843cf4782e.raw'
p101
aS'14.1.2-ab5267f5c1bd6b8ec1b52aabccb083a7.raw'
p102
ag16
ag92
ag75
aS'14.5-035d206e2b3b4810e7f12f8fffd903d4.raw'
p103
aS'14.5-0f02ed7e077d741b8e93c5f1084c055a.raw'
p104
ag40
ag10
ag28
ag19
ag37
ag22
ag78
ag87
ag48
ag81
aS'14.6-95ae2769884f19218ea4e2983c69d6d7.raw'
p105
ag4
ag60
asg100
(lp106
S'14.5-035d206e2b3b4810e7f12f8fffd903d4.raw,1.8735426009'
p107
asS'5.3-718a9b08a38c979146cece8ff674ecd2.raw'
p108
(lp109
S'5.2-5a63cd881fbb0e8e949435af162f66a1.raw,1.98828125'
p110
asg99
(lp111
S'14.5-035d206e2b3b4810e7f12f8fffd903d4.raw,1.8735426009'
p112
asg102
(lp113
S'14.5-035d206e2b3b4810e7f12f8fffd903d4.raw,1.8798206278'
p114
asg103
(lp115
S'14.1.2-bb50eab41b5b5da6811b498ba787ebd0.raw,1.8798206278'
p116
asg105
(lp117
S'14.1.2-bb50eab41b5b5da6811b498ba787ebd0.raw,1.85392051557'
p118
asg104
(lp119
S'14.1.2-bb50eab41b5b5da6811b498ba787ebd0.raw,1.8773168579'
p120
asg101
(lp121
S'14.1.2-bb50eab41b5b5da6811b498ba787ebd0.raw,1.87511150758'
p122
asS'18'
p123
(lp124
S'18-9d484817327e5204821c4e6f1443325f.raw'
p125
asS'8-6bf6cb9da054e0d5b22b0f4c5f54f59a.raw'
p126
(lp127
S'8-6c5b9065372dddec27eb4fb49fe160d8.raw,1.843866171'
p128
asg98
(lp129
S'14.1.2-bb50eab41b5b5da6811b498ba787ebd0.raw,1.86516853933'
p130
as.