(dp0
S'Gotcha.1-0eb5e68f83178cb4959d1d83b8543167'
p1
(lp2
S'Gotcha.D-dd20c438d45adaa54ab19f6649963558,0.968062827225'
p3
asS'Semtex.1-5705a1362f86e7de9fa0f1f3b09050fb'
p4
(lp5
S'Semtex.1-d35965df16fa606eaaa2415a67969be6,0.402390438247'
p6
asS'Cybercide-12d10bca0f2c8b033f02e5cc5057f8d4'
p7
(lp8
S'Cybercide.1307-7980dda120cbc0a79da3fa50c1b13b4c,0.762406947891'
p9
asS'Gen.300-ddf4ac243c0126aacb02089ed7cd15f4'
p10
(lp11
S'Gen.1701.1704CascadeRelated-df82b7c655efd5ec2c1c46cfcb253e27,1.0'
p12
asS'Vgen.23616-9c134558cc96aafd26bed8d7bf28f167'
p13
(lp14
S'VGEN.74.6-c2f0a9903ce9281aa4f1415ae2dab966,0.995452160224'
p15
asS'ChristmasViolator-c8b2520ea6a950366b4c583c13efa567'
p16
(lp17
S'ChristmasViolator-a7bb2e1f3c87e7013c4c753bfe443f48,0.675384615385'
p18
asS'Hydra.3-c398ecf3202cb98ebfd4236a20c6a28e'
p19
(lp20
S'Hydra.3-866606493740352c3f9bf8c264c4257a,0.82'
p21
asS'Hydra'
p22
(lp23
sS'Ear.1-6519c1037c63dcd939f11fc575647eb8'
p24
(lp25
S'Ear.1025-5ccc9d93e342e0ce0e75c452649c95ac,0.888051668461'
p26
asS'Pascal.529-9197e4e3155a5f5ff1596e7895139168'
p27
(lp28
S'Pascal.440-a7242afd2b3988758770597386855fd2,0.903225806452'
p29
asS'Pixel.10-ff9090294d98ebe77af96bf501f52fc1'
p30
(lp31
S'Pixel.936-9ed2a2a0045749b3f4922f407397a5b0,0.700272479564'
p32
asS'Satan3.00-5facea4bc5c5968955a567bae97f44b3'
p33
(lp34
S'Satan2.03-aaa9917016f9228f40e73cf624a350a6,0.946179721288'
p35
asS'Vgen.265-4f237afa2b7da9330f983888ca920a3f'
p36
(lp37
S'VGEN.74.6-c2f0a9903ce9281aa4f1415ae2dab966,0.995753071439'
p38
asS'Virdem'
p39
(lp40
sS'Vgen.43227-aa9a881085cb2bf185640c0988086d9f'
p41
(lp42
S'VGEN.74.6-c2f0a9903ce9281aa4f1415ae2dab966,0.914285714286'
p43
asS'Gen.7Solution-b804d4ca849df4fff756247e8f9688de'
p44
(lp45
S'Gen.1701.1704CascadeRelated-df82b7c655efd5ec2c1c46cfcb253e27,0.999572344975'
p46
asS'Natas.4744.B-7d21c213522cce66378b522dde055239'
p47
(lp48
S'Natas.b-fd796ff196a6d72101e1cf37d6237cc8,1.0'
p49
asS'MIX1-df5a49dc703e9858fbd6ed6eab5620d3'
p50
(lp51
S'DOS.Vgen.2-e098f43395f9ff7734b9e60f72824043,1.0'
p52
asS'BadTaste'
p53
(lp54
S'BadTaste-b79f702f5a31f60db89c3d02612d0c8c'
p55
asS'PSMPC.5652-0a2f4092b9d8643b189028d4d42d2c1c'
p56
(lp57
S'PSMPC.Spunk-3ac00823fe8cae7575945f749b1c56cf,0.851919561243'
p58
asS'PSMPC.5652-d4c9e5dc58b9b0a7178769c79aabdea3'
p59
(lp60
S'PSMPC.Spunk-3ac00823fe8cae7575945f749b1c56cf,0.855839416058'
p61
asS'PSMPC'
p62
(lp63
sS'Dos7.342-b5a079f14f0d8a7cdd71c2e8fb8df932'
p64
(lp65
S'DOS.Vgen.2-e098f43395f9ff7734b9e60f72824043,0.982678983834'
p66
asS'Bljec.1-0107f34a5e0e6ee569620d14a5023955'
p67
(lp68
S'Bljec.427-8c97abfdb47f2667472223495c5d046f,0.592326139089'
p69
asS'Intruder'
p70
(lp71
sS'Traceback.3-ee23a91cb8f76e1d140d3f64b3db8b8f'
p72
(lp73
S'Traceback.3-63d3d4b2a5f621941278084f6802f4a9,0.683499067744'
p74
asS'Arcv.1060-25c48005b4667e989f47a8705b0402fd'
p75
(lp76
S'Arcv.Ice.250-8f0f567e2191d212e402fcc8f97a93c7,0.967261904762'
p77
asS'VCL.20372-9fa1ce12d11a7166ebaaa52192ca3ff1'
p78
(lp79
S'VCL.Demented-df3d239499fc1b84ae1e1ec3ecfdc961,0.996389891697'
p80
asS'Attention.3-8086e8f3b41948d99ebab27517b049d2'
p81
(lp82
S'Attention.3-b90557b924a722d09512546b12e743a2,0.417106652587'
p83
asS'Trivial.64-67152182cf1987144d9eddb3f54bce83'
p84
(lp85
S'Trivial.Ansibomb-25e51990d9817bc1298c425f92f621f4,0.932584269663'
p86
asS'PSMPC.5652-b0fa428ed4641c06d50d4ba72100bf98'
p87
(lp88
S'PSMPC.Spunk-3ac00823fe8cae7575945f749b1c56cf,0.853526220615'
p89
asS'Mayberry'
p90
(lp91
S'Mayberry.475-8337ef37ee8b5f17977d6591413c41d0'
p92
aS'Mayberry.402.2-57e9e4f653a050d2caa95eaf810ca47c'
p93
aS'Mayberry.609-38a1fe42213d0284baceecc65748f6b2'
p94
asS'VirusConstructionSet'
p95
(lp96
sS'PSMPC.5652-2e1017c5674f0f15b6a637731f69df04'
p97
(lp98
S'PSMPC.Spunk-3ac00823fe8cae7575945f749b1c56cf,0.855072463768'
p99
asg93
(lp100
S'Mayberry.758-65d6e004c326f4813d73e34e5f9cfd4c,0.789106145251'
p101
asS'Burger.Pirate-8cc593cf134c6610433b0463d8cfc12b'
p102
(lp103
S'Burger.1336.c-81a3ad65fd3137c4ee82e415d8349fbd,0.78526645768'
p104
asS'BadTaste-a0062ea9e6c5a5822ff8c66df96f1388'
p105
(lp106
S'BadTaste-0c6581448cbed084eb85ae5496ebdc9d,0.523929471033'
p107
asS'Vgen.166-5610ba8fdf4458a1fcec7773a6b36aa1'
p108
(lp109
S'VGEN.74.6-c2f0a9903ce9281aa4f1415ae2dab966,0.93275862069'
p110
asS'DOS.Abraxas.1-4dd20823c10c49e4b8908a8032c50b74'
p111
(lp112
S'DOS.Vgen.2-e098f43395f9ff7734b9e60f72824043,0.99480369515'
p113
asS'Natas.4746.B-e04c14537dd04bff9d97f08732a568d2'
p114
(lp115
S'Natas.b-fd796ff196a6d72101e1cf37d6237cc8,1.0'
p116
asS'DOS.Neuroquila.4544.B.1-26157634647730f5310bb970e3a65242'
p117
(lp118
S'DOS.Vgen.2-e098f43395f9ff7734b9e60f72824043,1.0'
p119
asS'VGEN.7.512-0102da15452b89e261e56b2009515ed0'
p120
(lp121
S'VGEN.74.6-c2f0a9903ce9281aa4f1415ae2dab966,0.994231368881'
p122
asS'Leprosy.350-91a05cb20cd8f36e8a26ed2c717d88f7'
p123
(lp124
S'Leprosy.321-ac099a148573f5253b552fc5769efb25,0.926900584795'
p125
asS'Yankee.1-cce476c53c20a952a10183468938b9c6'
p126
(lp127
S'Yankee.5-579b62a3fb78a40ebdeb561319d90083,0.681662382177'
p128
asS'VCL.394-cbdc61b05d3f69e141de7bf848522932'
p129
(lp130
S'VCL.20372-9fa1ce12d11a7166ebaaa52192ca3ff1,0.976551724138'
p131
asS'Stoned'
p132
(lp133
sS'DarkAvenger.1947-434f9075665016f1a89a114e99811230'
p134
(lp135
S'DarkAvenger.1947-5d544d7ae736ffe888a56669f06f7df0,0.833068922968'
p136
asS'PSMPC.5652-bbf6442863c70cc7e84104f2b700be44'
p137
(lp138
S'PSMPC.Spunk-3ac00823fe8cae7575945f749b1c56cf,0.855334538879'
p139
asS'Zherkov'
p140
(lp141
S'Zherkov.1882-30321fed351b0302f79cc28d59414034'
p142
asS'VGEN.458.6-f54a492853e63dd0d17eb516fe6baf79'
p143
(lp144
S'VGEN.74.6-c2f0a9903ce9281aa4f1415ae2dab966,0.871074380165'
p145
asS'Vgen.47530-f085d9e8749e6baef0e3dcc1faa67c85'
p146
(lp147
S'VGEN.74.6-c2f0a9903ce9281aa4f1415ae2dab966,0.952115812918'
p148
asS'MPS.OPC_ColG-96581c383f591a3e2ef29fbef790d25e'
p149
(lp150
S'MPS.3.1.A-ba3ba344edca6245b7567a101a2aa87f,0.915483870968'
p151
asS'PSMPC.5652-9a858c494f491f9df2aa1707687d9a31'
p152
(lp153
S'PSMPC.Spunk-3ac00823fe8cae7575945f749b1c56cf,0.856115107914'
p154
asS'Path.Hunter.3-4a1fc47897f79bb7609f9616bd6d2119'
p155
(lp156
S'Path.1-c5691c20f7fba75dde582c291a2a1f58,0.989441416894'
p157
asS'April.1st.E-9a894bead030a9ffafe6c0a3dd4c4a4b'
p158
(lp159
S'April.1st.A-67950df2523160220f43d1c7d9301c1d,0.826120556414'
p160
asS'Fish.6.B-75bf5868bd8ae88d1edecc4a0dc7da71'
p161
(lp162
S'Fish.6.B-8683b950152d663ba2d77abda3dd4db8,1.0'
p163
asS'PS.MPC.Gen.2-d0d27b52a932b082aa70e821b09cad6e'
p164
(lp165
S'PS.MPC.Gen.3-016a9a5f87b885fb2090fbd4f3d0c9ee,0.755485893417'
p166
asS'Sunday.4-adbb647b2c7198c36be1e31cac0bed9f'
p167
(lp168
S'Sunday.4-29e0c5f2801ebec0ba8a54f5ed2ff031,0.43'
p169
asS'Boot.C.B.R-53fec2d79fe57ebd211b6f66765071e2'
p170
(lp171
S'Boot.Tequila.2-9fdff0ea2a95a1a21801af751da56d43,0.990969899666'
p172
asS'Trivial.46.E-f8a8f12e5a3a25887cc9aa1a2deb53da'
p173
(lp174
S'Trivial.Ansibomb-25e51990d9817bc1298c425f92f621f4,0.895131086142'
p175
asS'Mini.93-ada0c99ab935dc326ed24797ec8716e4'
p176
(lp177
S'Mini.2-c799034f246cbd3a71a07c15b2a4cadd,0.997419354839'
p178
asS'Vgen.40-7b2bbcdc75f21834f815b7e6d8cf9231'
p179
(lp180
S'VGEN.74.6-c2f0a9903ce9281aa4f1415ae2dab966,0.971171171171'
p181
asS'Small.130.gen-3df4814cbc0bbd5359e1fc5fcc1a08b6'
p182
(lp183
S'Small.130.gen-1170570be704495c57a19695dcd3b27a,0.883272058824'
p184
asS'MtE.Pogue.staticsig-d075e1055db82a5ed2a065386ea165d7'
p185
(lp186
S'MtE.Encroacher.B-256462f0de7ed8389bc740d243831b24,0.99939885783'
p187
asS'Gen.0067_-be4de1f03dd47742165c9a347c40dbd3'
p188
(lp189
S'Gen.1701.1704CascadeRelated-df82b7c655efd5ec2c1c46cfcb253e27,1.0'
p190
asS'MPC.Unnamed-820652b98a71f7338d02206b4f63dbcd'
p191
(lp192
S'MPC.1a-6ca8141cb6e349fc0442577b62e13cd1,0.975634517766'
p193
asS'Stoned.2-6f1c377f232bf6c02e3711271ff6234b'
p194
(lp195
S'Stoned.2-ec0c7e203b93dba42f85c48083ec20aa,0.776110790537'
p196
asS'VGEN.125.363-157eb4a0cce0be8f6c859ed18752582f'
p197
(lp198
S'VGEN.74.6-c2f0a9903ce9281aa4f1415ae2dab966,0.994520547945'
p199
asS'Pixel.296-20ffdeb1832b15b7ad7fe53117127cdf'
p200
(lp201
S'Pixel.936-9ed2a2a0045749b3f4922f407397a5b0,0.591093117409'
p202
asS'Xtratank.1-5b3c17cc1b68ff53e8c21b8dd8dac2a9'
p203
(lp204
S'DOS.Vgen.2-e098f43395f9ff7734b9e60f72824043,1.0'
p205
asS'Stoned.2-9f8578ef92a179b8f2224c2a584792b9'
p206
(lp207
S'Stoned.2-ec0c7e203b93dba42f85c48083ec20aa,0.777841892672'
p208
asS'Genesis.238-807a0c19bc87e4046bcc374cb537c7c1'
p209
(lp210
S'Genesis.296-1c581e6e5133f99ff7b0ab7306f4dd6b,0.932330827068'
p211
asS'PS.MPC.Gen.3-5d0b8fed65a822c2efba011f5652f47e'
p212
(lp213
S'PS.MPC.Gen.3-016a9a5f87b885fb2090fbd4f3d0c9ee,0.654465592972'
p214
asS'Burger.382-b73d6e3205f6c291b3d3a56f99cadac4'
p215
(lp216
S'Burger.1336.c-81a3ad65fd3137c4ee82e415d8349fbd,0.771159874608'
p217
asS'DOS.Abraxas-0cf9f33e5cfa50d7cdee0ed536856ff7'
p218
(lp219
S'DOS.Vgen.2-e098f43395f9ff7734b9e60f72824043,0.981524249423'
p220
asS'Tiny.Mutant-5bd7937616d085c11978cbd9b9823e6d'
p221
(lp222
S'TinyFamily2-059bf52023ad1c27fde8a4765065e90a,0.939698492462'
p223
asS'Ritzen.1088-8ba2fbb23e6a7a08063cea2837ba38c5'
p224
(lp225
S'Ritzen-723733cb88d9146c8b08c8214ec65ea0,0.427777777778'
p226
asS'Small.130.gen-a56e66befa283707287a504d9943c91f'
p227
(lp228
S'Small.130.gen-1170570be704495c57a19695dcd3b27a,0.933823529412'
p229
asS'Jerusalem.2.Nemesis-69c7d172b596a8e2169352d885684188'
p230
(lp231
S'Jerusalem.USA-1165db141aa4c07360858d5390b165d1,0.899673092098'
p232
asS'BadTaste-0c6581448cbed084eb85ae5496ebdc9d'
p233
(lp234
S'BadTaste-0572472c0e9bd815dc8e65264d3091df,0.411042944785'
p235
asS'Abraxas.15xx-b0b12e9e9ed14a7091a49d65a3699fa8'
p236
(lp237
S'Abraxas.1200-f1c5094307d72c1919bd2aeb0a19826a,0.673842841765'
p238
asS'Gen.1992-520eed7d2fb520a9b4e21b113a9aa5d8'
p239
(lp240
S'Gen.1701.1704CascadeRelated-df82b7c655efd5ec2c1c46cfcb253e27,1.0'
p241
asg92
(lp242
S'Mayberry.758-65d6e004c326f4813d73e34e5f9cfd4c,0.783519553073'
p243
asS'Pest'
p244
(lp245
S'Pest-f8c1f5a28dbfe567d8b0b6259c3e751b'
p246
asS'VGEN.77.637-0fa6c4e47b9e3596cda1d6ff79d045c1'
p247
(lp248
S'VGEN.74.6-c2f0a9903ce9281aa4f1415ae2dab966,0.934693877551'
p249
asS'CyberTech.2-64f43224cea103be83f2e15ad7aa0b74'
p250
(lp251
S'Cybertech.1313-835b547073f4e438bb0f0e8378212e6c,0.902173913043'
p252
asS'AIDS.1-2e9ff23c679aab77e95ad42e8563dd66'
p253
(lp254
S'AIDSII-d3ffb0106bbf90d6510e77beb6cde1b3,0.978146582827'
p255
asS'Trivial.28.A-0acdeaa2de0f997c9e3c023a6bf848e1'
p256
(lp257
S'Trivial.Ansibomb-25e51990d9817bc1298c425f92f621f4,0.936329588015'
p258
asS'Gen.1701.1704CascadeRelated-df82b7c655efd5ec2c1c46cfcb253e27'
p259
(lp260
S'Gen.905.A-27e61cc24788a5c76298e92f5637b12e,1.0'
p261
asS'VGEN.97.0-6c2e4718011d397f6b1a9b9dac3f3845'
p262
(lp263
S'VGEN.74.6-c2f0a9903ce9281aa4f1415ae2dab966,0.94127806563'
p264
asS'Vienna.1-5616140d01d1021ef0cb25470dd2c8a7'
p265
(lp266
S'Vienna.10-d89b3fd0e90ef3d58342a9566592639e,0.814814814815'
p267
asS'V.512.a-b047fa62418b644fe13d1657282f0405'
p268
(lp269
S'V.981-cc8dd99339fdfbef0c3d2e047df2828f,0.923573735199'
p270
asS'Mini.1-05024267a013c9c706e2a3ced57bd001'
p271
(lp272
S'Mini.93-ada0c99ab935dc326ed24797ec8716e4,0.992232004143'
p273
asS'Ginger'
p274
(lp275
sS'Immortal'
p276
(lp277
sS'Boot.Nichols.1-4be70f4a5303a249346dba5ae4103042'
p278
(lp279
S'Boot.Tequila.2-9fdff0ea2a95a1a21801af751da56d43,0.968223399133'
p280
asS'Rat'
p281
(lp282
sS'V.512.a-8d444f0980354fb6f4b9a72048f3eb56'
p283
(lp284
S'V.981-cc8dd99339fdfbef0c3d2e047df2828f,0.922497308934'
p285
asS'TinyFamily3-3d7d108ed1a222ccdc2ab203ed1c5966'
p286
(lp287
S'TinyFamily2-059bf52023ad1c27fde8a4765065e90a,0.941520467836'
p288
asS'Intruder.2336-e2f35d43aef739c6114713000f073f5f'
p289
(lp290
S'Intruder.1555-37246357b4df7c8391100928e7bd453c,0.710261569416'
p291
asS'Dark.Avenger.1801-614c826bd8c7793239109d627d5a4eaf'
p292
(lp293
S'DarkAvenger.1947-5d544d7ae736ffe888a56669f06f7df0,0.83606557377'
p294
asS'Clipper'
p295
(lp296
sS'Gen.801-6fe0eacbbf9a579a5e24f62995f00ad5'
p297
(lp298
S'Gen.1701.1704CascadeRelated-df82b7c655efd5ec2c1c46cfcb253e27,1.0'
p299
asS'PSMPC.5652-aa3fed94ad917764a167ac93562ab236'
p300
(lp301
S'PSMPC.Spunk-3ac00823fe8cae7575945f749b1c56cf,0.853211009174'
p302
asS'Amstrad.2-452cf8df84b19f6c5ae2b718abe0bdd4'
p303
(lp304
S'Amstrad.1-f1a7de7b174a7436af11adcc47f6ae4f,0.78167115903'
p305
asS'Boot'
p306
(lp307
sS'Spyer'
p308
(lp309
sS'Spyer.2-cc937bff648458d5ae26c2376588bfc2'
p310
(lp311
S'Spyer.2-f997cbbf45c011d0499bb19dd0dc6d28,0.557284299859'
p312
asS'Satan'
p313
(lp314
sS'Frisk'
p315
(lp316
S'Frisk.4-6fe8af107b28d16a3f5ccd85817c1572'
p317
asS'AntiPas'
p318
(lp319
S'AntiPas.605-fceaa5a57b448722c3983cb668c27c6f'
p320
asS'DOS'
p321
(lp322
S'DOS.ARCV.745-be5bd33648a9f927fe7568dd1463423e'
p323
asS'Small.130.gen-bed970043374b7532e0709639911e128'
p324
(lp325
S'Small.130.gen-1170570be704495c57a19695dcd3b27a,0.852941176471'
p326
asS'BadGuy'
p327
(lp328
S'Badguy.B-94d5263a606257c02ac3c4d1c8cf3fa0'
p329
asS'BlackMonday.4-8369e021058388dc491ecafe13ae5278'
p330
(lp331
S'BlackMonday.4-8487d0aa0b8f302e3e09589ab30ab9c1,0.905594405594'
p332
asS'Trivial.Ansibomb-25e51990d9817bc1298c425f92f621f4'
p333
(lp334
S'Trivial.42-8a44f220fcbed94bdf58057b11d9e343,0.902621722846'
p335
asS'LockJaw'
p336
(lp337
sS'Joke.Panic.05-7b7e2d572acd9119edfa92b0a710c468'
p338
(lp339
S'Joke.Screeneater-d95e348afbcd6ee2720752874a9f16f3,0.997045220966'
p340
asS'Trivial.Mini35-49834a0f717737b13c8f75643650a4ef'
p341
(lp342
S'Trivial.Ansibomb-25e51990d9817bc1298c425f92f621f4,0.89138576779'
p343
asS'Trivial.42-8a44f220fcbed94bdf58057b11d9e343'
p344
(lp345
S'Trivial.Ansibomb-25e51990d9817bc1298c425f92f621f4,0.89138576779'
p346
asS'Burger.560.h-d8a6c35a4512ab1fdfd1965cfc4c9f80'
p347
(lp348
S'Burger.1336.c-81a3ad65fd3137c4ee82e415d8349fbd,0.744514106583'
p349
asS'VGEN.505.703.2-58e168fab9f4d270d99eb52b74bc7025'
p350
(lp351
S'VGEN.74.6-c2f0a9903ce9281aa4f1415ae2dab966,1.0'
p352
asS'Clonewar.261-45c09ce5f99e2c0675636898695f32af'
p353
(lp354
S'Clonewar.546-e41e9d24e7730e205683d24867b57486,0.763157894737'
p355
asS'Plastique.1-808106c1aeb48b3c055af07d164db0ff'
p356
(lp357
S'Plastique.2-29389536b41d96e97d2e9443f1138c6b,0.785138997142'
p358
asS'PS.MPC.780-81f87bf37297f2b984a3e27cf16ee00d'
p359
(lp360
S'PS.MPC.Gen.3-016a9a5f87b885fb2090fbd4f3d0c9ee,0.829153605016'
p361
asS'Riot.378-2f6597144c7f93178bd5b4fc021f30a7'
p362
(lp363
S'Riot-bbee12f53bdbaf4dfbd9be0e590216b8,0.901856763926'
p364
asS'Mannequin'
p365
(lp366
sS'VGEN.429.6-1c4cd951db26cdb76ad26879c0ce372f'
p367
(lp368
S'VGEN.74.6-c2f0a9903ce9281aa4f1415ae2dab966,0.936734693878'
p369
asS'CaptainTrips'
p370
(lp371
S'CaptainTrips-cd1145d3ecfc98303b25eaf1c1c94d5a'
p372
asS'Liberty.1-22eac7dad4b0b50764f80a55a438bdfa'
p373
(lp374
S'Liberty.2-09d3ffe35685236c2789e220c6b93211,0.951689066473'
p375
asS'Magnitogorsk'
p376
(lp377
sS'Gen.1677-e233fa34e8a66fcd7113b574d0a30325'
p378
(lp379
S'Gen.1701.1704CascadeRelated-df82b7c655efd5ec2c1c46cfcb253e27,1.0'
p380
asS'USSR.707.B-99134c4785529994c62b16b357a0f8f9'
p381
(lp382
S'USSR.2144.B-f91600631587c21c8f28e02235fce3b0,0.988463555322'
p383
asS'Mini.176-04b4faed1a07dc81160a3277e1cae235'
p384
(lp385
S'Mini.93-ada0c99ab935dc326ed24797ec8716e4,0.966244725738'
p386
asS'DIRII.k-eff55f1fd17e9f400351ceb8282e1da8'
p387
(lp388
S'Dir.IIb-f7ee64c130446479431d62e04a81cadb,0.367451381781'
p389
asS'AntiCAD.4096-7888ff3296772236001e6b78120b29bf'
p390
(lp391
S'AntiCAD-1c015899fa9383fad5dc6a86cef47009,0.827259475219'
p392
asS'Burger.560.A15-757880750744ebe31ddc0c87f571d325'
p393
(lp394
S'Burger.1336.c-81a3ad65fd3137c4ee82e415d8349fbd,0.744514106583'
p395
asS'Viruslesson2-09336e9e0f4d6e0ada8eda279cefb0d6'
p396
(lp397
S'Viruslesson2-9cf776c921b5d465d4b9be8a49d09ac2,0.210365853659'
p398
asS'ChristmasViolator'
p399
(lp400
sS'Spanish.Telecom.1-fde1947a3eef28c60c36854a2f891e8a'
p401
(lp402
S'Spanish-fd6e7d6d27f7f782c29535150456241c,0.99010994066'
p403
asS'Diskspoiler'
p404
(lp405
sS'USSR.711-fbbd31cf56d8753c7470572ec38b41d7'
p406
(lp407
S'USSR.707.B-99134c4785529994c62b16b357a0f8f9,0.89696969697'
p408
asS'VGEN.99.528-854e29708dde88a6add76d593b58c061'
p409
(lp410
S'VGEN.74.6-c2f0a9903ce9281aa4f1415ae2dab966,0.920408163265'
p411
asS'Gen.100.Years.1-ee5dbb6f142fe652ac74802ebb941019'
p412
(lp413
S'Gen.1701.1704CascadeRelated-df82b7c655efd5ec2c1c46cfcb253e27,1.0'
p414
asS'USSR.1049.D-dca9ce7079010a238a85029d4758bc16'
p415
(lp416
S'USSR.707.B-99134c4785529994c62b16b357a0f8f9,0.968098159509'
p417
asS'DOS.Arara.1057-9d127dcb682a7205b8e6d1785a98a068'
p418
(lp419
S'DOS.Vgen.2-e098f43395f9ff7734b9e60f72824043,0.995958429561'
p420
asS'New.COM.1-f9092c89af3a613bf0fce7989e5bf45a'
p421
(lp422
S'New.COM.1-98a08bfe8c57674b73432229ea9c4c6f,0.567014993185'
p423
asS'Jerusalem.USA-025bb92ed5fe6eae30b59b8b7262cb8f'
p424
(lp425
S'Jerusalem.USA-1165db141aa4c07360858d5390b165d1,0.876338631496'
p426
asS'USSR.2144.B-af502d9ba8a3a551ba53e6dbac0639c4'
p427
(lp428
S'USSR.707.B-99134c4785529994c62b16b357a0f8f9,0.974210526316'
p429
asS'Xuxa.2-f218f8c4fcf63c7348608f2d90e5e4ad'
p430
(lp431
S'DOS.Vgen.2-e098f43395f9ff7734b9e60f72824043,0.995054750971'
p432
asS'Ash.737-46a71152b7a7780127c6043015767857'
p433
(lp434
S'Ash.712-a5fbab25b5d7eafa1b95fd4f14fe7ff3,0.998874590204'
p435
asS'Wilbur.1-d0354d5a395a2f4ae8bed677633a1616'
p436
(lp437
S'Wilbur.2-33c47bca6cb899fb06d30011ae910289,0.820895522388'
p438
asS'Word.C.5-7fd959e86fb9fcd4a0aecc88f476cbee'
p439
(lp440
S'Word.B-d0f9be1ae1a029a2c23bc32b251a7068,0.997771173848'
p441
asS'Small.130.gen-5433bf7bc61e728834fabced4c9cf12a'
p442
(lp443
S'Small.130.gen-1170570be704495c57a19695dcd3b27a,0.949790794979'
p444
asS'VGEN.118.32-7415d55b82c8e2ec92767aecc7ebc1f9'
p445
(lp446
S'VGEN.74.6-c2f0a9903ce9281aa4f1415ae2dab966,0.965306122449'
p447
asS'Mannequin.2-c53713c38b30a456f2f9619b3ab03e22'
p448
(lp449
S'Mannequin.2-427fd516bddb419007063f7d0be64ced,0.746645619574'
p450
asS'Kohn6'
p451
(lp452
sS'DarkAvenger.1947-6de6313ab69000b2cdf60e823735091c'
p453
(lp454
S'DarkAvenger.1947-5d544d7ae736ffe888a56669f06f7df0,0.769610435396'
p455
asS'Vienna.10-d89b3fd0e90ef3d58342a9566592639e'
p456
(lp457
S'Vienna.637-c775109398ab6829b651ad419e91b9f5,0.85119047619'
p458
asS'Mix'
p459
(lp460
sS'Grunt.203-9bbdef2169da6d6f192538b49b787ee5'
p461
(lp462
S'Grunt.529-7397c33c6d43da66e23473c735dd27f0,0.964726631393'
p463
asS'Doom.II.B.1-19a9be1ceec11ef7533cc2b124966d13'
p464
(lp465
S'Doom.677-6ecf7a94cad8ae24128fc17075485545,1.0'
p466
asS'VGEN.81.512-83fef126f1b173ae0c30d2a3124c50ed'
p467
(lp468
S'VGEN.74.6-c2f0a9903ce9281aa4f1415ae2dab966,0.99862437906'
p469
asS'Alabama.B-b5ec7f37fdb8a3b5575d9b5c703cc4f2'
p470
(lp471
S'Alabama.B-40431a4cff4677c24628bc7a5e7e47f6,0.253120665742'
p472
asS'VGEN.41.0-ae545bbb5270852965d00c573dc7e9bc'
p473
(lp474
S'VGEN.74.6-c2f0a9903ce9281aa4f1415ae2dab966,0.938704028021'
p475
asS'Spyer.2-2d5d36fe88a1825d9863a132a5c02703'
p476
(lp477
S'Spyer.2-f997cbbf45c011d0499bb19dd0dc6d28,0.573785950024'
p478
asS'Attention.3-b9be930b9c6bf966595eb1693d7ea4c4'
p479
(lp480
S'Attention.3-eaea8c5aa8e351950bb125bf19226529,0.901916572717'
p481
asS'Diamond-e559c6a2f51dabefb0eec280d02dd9c7'
p482
(lp483
S'Diamond.3-1bedd9e1c58ceded79d6cbbe92f0c53b,0.616153205662'
p484
asS'DOS..10842-6bb04ad8b3c7f6ffe3cd596273003db2'
p485
(lp486
S'DOS.Vgen.2-e098f43395f9ff7734b9e60f72824043,1.0'
p487
asS'Attention'
p488
(lp489
sS'Sentinel.6-c84422083fb69c9748d6d7b48a000e28'
p490
(lp491
S'Sentinel.6-74ac559ebe1e819ce1c414d529f0d9bd,0.734686971235'
p492
asS'Stoned.2-2ca0586f9074377caef6af976b1618ab'
p493
(lp494
S'Stoned.2-ec0c7e203b93dba42f85c48083ec20aa,0.777841892672'
p495
asS'Raubkopie.COM-c04e0ee278a2f3dc291282a3eb5c1734'
p496
(lp497
S'Raubkopie-53be32d688043791b974d11b9a8cb5ff,0.791336502905'
p498
asS'LockJaw-ecf8129d97166eabafd8ebd1798e1d03'
p499
(lp500
S'LockJaw-68291ebc8dcdc0221d6a80deb6dad2ce,0.621372031662'
p501
asS'Atom'
p502
(lp503
sg329
(lp504
S'Badguy.B-3dfa5e5284663c2c87519fde64194691,0.469816272966'
p505
asS'Whale'
p506
(lp507
sS'Timid'
p508
(lp509
sS'Dos7.376-b547413177525602c62f6b5a7f007bbb'
p510
(lp511
S'DOS.Vgen.2-e098f43395f9ff7734b9e60f72824043,0.980369515012'
p512
asS'Jerusalem.USA-59558311389c3edf287cc980a4e916a2'
p513
(lp514
S'Jerusalem.USA-1165db141aa4c07360858d5390b165d1,0.879044076203'
p515
asS'Jerusalem.PuertoExe-d1ad4e40ebda45199b18915c4913cfbb'
p516
(lp517
S'Jerusalem.USA-1165db141aa4c07360858d5390b165d1,0.926276631721'
p518
asS'V.512.b-106a3ad8465ec3fa020a645b71e5ab3e'
p519
(lp520
S'V.981-cc8dd99339fdfbef0c3d2e047df2828f,0.942949407966'
p521
asS'Gen.1701.1704Cascade.VersionB-f30c9f56da31767dfdc5a386c0a031a5'
p522
(lp523
S'Gen.1701.1704CascadeRelated-df82b7c655efd5ec2c1c46cfcb253e27,0.999287241625'
p524
asS'Gen.1355-77548cc2cee0b0df23e8b7be91a66f36'
p525
(lp526
S'Gen.1701.1704CascadeRelated-df82b7c655efd5ec2c1c46cfcb253e27,1.0'
p527
asS'Lockjaw.808-cf699a326a5e8a1709d630e118650ed1'
p528
(lp529
S'LockJaw-68291ebc8dcdc0221d6a80deb6dad2ce,0.595454545455'
p530
asS'Trivial.44.A-cad12c9d6f2041e0b0911511b5e78d6b'
p531
(lp532
S'Trivial.Ansibomb-25e51990d9817bc1298c425f92f621f4,0.928838951311'
p533
asS'DarkAvenger.1947-12ba92fad2f39e1e6ecac620393bd70d'
p534
(lp535
S'DarkAvenger.1947-5d544d7ae736ffe888a56669f06f7df0,0.76679005817'
p536
asS'BadTaste-478c0d98d419f909feb083d3ed76a9ff'
p537
(lp538
S'BadTaste-0c6581448cbed084eb85ae5496ebdc9d,0.557603686636'
p539
asS'SVC.3112-099f0e7198795f65b12afb75f93df1b6'
p540
(lp541
S'SVC.6.0.B-12bb63862539270a92e086c69c6badbe,0.774908784732'
p542
asS'PSMPC.Spunk-3ac00823fe8cae7575945f749b1c56cf'
p543
(lp544
S'PSMPC.5652-5c2cf4d58bb953b0c8bde4cc4c2cd86e,0.847826086957'
p545
asS'USSR.1049.D-a190ebca5f1f165dfad7caa160b05ee6'
p546
(lp547
S'USSR.707.B-99134c4785529994c62b16b357a0f8f9,0.973146292585'
p548
asS'Tiny.Di.310-998eee4486776771cceac46df07dea6a'
p549
(lp550
S'Tiny.97-b38f3c9af3d882853ca3b359f750bdbe,0.945714285714'
p551
asS'VGEN.89.13-47cbf964fdb37da6c38c18d0b2530a76'
p552
(lp553
S'VGEN.74.6-c2f0a9903ce9281aa4f1415ae2dab966,0.950762016413'
p554
asS'Trivial.46.E-b34feee745fc78f746a0b56f82aa2404'
p555
(lp556
S'Trivial.Ansibomb-25e51990d9817bc1298c425f92f621f4,0.917602996255'
p557
asS'VengG-30490300bb5bf18397ebf70808e7c5b9'
p558
(lp559
S'VengG-eaa54281d7d0f78135050f96f6dd5efb,0.30375'
p560
asS'Immortal-c8fae4a61d546dc39724f86a15549724'
p561
(lp562
S'Immortal-bca79a38e2f8c9ac2013035122d7bc88,0.21'
p563
asS'Trivial'
p564
(lp565
S'Trivial.Vootie-83a7c24b03545b818fb3fff316b9ab10'
p566
ag555
asS'TinyFamily1'
p567
(lp568
sS'Horse'
p569
(lp570
S'Horse.B-7898a8914b6e251022605eb277aac3f0'
p571
asS'TinyFamily2'
p572
(lp573
g286
ag221
asS'VGEN.40722-f7358472d0389121ae65855b225f3f71'
p574
(lp575
S'VGEN.74.6-c2f0a9903ce9281aa4f1415ae2dab966,0.932867132867'
p576
asS'Boot.Tequila.2-9fdff0ea2a95a1a21801af751da56d43'
p577
(lp578
S'Boot.Diskkiller-3f9537f62d5f3822fe6aec2656dc8e0b,0.976408281175'
p579
asS'Keypress'
p580
(lp581
sS'Datacrime.1-a50e7f2390c2f954f08f9bd78e4cd537'
p582
(lp583
S'Datacrime.II.C-c8a9c7f02d77c76dceafbec5c35e602d,0.955947136564'
p584
asS'USSR.1049.D-7dae6e36e4bfa75972622923ede1a365'
p585
(lp586
S'USSR.707.B-99134c4785529994c62b16b357a0f8f9,0.967874794069'
p587
asS'Small.130.gen-fd7b6ad0a74d43ec207e32ec65cacd83'
p588
(lp589
S'Small.130.gen-1170570be704495c57a19695dcd3b27a,0.876838235294'
p590
asS'Pascal.400-0818f30c55cf857afd722ee02bf09baf'
p591
(lp592
S'Pascal.529-9197e4e3155a5f5ff1596e7895139168,0.762308998302'
p593
asS'Rape.2-32dee56666c9636fe9e621eef1c8bcf1'
p594
(lp595
S'Rape.486-4510b81057dfd583d46566cc4fe68a6f,0.987050043898'
p596
asS'HollandGirl-6a085d692ffbb413bf9137c1bd58ba25'
p597
(lp598
S'HollandGirl-4a0601a03fe4706288835f8b5c9ca6a2,0.230366492147'
p599
asS'Stoned.2-46072a6574ba48b00bcbaa882b108a52'
p600
(lp601
S'Stoned.2-ec0c7e203b93dba42f85c48083ec20aa,0.776110790537'
p602
asS'PS.MPC.Doggy-3559b3c266bfa58e27d9f91ae91959d5'
p603
(lp604
S'PS.MPC.Gen.3-016a9a5f87b885fb2090fbd4f3d0c9ee,0.697492163009'
p605
asS'Attitude.548-80cf40163253f4fb344f24ede4e82f56'
p606
(lp607
S'Attitude.724.825-f56ab5899f9e6db5fb96bf5b830faf81,0.795608108108'
p608
asS'Pixel'
p609
(lp610
S'Pixel.936-3d32610b4f4dd7e3c3d587ea277af9b7'
p611
asS'PS.MPC.Gen-e8530e6260e4c92243b972e8c8ebf989'
p612
(lp613
S'PS.MPC.Gen.3-016a9a5f87b885fb2090fbd4f3d0c9ee,0.810344827586'
p614
asS'MPCP-060a5c573359e3e6c9af3a955f977168'
p615
(lp616
S'MPCP.1-ff6215819f95c736af5967039603e701,0.969551282051'
p617
asS'Small.130.gen-1ccb66b3258f08d9ea36da01b3255a29'
p618
(lp619
S'Small.130.gen-1170570be704495c57a19695dcd3b27a,0.824167872648'
p620
asS'V1'
p621
(lp622
sS'Trivial.31.B-401f48c7e22b9d17dad0ffb8e2d97954'
p623
(lp624
S'Trivial.Ansibomb-25e51990d9817bc1298c425f92f621f4,0.910112359551'
p625
asS'Natas'
p626
(lp627
sS'Austr.Parasite.3-afbfb70f550bca15ccba7d0bd1e7fd04'
p628
(lp629
S'Austr.Para.306-facef4aa3c8cc49ef90c338fcb873bb0,0.781443298969'
p630
asS'VGEN.5498.512-d78dfe5eb44bd577d4155b9d861f58cb'
p631
(lp632
S'VGEN.74.6-c2f0a9903ce9281aa4f1415ae2dab966,0.964980544747'
p633
asS'Small.130.gen-3a03bd9ce9fdf3bd90add24dc2aa6d47'
p634
(lp635
S'Small.130.gen-1170570be704495c57a19695dcd3b27a,0.887336244541'
p636
asS'Path'
p637
(lp638
sg142
(lp639
S'Zherkov.2968-7f714c11d459b3dfbd00d881f159c710,0.51'
p640
asS'Leprosy.8-6a50c7d2528fd5864c93c6a8e7442026'
p641
(lp642
S'Leprosy.321-ac099a148573f5253b552fc5769efb25,0.88475177305'
p643
asS'TPE'
p644
(lp645
sS'Intruder.1555-37246357b4df7c8391100928e7bd453c'
p646
(lp647
S'Intruder.1988-029a0af0352e55e64e5d57944afceabe,0.761904761905'
p648
asS'DarthVader.255-2e2b0467e91f807ef3bc514aa35b88f6'
p649
(lp650
S'DarthVader.344-554f9b3159c725bfb312a84946df0af6,0.827794561934'
p651
asS'Mini.127a-23d06ef2e762827d0e2064d7139a6745'
p652
(lp653
S'Mini.93-ada0c99ab935dc326ed24797ec8716e4,0.835714285714'
p654
asS'VGEN.56.512-8e78665476e92eb50f8410e5030ba834'
p655
(lp656
S'VGEN.74.6-c2f0a9903ce9281aa4f1415ae2dab966,0.994119808894'
p657
asS'Doom.677-6ecf7a94cad8ae24128fc17075485545'
p658
(lp659
S'Doom.II.B.1-19a9be1ceec11ef7533cc2b124966d13,1.0'
p660
asS'Leprosy'
p661
(lp662
S'Leprosy.Fairview-c93eb9db262dd240a297d332ca19f7cc'
p663
aS'Leprosy.800-98ca64a31224ebd3df73373d86658812'
p664
asS'Silly.215-966b12c9dd0483869332a09ab4577d5b'
p665
(lp666
S'Silly.2256-fde128d7167fe9bb1d246bca367e3d51,0.997743229689'
p667
asS'Gen.905.A-8f51fa1df1e0ba32f2a13ef8dd1ed4fb'
p668
(lp669
S'Gen.1701.1704CascadeRelated-df82b7c655efd5ec2c1c46cfcb253e27,1.0'
p670
asS'Badboy.d-0f8b522c770aad667f34e69f872f7aa9'
p671
(lp672
S'BadBoy.2-c561862ec4e9f37a6a7e9fbbe8329e2e,0.584632516704'
p673
asS'Deicide'
p674
(lp675
sS'VGEN.14432.713-512f4ac187b7e9383a62e153f83a90f6'
p676
(lp677
S'VGEN.74.6-c2f0a9903ce9281aa4f1415ae2dab966,0.877551020408'
p678
asS'MPCP'
p679
(lp680
sS'Diskspoiler-0b0157e4ade9fe09f1aa59d02a162f14'
p681
(lp682
S'Diskspoiler-7d35dd2a3065603f540a53a7590d328e,0.35'
p683
asS'VGEN.70.3-be59883d55bc80760d7474e9be3bf4d0'
p684
(lp685
S'VGEN.74.6-c2f0a9903ce9281aa4f1415ae2dab966,0.914691943128'
p686
asS'PS.MPC.Gen.3-a5d6edd9eccf0abbf0500a0a67e323ed'
p687
(lp688
S'PS.MPC.Gen.3-016a9a5f87b885fb2090fbd4f3d0c9ee,0.589216944801'
p689
asS'Gen.1575.B-4dd48493bb7a6e13ae8ce5b12783186b'
p690
(lp691
S'Gen.1701.1704CascadeRelated-df82b7c655efd5ec2c1c46cfcb253e27,1.0'
p692
asS'Timid.305-0de44ce6a90beefaeff357d515ae8e79'
p693
(lp694
S'Timid.306-c2d6506679875803897b96a1180aff55,0.633405639913'
p695
asS'Gen.905.A-27e61cc24788a5c76298e92f5637b12e'
p696
(lp697
S'Gen.1701.1704CascadeRelated-df82b7c655efd5ec2c1c46cfcb253e27,1.0'
p698
asS'Tiny.155-5cc92dd27252cee24bcff674291cc232'
p699
(lp700
S'Tiny.97-b38f3c9af3d882853ca3b359f750bdbe,0.9375'
p701
asS'Horse.B-a2ce82f156425f325aaf20212695bec4'
p702
(lp703
S'Horse.8-5fb4708b19e285e4ec9ec41dc7950421,0.915682062299'
p704
asS'VGEN.976.512-c7d2e0c597b5f2c649509b299f3d704a'
p705
(lp706
S'VGEN.74.6-c2f0a9903ce9281aa4f1415ae2dab966,0.999675803124'
p707
asS'Vgen.791-340158789261c381981dbca62730f5c4'
p708
(lp709
S'VGEN.74.6-c2f0a9903ce9281aa4f1415ae2dab966,1.0'
p710
asS'Datacrime.1-04fff5cccc9a3fefbd81e35fd5a419f3'
p711
(lp712
S'Datacrime.II.C-c8a9c7f02d77c76dceafbec5c35e602d,0.975485661425'
p713
asS'Dir.2-5ca3d65ad8757d46c04e81cfa924cb8a'
p714
(lp715
S'DIRII.k-eff55f1fd17e9f400351ceb8282e1da8,0.928653624856'
p716
asS'Small.130.gen-98f90d7e26c4ecdbf79300d1dab24203'
p717
(lp718
S'Small.130.gen-1170570be704495c57a19695dcd3b27a,0.852022058824'
p719
asS'MPC.Unnamed.2-cbeb710990b57fe9da081a4fc4054da9'
p720
(lp721
S'MPC.1a-6ca8141cb6e349fc0442577b62e13cd1,0.978680203046'
p722
asS'MPC.Unnamed.2-4d06385ce261abd57cd5ddc9631ccd97'
p723
(lp724
S'MPC.1a-6ca8141cb6e349fc0442577b62e13cd1,0.978680203046'
p725
asS'Grog.1082-4b4cf27f8f1f49133190272a77f777cd'
p726
(lp727
S'Grog.1082-ddd77b39c084703f6807cbcd2f02ea39,0.890825688073'
p728
asS'Friday.13th.C-ed5a24143c4a9c8ce360056bc9dea896'
p729
(lp730
S'Friday.13th.C-a0167e004b2515308007884a79f00b98,0.597147950089'
p731
asS'VCL.394-f4eaaa62443fc7720d1e8081f8a67a36'
p732
(lp733
S'VCL.20372-9fa1ce12d11a7166ebaaa52192ca3ff1,0.96170212766'
p734
asS'Liberty'
p735
(lp736
sS'VGEN.1179.512-fb20e67b8e5cec76914b17f959514980'
p737
(lp738
S'VGEN.74.6-c2f0a9903ce9281aa4f1415ae2dab966,0.980793854033'
p739
asS'Small.130.gen-ee2b17ef738a80074a412e338d2d7784'
p740
(lp741
S'Small.130.gen-1170570be704495c57a19695dcd3b27a,0.929763560501'
p742
asS'ARCV.562-a74329b3a10fef9899ffdab9b0494465'
p743
(lp744
S'Arcv.Ice.250-8f0f567e2191d212e402fcc8f97a93c7,0.948477751756'
p745
asS'Spyer.2-93a1c1e12838d9c2a7b19e5c3a850c21'
p746
(lp747
S'Spyer.2-f997cbbf45c011d0499bb19dd0dc6d28,0.561999057049'
p748
asS'K4.687-e4824333d563128ec7089cb03072948e'
p749
(lp750
S'K4.737-6174ab2c21c14242fb19f7afcec794b8,0.894088669951'
p751
asS'VGEN.169.0-849b6af77d769ba607b8b4109eb86d53'
p752
(lp753
S'VGEN.74.6-c2f0a9903ce9281aa4f1415ae2dab966,0.984942084942'
p754
asS'Plastique'
p755
(lp756
sS'VGEN.250.0-019a6b5765dd279c7852bd99ca31a373'
p757
(lp758
S'VGEN.74.6-c2f0a9903ce9281aa4f1415ae2dab966,1.0'
p759
asS'VGEN.66.0-ba1486abfa6ff57da900a273af3a3edf'
p760
(lp761
S'VGEN.74.6-c2f0a9903ce9281aa4f1415ae2dab966,0.979231568017'
p762
asS'VengG'
p763
(lp764
sS'Austr'
p765
(lp766
sS'Vgen.14406-a4039d5551d701f7d34c827e71a82739'
p767
(lp768
S'VGEN.74.6-c2f0a9903ce9281aa4f1415ae2dab966,0.930612244898'
p769
asS'XMas.Violator.1-57ef36af4b594050af1a658bdb7d0eef'
p770
(lp771
S'DOS.Vgen.2-e098f43395f9ff7734b9e60f72824043,1.0'
p772
asS'Fichv.EXE1.0-3aec34a7d838c7a18af66d4f1bf08163'
p773
(lp774
S'DOS.Vgen.2-e098f43395f9ff7734b9e60f72824043,0.998098457638'
p775
asS'VGEN.395.378-095d78692124fcf24bfbc230f66ddf2a'
p776
(lp777
S'VGEN.74.6-c2f0a9903ce9281aa4f1415ae2dab966,0.851020408163'
p778
asS'IMI.1-95db4b1b1009fee6451056d97f75a015'
p779
(lp780
S'IMI.1536.A-6252716ce99a9485fac4445d47d5c4b7,0.634280476627'
p781
asS'Gen.1554-ade62ff037b7ca20fc1b95fe8d8b8059'
p782
(lp783
S'Gen.1701.1704CascadeRelated-df82b7c655efd5ec2c1c46cfcb253e27,1.0'
p784
asS'Yankee.1-68a63e3c0e5f2f23002adee1c660bb86'
p785
(lp786
S'Yankee.1-cce476c53c20a952a10183468938b9c6,0.689034369885'
p787
asS'Pixel.296-6c9813485d42fc779480aad903559a79'
p788
(lp789
S'Pixel.936-9ed2a2a0045749b3f4922f407397a5b0,0.739010989011'
p790
asS'Doom'
p791
(lp792
sS'Vienna.5520-f473629f2d8bee3e17d3f65e86137cca'
p793
(lp794
S'Vienna.637-c775109398ab6829b651ad419e91b9f5,0.986330426585'
p795
asS'MtE.Encroacher.B-256462f0de7ed8389bc740d243831b24'
p796
(lp797
S'MtE.Pcweevil.staticsig.1-deb95f114b3930e1ddba0cb23b788d3a,0.982867448151'
p798
asS'Datacrime.II.C-c8a9c7f02d77c76dceafbec5c35e602d'
p799
(lp800
S'Datacrime.1-a50e7f2390c2f954f08f9bd78e4cd537,0.954845814978'
p801
asS'PSMPC.5652-743974ae344ec72daf75c448cad420a2'
p802
(lp803
S'PSMPC.Spunk-3ac00823fe8cae7575945f749b1c56cf,0.853526220615'
p804
asS'Word'
p805
(lp806
sS'Small.130.gen-37c68f5870d8ac54ac8c8e4b3286c777'
p807
(lp808
S'Small.130.gen-1170570be704495c57a19695dcd3b27a,0.912220309811'
p809
asS'Traceback'
p810
(lp811
sS'VGEN.127.0-a4af78bb249396af9dde3fb4c41825e8'
p812
(lp813
S'VGEN.74.6-c2f0a9903ce9281aa4f1415ae2dab966,0.993536472761'
p814
asS'Keypress.3-b54f1b137d61443f4cb3984c64ba0601'
p815
(lp816
S'Keypress.II.B-b3facd9235b8b1cac8d3922a16747cf0,0.267536704731'
p817
asS'Nina'
p818
(lp819
sS'USSR'
p820
(lp821
sS'C.Virus.packeg-e9d37f814f0c5c2740b88f4876a4348c'
p822
(lp823
S'C.Virus.6-fe89f76796b71b3d814a2ffae40d8ddb,0.786043130603'
p824
asS'VGEN.67.0-a40064f5628d21d1c346f6c91f1a1d1f'
p825
(lp826
S'VGEN.74.6-c2f0a9903ce9281aa4f1415ae2dab966,0.981424148607'
p827
asS'Plastique.1-6b539cafd32efaa5ea31fe5381dc8c57'
p828
(lp829
S'Plastique.2-29389536b41d96e97d2e9443f1138c6b,0.785138997142'
p830
asS'Atom.350-06f31660048bd3267b5a98bef0ac5ae1'
p831
(lp832
S'Atom.Ant-de423fa6c6158504b7a8080ccd152eea,0.993516399695'
p833
asS'Mannequin.2-ae65098b26aea620beadb53a116bb5aa'
p834
(lp835
S'Mannequin.2-427fd516bddb419007063f7d0be64ced,0.753354380426'
p836
asS'Word.B-76f6a710b920ecf93b5438e86b9e9e58'
p837
(lp838
S'Word.C.5-7fd959e86fb9fcd4a0aecc88f476cbee,0.994799405646'
p839
asS'Boot.Diskkiller-3f9537f62d5f3822fe6aec2656dc8e0b'
p840
(lp841
S'Boot.Tequila.2-9fdff0ea2a95a1a21801af751da56d43,0.98122291767'
p842
asS'Xtratank'
p843
(lp844
sS'MPC.Unnamed.2-56cc5db89d74294b104a096f1f7aa25c'
p845
(lp846
S'MPC.1a-6ca8141cb6e349fc0442577b62e13cd1,0.97461928934'
p847
asS'C.Virus.6-fe89f76796b71b3d814a2ffae40d8ddb'
p848
(lp849
S'C.Magic.3-24f873831711c31caba70c03a71a2e67,1.0'
p850
asS'SillyC.1-bb034122399577e46286a26d34108b88'
p851
(lp852
S'SillyC.106-418ed3ad7818840cfe06e1b0d63ad7fb,0.891666666667'
p853
asS'MemLapse.385-96f81c28ef2719ab9c659c16456f778d'
p854
(lp855
S'MemLapse.366-69e09e9abd60606431de748b8f6446ed,0.781170483461'
p856
asS'AIDSII-d3ffb0106bbf90d6510e77beb6cde1b3'
p857
(lp858
S'AIDS.1-06e5389543f280afff117d0a62735c02,0.979819709076'
p859
asS'MPC.Unnamed-2a25163ba066d1d2fce0e4e5c4080b2d'
p860
(lp861
S'MPC.1a-6ca8141cb6e349fc0442577b62e13cd1,0.972588832487'
p862
asS'DOS.Flip-2bc48c1229b3f762300cb0b36bdc6fc4'
p863
(lp864
S'DOS.Vgen.2-e098f43395f9ff7734b9e60f72824043,1.0'
p865
asS'MPC.Unnamed.2-a58262bbeef8126a9bf4405c97bbc766'
p866
(lp867
S'MPC.1a-6ca8141cb6e349fc0442577b62e13cd1,0.978680203046'
p868
asS'Kalah.390-72d3db6adca07b5419e9cc5a4825fc73'
p869
(lp870
S'Kalah.390-d45990b193625a19d479d718616b067b,0.966358284272'
p871
asS'BadTaste-90386e4792b490eee480b8c81133b5b5'
p872
(lp873
S'BadTaste-0c6581448cbed084eb85ae5496ebdc9d,0.496866606983'
p874
asS'Gen.1701.1704Cascade.VersionB-c36aa9fb99334b75dcfb6cde407963c0'
p875
(lp876
S'Gen.1701.1704CascadeRelated-df82b7c655efd5ec2c1c46cfcb253e27,0.999477310525'
p877
asS'VGEN.198.0-7a23d6adac3779689fb2a29acb34377c'
p878
(lp879
S'VGEN.74.6-c2f0a9903ce9281aa4f1415ae2dab966,0.950213371266'
p880
asS'Austr.Para.615-77d2d6d79a680ca84832a1b29039e4ce'
p881
(lp882
S'Austr.Parasite.3-afbfb70f550bca15ccba7d0bd1e7fd04,0.775551102204'
p883
asS'PS.MPC.Z10-48aba37b311a35a9da0502104c5b752c'
p884
(lp885
S'PS.MPC.Gen.3-016a9a5f87b885fb2090fbd4f3d0c9ee,0.620689655172'
p886
asS'K4'
p887
(lp888
sS'MPC.Unnamed-6d6103b0446ab0f3577820dae217a409'
p889
(lp890
S'MPC.1a-6ca8141cb6e349fc0442577b62e13cd1,0.976649746193'
p891
asS'AIDS'
p892
(lp893
sS'Genesis'
p894
(lp895
sS'Diamond'
p896
(lp897
sS'VGEN.1054.35-74ff16bf1bf24e7dd2ea0739e33d924d'
p898
(lp899
S'VGEN.74.6-c2f0a9903ce9281aa4f1415ae2dab966,1.0'
p900
asS'Genesis.296-1c581e6e5133f99ff7b0ab7306f4dd6b'
p901
(lp902
S'Genesis.238-807a0c19bc87e4046bcc374cb537c7c1,0.924812030075'
p903
asS'Gotcha.1-9566d5ffb2f70c7c6e19aa7abed30053'
p904
(lp905
S'Gotcha.D-dd20c438d45adaa54ab19f6649963558,0.965968586387'
p906
asS'SillyC.106-418ed3ad7818840cfe06e1b0d63ad7fb'
p907
(lp908
S'SillyC.1-bb034122399577e46286a26d34108b88,0.908333333333'
p909
asS'Plastique.1-eac56caffc7893335a61caa47f634ae1'
p910
(lp911
S'Plastique.2-29389536b41d96e97d2e9443f1138c6b,0.783839958431'
p912
asS'Gen.8.Tunes.A-3b97269b47c9b765ddac194ec87171d4'
p913
(lp914
S'Gen.1701.1704CascadeRelated-df82b7c655efd5ec2c1c46cfcb253e27,1.0'
p915
asS'Keypress.II.B-b23d7c6ee655cbb86d5e4281b92e32a2'
p916
(lp917
S'Keypress.II.B-b3facd9235b8b1cac8d3922a16747cf0,0.259380097879'
p918
asS'Hiperion.249-12298d0e8aa250a822a4da1a3aa4f450'
p919
(lp920
S'Hiperion.1-536b106f55fdf5a69fe3629fba4da8aa,0.574545454545'
p921
asS'Gen.1701.1704CascadeRelated-6d12f96239a717570de4b67fd809eef9'
p922
(lp923
S'Gen.1701.1704CascadeRelated-df82b7c655efd5ec2c1c46cfcb253e27,0.998526966025'
p924
asS'Sunday.4-e55ecdb60b691148f0eac43a17594c5b'
p925
(lp926
S'Sunday.4-29e0c5f2801ebec0ba8a54f5ed2ff031,0.224149432955'
p927
asS'DOS.PS.MPC.857-584889ac91fd9f8d0acca9568dc8769e'
p928
(lp929
S'DOS.Vgen.2-e098f43395f9ff7734b9e60f72824043,0.971131639723'
p930
asS'Vgen.43227-d90217100cb2dcb9d2a360bcddf354d7'
p931
(lp932
S'VGEN.74.6-c2f0a9903ce9281aa4f1415ae2dab966,1.0'
p933
asS'IMI'
p934
(lp935
sS'Magnitogorsk.1-065455d9f0e52723ebc7a496d5ae8ebc'
p936
(lp937
S'Magnitogorsk.1-a8c3ad3ffda11bdcb1ddbe1829807148,0.991200195551'
p938
asS'MPC.Unnamed.2-be401cd48a1c2ae6826451d518885e76'
p939
(lp940
S'MPC.1a-6ca8141cb6e349fc0442577b62e13cd1,0.977664974619'
p941
asS'Virdem.Family-7164cc08c6375d65fa4b67a0b67fd3c6'
p942
(lp943
S'Virdem.Family-73e820e3328bea85e1108316ab2affb4,0.37984496124'
p944
asS'Gen.1575.B-f6b0a8d3236b74017764f85c6ef4f77a'
p945
(lp946
S'Gen.1701.1704CascadeRelated-df82b7c655efd5ec2c1c46cfcb253e27,1.0'
p947
asS'AIDS.1-23e0e7905b542e197cf218c86c5859ce'
p948
(lp949
S'AIDSII-d3ffb0106bbf90d6510e77beb6cde1b3,0.978236204229'
p950
asS'VGEN.1076.92-0c461b398b42cbea8800c840537246bb'
p951
(lp952
S'VGEN.74.6-c2f0a9903ce9281aa4f1415ae2dab966,0.948979591837'
p953
asS'Ginger.2782-ca495f6f175bde6d0665fe2b77d252b6'
p954
(lp955
S'Ginger.2782-5e60cb98f84bd480ca0fa8c927081d44,0.888824995208'
p956
asS'Small.130.gen-808e2ddac2efb8070f55500155d7eb9b'
p957
(lp958
S'Small.130.gen-1170570be704495c57a19695dcd3b27a,0.883272058824'
p959
asS'PS.MPC.Gen.3-016a9a5f87b885fb2090fbd4f3d0c9ee'
p960
(lp961
S'PS.MPC.Gen.3-98a089f94ec65b67145e702f9c122a43,0.929723502304'
p962
asS'Riot-bbee12f53bdbaf4dfbd9be0e590216b8'
p963
(lp964
S'Riot.378-2f6597144c7f93178bd5b4fc021f30a7,0.909814323607'
p965
asS'Silly.877-e1687b6448c555af0e96cabbd87a37be'
p966
(lp967
S'Silly.215-966b12c9dd0483869332a09ab4577d5b,0.846607669617'
p968
asS'KO'
p969
(lp970
sS'VGEN.532.0-96b789befe16d8ef61aa13c9df35ecd7'
p971
(lp972
S'VGEN.74.6-c2f0a9903ce9281aa4f1415ae2dab966,0.932653061224'
p973
asS'Gen.100.Years.1-776fee7e40f43db901f6eab38d0989e3'
p974
(lp975
S'Gen.1701.1704CascadeRelated-df82b7c655efd5ec2c1c46cfcb253e27,1.0'
p976
asS'PS.MPC.Eclypse-49032343490fe8f54460e1ec3bcfdd21'
p977
(lp978
S'PS.MPC.Gen.3-016a9a5f87b885fb2090fbd4f3d0c9ee,0.998589662224'
p979
asS'Ear'
p980
(lp981
sS'Gen.1575.B-d0f159986a88fe3c53001ef51c4ae199'
p982
(lp983
S'Gen.1701.1704CascadeRelated-df82b7c655efd5ec2c1c46cfcb253e27,1.0'
p984
asS'DarkAvenger.1947-ca018616d0fbdac2ec81349c3ada1760'
p985
(lp986
S'DarkAvenger.1947-5d544d7ae736ffe888a56669f06f7df0,0.841001233915'
p987
asS'MPC.Unnamed-4c7f38c7c6b5aa62a301de5658ecc39d'
p988
(lp989
S'MPC.1a-6ca8141cb6e349fc0442577b62e13cd1,0.968527918782'
p990
asS'Yankee'
p991
(lp992
sS'Jerusalem.PuertoExe-85e4ce561e2654b37bdea1f40ffc38cb'
p993
(lp994
S'Jerusalem.USA-1165db141aa4c07360858d5390b165d1,0.924022094465'
p995
asS'Ear.1025-5ccc9d93e342e0ce0e75c452649c95ac'
p996
(lp997
S'Ear.1-6519c1037c63dcd939f11fc575647eb8,0.883745963402'
p998
asS'Dark.Avenger.1063-577922e896fae33ae474cb0ae5c98050'
p999
(lp1000
S'DarkAvenger.1947-5d544d7ae736ffe888a56669f06f7df0,0.994535519126'
p1001
asS'Gen.1701.1704CascadeRelated-231c079a165b0077e8e2963a0a3486bf'
p1002
(lp1003
S'Gen.1701.1704CascadeRelated-df82b7c655efd5ec2c1c46cfcb253e27,0.999477310525'
p1004
asS'BadBoy'
p1005
(lp1006
sS'MtE2'
p1007
(lp1008
sS'Leprosy.664-7aa2e9571a96373e198314ed0c4be717'
p1009
(lp1010
S'Leprosy.321-ac099a148573f5253b552fc5769efb25,0.870775347913'
p1011
asS'VGEN.937.8-6922a654512702e3eefeea7f7af6b86c'
p1012
(lp1013
S'VGEN.74.6-c2f0a9903ce9281aa4f1415ae2dab966,0.955102040816'
p1014
asS'IVP.927-0bc037bb74c57d713b07fb43302ae1b7'
p1015
(lp1016
S'IVP.665-e10330a450054113509fc63e646fd581,0.715486194478'
p1017
asS'Dropper.1-6729b139036fc78d8b33844da9639d12'
p1018
(lp1019
S'Dropper.5-3ba44d50e579bb25acb5ea8da42bc1a0,0.915948275862'
p1020
asS'Mix.664-140a65db06bac59eadba219254f1db83'
p1021
(lp1022
S'Mix.664-28408a619f94fa9161ab6bb771535cac,0.335680751174'
p1023
asS'SillyC.737-e6138be26f4676826b7b09aee4069633'
p1024
(lp1025
S'SillyC.106-418ed3ad7818840cfe06e1b0d63ad7fb,0.978906999041'
p1026
asS'VGEN.171.6-32f1576af9136018a30f21e5383c9afd'
p1027
(lp1028
S'VGEN.74.6-c2f0a9903ce9281aa4f1415ae2dab966,0.961224489796'
p1029
asS'AIDSII-ade219afde2ff1acffcd8f759c619303'
p1030
(lp1031
S'AIDS.1-06e5389543f280afff117d0a62735c02,0.979819709076'
p1032
asS'Bljec'
p1033
(lp1034
sS'BlackMonday.4-dc63de07a50eefee4f10184dcb529d02'
p1035
(lp1036
S'BlackMonday.4-8487d0aa0b8f302e3e09589ab30ab9c1,0.898601398601'
p1037
asS'DOS.Simulated.Virus-9435eae54f53fb1e7517b2dbad8e4caf'
p1038
(lp1039
S'DOS.Vgen.2-e098f43395f9ff7734b9e60f72824043,0.988452655889'
p1040
asS'Ash'
p1041
(lp1042
sS'Pixel.936-9ed2a2a0045749b3f4922f407397a5b0'
p1043
(lp1044
S'Pixel.296-0544391f2892dada6433d211f09db7bb,0.620795107034'
p1045
asS'Trivial.31-6014fbde26b79fb0f309026afb4fa296'
p1046
(lp1047
S'Trivial.Ansibomb-25e51990d9817bc1298c425f92f621f4,0.925093632959'
p1048
asS'Tiny.155-bf95a76fb8b4df4dffa1317c51da2788'
p1049
(lp1050
S'Tiny.97-b38f3c9af3d882853ca3b359f750bdbe,0.9375'
p1051
asS'Whale.22-d70346d0e90ddc09edde1142041e2175'
p1052
(lp1053
S'Whale.7-b54a33f60571e385ea096204d8581933,1.0'
p1054
asS'Trivial.37.A-e5d5719f416154a0ae2755beed55f2b9'
p1055
(lp1056
S'Trivial.Ansibomb-25e51990d9817bc1298c425f92f621f4,0.906367041199'
p1057
asS'Jerusalem.USA-00486bcb1accf72b245ab94b396e244e'
p1058
(lp1059
S'Jerusalem.USA-1165db141aa4c07360858d5390b165d1,0.878593168752'
p1060
asS'VCL'
p1061
(lp1062
S'VCL.Dome3-0acdcab048b33f0a8c6b1c8be652bccf'
p1063
asS'VGEN.750.2-e66af2e7d49482ddd404683ba38db064'
p1064
(lp1065
S'VGEN.74.6-c2f0a9903ce9281aa4f1415ae2dab966,0.99967352269'
p1066
asS'PS.MPC.Z10-98bac47b20b7871752d3de7b201ad924'
p1067
(lp1068
S'PS.MPC.Gen.3-016a9a5f87b885fb2090fbd4f3d0c9ee,0.561128526646'
p1069
asS'Eternity.599-904d09b7eb9367d1dc48162823679420'
p1070
(lp1071
S'Eternity.565-78fdfe29b8aab64d34097fb78db819aa,0.941935483871'
p1072
asS'Gen.1575.B-f9a40d4c98fe5b8163e556b7d7e626c7'
p1073
(lp1074
S'Gen.1701.1704CascadeRelated-df82b7c655efd5ec2c1c46cfcb253e27,1.0'
p1075
asS'Alabama'
p1076
(lp1077
sS'Wordswap.1503.A-0cfd1f99053c1bfc28326d005af71e3e'
p1078
(lp1079
S'Wordswap.1391-cd47b616fdac66d34ff79135d9182040,0.991249005569'
p1080
asS'SVC.6.0.B-12bb63862539270a92e086c69c6badbe'
p1081
(lp1082
S'SVC.3112-88a728e4b0a84be9993e5ea7f192beab,0.765085602021'
p1083
asS'USSR.1049.D-f91b4a2eab717f83f0384e451ac8b762'
p1084
(lp1085
S'USSR.707.B-99134c4785529994c62b16b357a0f8f9,0.967441860465'
p1086
asS'DOS.England.334-067cb88e44d23bcd40b9ec3f70de06e1'
p1087
(lp1088
S'DOS.Vgen.2-e098f43395f9ff7734b9e60f72824043,0.976327944573'
p1089
asS'PS.MPC.Gen.3-9e4b2ea2c8e60ed910484a1dd81ae12f'
p1090
(lp1091
S'PS.MPC.Gen.3-016a9a5f87b885fb2090fbd4f3d0c9ee,0.661266568483'
p1092
asS'Polish.583-791b027236d3734703851f0bbc41b873'
p1093
(lp1094
S'Polish.583-ebda928540491158e42e7fb1630caa76,0.249630723781'
p1095
asg246
(lp1096
S'Pest-f136bfa9596f54c8184ad874147e6736,0.820858014719'
p1097
asS'Polish.583-ebda928540491158e42e7fb1630caa76'
p1098
(lp1099
S'Polish.217.B-e5f9bbe5e9d71b7bdece305c731d8021,0.942392909897'
p1100
asS'MIX1-5df4c6736aa061c6676b02170eddc072'
p1101
(lp1102
S'DOS.Vgen.2-e098f43395f9ff7734b9e60f72824043,1.0'
p1103
asS'PSMPC.Spunk-255553e5268e6578a7471e4764b093b8'
p1104
(lp1105
S'PSMPC.5652-5c2cf4d58bb953b0c8bde4cc4c2cd86e,0.774733637747'
p1106
asS'Killer-31de33dd1b34f9f31d4ee52ff2d1b608'
p1107
(lp1108
S'Killer-c20126ee4dd081aecdba244ab5e1c6db,0.53557312253'
p1109
asS'Kalah'
p1110
(lp1111
sS'Burger.398-021c6dcb18784158fa0ca63fc2e34568'
p1112
(lp1113
S'Burger.1336.c-81a3ad65fd3137c4ee82e415d8349fbd,0.862068965517'
p1114
asS'VGEN.40790-70b5fbffbfdef36a5cac88ba34f64d2e'
p1115
(lp1116
S'VGEN.74.6-c2f0a9903ce9281aa4f1415ae2dab966,0.960325534079'
p1117
asg320
(lp1118
S'AntiPas.480-7bf70decca983a4516f633c6cea362aa,0.879566982409'
p1119
asS'Flash'
p1120
(lp1121
sg1063
(lp1122
S'VCL.20372-9fa1ce12d11a7166ebaaa52192ca3ff1,0.985559566787'
p1123
asS'April.1st.A-67950df2523160220f43d1c7d9301c1d'
p1124
(lp1125
S'April.1st.E-9a894bead030a9ffafe6c0a3dd4c4a4b,0.839258114374'
p1126
asS'KeyKapture.107X-8ac410ef0d79050a1428438c957e2b6c'
p1127
(lp1128
S'DOS.Vgen.2-e098f43395f9ff7734b9e60f72824043,0.972286374134'
p1129
asS'Gen.100.Years.1-46b5bf2e61b156fed1918219e98078ff'
p1130
(lp1131
S'Gen.1701.1704CascadeRelated-df82b7c655efd5ec2c1c46cfcb253e27,1.0'
p1132
asS'Pascal'
p1133
(lp1134
sS'Vienna.3-52c44280da751913538c30aa133d85c6'
p1135
(lp1136
S'Vienna.637-c775109398ab6829b651ad419e91b9f5,0.981986937092'
p1137
asS'Xabaras.2-a31466c9be15b605d68c9d59b98b5723'
p1138
(lp1139
S'DOS.Vgen.2-e098f43395f9ff7734b9e60f72824043,0.990762124711'
p1140
asS'Liberty.2-09d3ffe35685236c2789e220c6b93211'
p1141
(lp1142
S'Liberty.1-6849488882b508a9d87a7565e795ebfb,0.945739910314'
p1143
asS'Stoned.A-7be8f26b5e1cf682e8c57afec4acfac7'
p1144
(lp1145
S'Stoned.2-a3a1343c37086a600e167c4e7653fcaa,0.548235294118'
p1146
asS'Grog'
p1147
(lp1148
sS'VGEN.93.512-7d8f94170df715c7c4efa47bf6f2aa34'
p1149
(lp1150
S'VGEN.74.6-c2f0a9903ce9281aa4f1415ae2dab966,0.979965156794'
p1151
asS'BadTaste-9e54ab4726262099d6520b652e496e24'
p1152
(lp1153
S'BadTaste-0572472c0e9bd815dc8e65264d3091df,0.389132340053'
p1154
asS'Small.130.gen-ff35b8a924e74411a46db2e5359d4d74'
p1155
(lp1156
S'Small.130.gen-1170570be704495c57a19695dcd3b27a,0.931964056483'
p1157
asS'Small.130.gen-f75f8078dc7936000bdf364316e0f6c5'
p1158
(lp1159
S'Small.130.gen-1170570be704495c57a19695dcd3b27a,0.886948529412'
p1160
asS'VGEN.53.6-9cee5eb6919d17c0241c72c979fe15d7'
p1161
(lp1162
S'VGEN.74.6-c2f0a9903ce9281aa4f1415ae2dab966,0.873469387755'
p1163
asS'VGEN.19.512-9f922a71356c177202a7b88538c234ef'
p1164
(lp1165
S'VGEN.74.6-c2f0a9903ce9281aa4f1415ae2dab966,0.98959032908'
p1166
asS'MPC.Unnamed.2-a3f93ff77b78a237c5810c9ace8253e0'
p1167
(lp1168
S'MPC.1a-6ca8141cb6e349fc0442577b62e13cd1,0.973604060914'
p1169
asS'VGEN.12049.512-7534a83d208c74c5694c3952e5116e7f'
p1170
(lp1171
S'VGEN.74.6-c2f0a9903ce9281aa4f1415ae2dab966,0.974855729596'
p1172
asS'April.1st.E-b022ffaf0f7a14e169feabc2de0c97bf'
p1173
(lp1174
S'April.1st.A-67950df2523160220f43d1c7d9301c1d,0.844307270233'
p1175
asS'VGEN.137.0-448bdb267a2a8ac5928728e02342fdb7'
p1176
(lp1177
S'VGEN.74.6-c2f0a9903ce9281aa4f1415ae2dab966,0.999503771338'
p1178
asS'Boot.X3A.ICE9-597e602d5facd818a7c4b472f32358d6'
p1179
(lp1180
S'DOS.Vgen.2-e098f43395f9ff7734b9e60f72824043,0.980369515012'
p1181
asS'MPC.1a-6ca8141cb6e349fc0442577b62e13cd1'
p1182
(lp1183
S'MPC.Unnamed.2-b705c59a2254540755b057d47cfc21a9,0.977664974619'
p1184
asS'Clonewar'
p1185
(lp1186
sS'X'
p1187
(lp1188
sS'VGEN.124.512-aaf0a4cdd4e40edd7cdd268847b0b1cd'
p1189
(lp1190
S'VGEN.74.6-c2f0a9903ce9281aa4f1415ae2dab966,0.989425981873'
p1191
asS'Plaque'
p1192
(lp1193
sS'Jerusalem.USA-9dc251ed821324513d5190430ed0b1b3'
p1194
(lp1195
S'Jerusalem.USA-1165db141aa4c07360858d5390b165d1,0.870702288355'
p1196
asS'Boot.Hi.Dos-16ca92a55c227c3be507524a6fc207a8'
p1197
(lp1198
S'Boot.Tequila.2-9fdff0ea2a95a1a21801af751da56d43,0.969667790082'
p1199
asS'Dropper'
p1200
(lp1201
sS'Quit.2-cc824ca65528745fb140f455c91e0942'
p1202
(lp1203
S'Quit.2-f91afdb96ba94ea682f23928ef2c297f,0.796680497925'
p1204
asS'Boot.ExeBug-8e6eb80e78b7095e9473fb967269b299'
p1205
(lp1206
S'Boot.Tequila.2-9fdff0ea2a95a1a21801af751da56d43,0.969667790082'
p1207
asS'Amstrad.1-f1a7de7b174a7436af11adcc47f6ae4f'
p1208
(lp1209
S'Amstrad.2-452cf8df84b19f6c5ae2b718abe0bdd4,0.768194070081'
p1210
asS'DOS.Cascade.1704.S-3037b6f337288af21abbd7dffe1e7cb2'
p1211
(lp1212
S'DOS.Vgen.2-e098f43395f9ff7734b9e60f72824043,0.996681415929'
p1213
asS'AntiCAD'
p1214
(lp1215
sS'Hiperion'
p1216
(lp1217
sS'VGEN.51441-36189c3528978043f93717e08514d7d9'
p1218
(lp1219
S'VGEN.74.6-c2f0a9903ce9281aa4f1415ae2dab966,0.977914110429'
p1220
asS'VGEN.92.512-17a55ba65b28e13bd5065d93ec90a041'
p1221
(lp1222
S'VGEN.74.6-c2f0a9903ce9281aa4f1415ae2dab966,0.97316017316'
p1223
asS'Vgen.1334-f0e6df4a5fdec3423a6282ab8f54d13f'
p1224
(lp1225
S'VGEN.74.6-c2f0a9903ce9281aa4f1415ae2dab966,0.851020408163'
p1226
asS'HollandGirl-02fe5d807c4d134d83284d2ca9a2a6e2'
p1227
(lp1228
S'HollandGirl-6a085d692ffbb413bf9137c1bd58ba25,0.58064516129'
p1229
asg55
(lp1230
S'BadTaste-0c6581448cbed084eb85ae5496ebdc9d,0.576271186441'
p1231
asS'SillyC'
p1232
(lp1233
g1024
asS'VGEN.8.0-c88591efcb1201869f600c021ddce82e'
p1234
(lp1235
S'VGEN.74.6-c2f0a9903ce9281aa4f1415ae2dab966,0.959183673469'
p1236
asS'Killer-982fc1133628dc3c67eb54ad5c5629e1'
p1237
(lp1238
S'Killer-c20126ee4dd081aecdba244ab5e1c6db,0.393229166667'
p1239
asS'Viruslesson2'
p1240
(lp1241
sS'PS.MPC.Gen.3-676aa4556b249a8af60065833f92224d'
p1242
(lp1243
S'PS.MPC.Gen.3-016a9a5f87b885fb2090fbd4f3d0c9ee,0.734602463606'
p1244
asS'Sentinel.6-705b7f4841339d24eb005032bee985af'
p1245
(lp1246
S'Sentinel.6-74ac559ebe1e819ce1c414d529f0d9bd,0.22375793799'
p1247
asS'Vacsina'
p1248
(lp1249
sS'VGEN'
p1250
(lp1251
S'Vgen.2593-96bf4b2f61a3eb0a50f3dde6fa17f665'
p1252
aS'Vgen.15829-89635c8b4c257851b557791bd3b79231'
p1253
aS'VGEN.476.3-7df9b5dcfa5d701d2c57a1e34aa9d588'
p1254
asg566
(lp1255
S'Trivial.Ansibomb-25e51990d9817bc1298c425f92f621f4,0.913857677903'
p1256
asS'VGEN.1135.29-61fb2e1f88e5ebbda021655fe80103c2'
p1257
(lp1258
S'VGEN.74.6-c2f0a9903ce9281aa4f1415ae2dab966,0.955207166853'
p1259
asS'Natas.b-fd796ff196a6d72101e1cf37d6237cc8'
p1260
(lp1261
S'Natas.4744.B-7d21c213522cce66378b522dde055239,1.0'
p1262
asS'Ritzen'
p1263
(lp1264
sS'Vienna.1-f9849d20af0861e7331eebceeb1e5b83'
p1265
(lp1266
S'Vienna.637-c775109398ab6829b651ad419e91b9f5,0.859693877551'
p1267
asS'PS'
p1268
(lp1269
g1242
aS'PS.MPC.349-84cc39b8e8d243a214c725263524c177'
p1270
asg1252
(lp1271
S'VGEN.74.6-c2f0a9903ce9281aa4f1415ae2dab966,0.951859956236'
p1272
asS'VGEN.49781-1725c68991cbee803ecc712c62a12547'
p1273
(lp1274
S'VGEN.74.6-c2f0a9903ce9281aa4f1415ae2dab966,0.930917327293'
p1275
asS'Nina.1560-3200fe1f1fe4a57451b3fee2f2b3e4f9'
p1276
(lp1277
S'Nina.B-24dfd9226e022c82b9ddb0e1e18169bb,0.962794229309'
p1278
asS'Cheeba.A.2-b85be79cc5cc30e76ac201a0c44a140d'
p1279
(lp1280
S'Cheeba.A.1-f052cbbb291c3bd6ec3054a9f537dd81,0.97609561753'
p1281
asS'Invader.1-efb82f74d49954f6b9112c06aa69129b'
p1282
(lp1283
S'Invader.1-4c8e2f1fa70fba8217255dd9e4f34f4f,0.935849056604'
p1284
asS'Sistor.1149-cb352a4649ecedc73f84102020aabef3'
p1285
(lp1286
S'Sistor.3009-f4a62d1fdcd1cf9a671b3205f4778594,0.798829882988'
p1287
asS'MPC.Unnamed-8db01614060645de304061cc39d353ef'
p1288
(lp1289
S'MPC.1a-6ca8141cb6e349fc0442577b62e13cd1,0.975634517766'
p1290
asS'Stoned.2-ef299b247d773be7003973851e82814e'
p1291
(lp1292
S'Stoned.2-ec0c7e203b93dba42f85c48083ec20aa,0.778418926717'
p1293
asS'Vacsina.4-7350ca30ef5ba906ee6fdc6e67730c6a'
p1294
(lp1295
S'Vacsina.2-85176248b888a66bc7d5a2ea744ae42d,0.942701227831'
p1296
asS'C.Magic.3-24f873831711c31caba70c03a71a2e67'
p1297
(lp1298
S'C.Virus.packeg-e9d37f814f0c5c2740b88f4876a4348c,1.0'
p1299
asS'Pixel.296-0544391f2892dada6433d211f09db7bb'
p1300
(lp1301
S'Pixel.936-9ed2a2a0045749b3f4922f407397a5b0,0.617737003058'
p1302
asS'Small.130.gen-e9ac3487d509907b6ef4d82122830947'
p1303
(lp1304
S'Small.130.gen-1170570be704495c57a19695dcd3b27a,0.899816176471'
p1305
asS'VGEN.74.6-c2f0a9903ce9281aa4f1415ae2dab966'
p1306
(lp1307
S'VGEN.1078.48-b4f3395d7f60a66a31cf12bc82b5523d,1.0'
p1308
asS'C'
p1309
(lp1310
sS'Natas.b-1ba36a08b42e61d23895927db0adc5ad'
p1311
(lp1312
S'Natas.4744.B-7d21c213522cce66378b522dde055239,1.0'
p1313
asS'Vgen.1065-100765ba4adb2c8d6f6533bd04721c6a'
p1314
(lp1315
S'VGEN.74.6-c2f0a9903ce9281aa4f1415ae2dab966,0.955974842767'
p1316
asS'PS.MPC.Eclypse.2-840095180744f0e05ab3fc8ad2dcc777'
p1317
(lp1318
S'PS.MPC.Gen.3-016a9a5f87b885fb2090fbd4f3d0c9ee,0.994584461571'
p1319
asS'Dos7.419-0b4a318803aa1b9b6a0dcc55cefcb7ce'
p1320
(lp1321
S'DOS.Vgen.2-e098f43395f9ff7734b9e60f72824043,0.978060046189'
p1322
asS'VGEN.0.0-3ef2291a4eae8cedaa5131fcb0ff7bb0'
p1323
(lp1324
S'VGEN.74.6-c2f0a9903ce9281aa4f1415ae2dab966,1.0'
p1325
asS'Sunday.2.2877-6851e04040e1f63f1b103ab56ac17610'
p1326
(lp1327
S'Sunday.4-29e0c5f2801ebec0ba8a54f5ed2ff031,0.967437470505'
p1328
asS'Vienna.5520-541ca2a048348027bcc48acb0c0cf291'
p1329
(lp1330
S'Vienna.637-c775109398ab6829b651ad419e91b9f5,0.986333647502'
p1331
asS'Joke.Screeneater-d95e348afbcd6ee2720752874a9f16f3'
p1332
(lp1333
S'Joke.Panic.05-7b7e2d572acd9119edfa92b0a710c468,0.994604316547'
p1334
asS'Vienna.1-cbf988109b2d4f3d69d4156906621896'
p1335
(lp1336
S'Vienna.637-c775109398ab6829b651ad419e91b9f5,0.984484352304'
p1337
asS'MIX1-d702a2e6e4ecb4b765f550db6c87ceba'
p1338
(lp1339
S'DOS.Vgen.2-e098f43395f9ff7734b9e60f72824043,1.0'
p1340
asS'Cheeba'
p1341
(lp1342
sS'Word.B-d0f9be1ae1a029a2c23bc32b251a7068'
p1343
(lp1344
S'Word.C.5-7fd959e86fb9fcd4a0aecc88f476cbee,0.999257057949'
p1345
asS'DOS.Vgen.4-88b7b3ea30551ce529ecdd5203d12bf7'
p1346
(lp1347
S'DOS.Vgen.2-e098f43395f9ff7734b9e60f72824043,1.0'
p1348
asS'Mix.664-b67362b215e162c6db81ccbe8e55ff51'
p1349
(lp1350
S'Mix.664-28408a619f94fa9161ab6bb771535cac,0.217150760719'
p1351
asg664
(lp1352
S'Leprosy.321-ac099a148573f5253b552fc5769efb25,0.860465116279'
p1353
asS'Sunday.4-29e0c5f2801ebec0ba8a54f5ed2ff031'
p1354
(lp1355
S'Sunday.4-adbb647b2c7198c36be1e31cac0bed9f,0.43'
p1356
asS'Star_One-8fd08daaf16f21b51fd837fc5ca8c85f'
p1357
(lp1358
S'Star_One-44dcc6e2d5172e451b481b31c66e3b09,0.424403183024'
p1359
asS'Fish'
p1360
(lp1361
g161
asS'IVP.2385-6c2db44e66cbaa096a165b6c313b8437'
p1362
(lp1363
S'IVP.927-0bc037bb74c57d713b07fb43302ae1b7,0.989749430524'
p1364
asS'NRLG'
p1365
(lp1366
S'NRLG-6b0f168c6831f062d9d4e4ef2fc11a31'
p1367
asS'BadTaste-0572472c0e9bd815dc8e65264d3091df'
p1368
(lp1369
S'BadTaste-0c6581448cbed084eb85ae5496ebdc9d,0.41717791411'
p1370
asS'Burger'
p1371
(lp1372
sS'Fist'
p1373
(lp1374
sS'Whale.22-31213f13dccefd33f126492ece8028b8'
p1375
(lp1376
S'Whale.7-b54a33f60571e385ea096204d8581933,1.0'
p1377
asS'PSMPC.Spunk-b50495a36f7bb512caaa9c65d8b9b791'
p1378
(lp1379
S'PSMPC.5652-5c2cf4d58bb953b0c8bde4cc4c2cd86e,0.836956521739'
p1380
asS'Deicide.666-a2b3ef504f97d4a3161e68924b7c5c03'
p1381
(lp1382
S'Deicide.1335-dffb2cdf6b15706d231fa88f1cd554e7,0.945974576271'
p1383
asS'Phalcon.5-c7fbc5a28c4a6e3a8f411b5ce3864663'
p1384
(lp1385
S'Phalcon.Ministry-c71867e455cab38ba20baf4cd981874c,0.994768962511'
p1386
asS'TPE.Girafe.A.staticsig-35fc21c873083c4ba7260e79122e6599'
p1387
(lp1388
S'TPE.mem.staticsig-3338af71adc614d467ded7e7bfdf928a,1.0'
p1389
asS'Phalcon.1-f8466426c7bc2a5934a6cf1216531db4'
p1390
(lp1391
S'Phalcon.Ministry-c71867e455cab38ba20baf4cd981874c,0.974607916355'
p1392
asS'Semtex'
p1393
(lp1394
sS'Cybertech'
p1395
(lp1396
sS'Vienna.2-c245435a2bc57c9bececea41fb684f8d'
p1397
(lp1398
S'Vienna.10-d89b3fd0e90ef3d58342a9566592639e,0.801204819277'
p1399
asS'DarthVader'
p1400
(lp1401
sS'Jerusalem.USA-54fe02c949cd830e5a686afd0352b6c0'
p1402
(lp1403
S'Jerusalem.USA-1165db141aa4c07360858d5390b165d1,0.878142261301'
p1404
asS'Gen.1701.1704CascadeRelated-3ffc40a3a6264e5d3eb23a8400eced16'
p1405
(lp1406
S'Gen.1701.1704CascadeRelated-df82b7c655efd5ec2c1c46cfcb253e27,0.999192207175'
p1407
asS'IVP.Flex-251662426f261cdf4883f67463a60b3d'
p1408
(lp1409
S'IVP.927-0bc037bb74c57d713b07fb43302ae1b7,0.69387755102'
p1410
asS'Small.130.gen-727bd563e7d8121c7871d29d80d383f7'
p1411
(lp1412
S'Small.130.gen-1170570be704495c57a19695dcd3b27a,0.886164623468'
p1413
asS'PSMPC.Spunk-7bd496e2178da36aad5ee1857712bb9b'
p1414
(lp1415
S'PSMPC.5652-5c2cf4d58bb953b0c8bde4cc4c2cd86e,0.847953216374'
p1416
asS'Vienna.645.A-720c44f9ff2aca05c71a8d65377ff9a2'
p1417
(lp1418
S'Vienna.637-c775109398ab6829b651ad419e91b9f5,0.820457018498'
p1419
asS'Jerusalem.PuertoExe-7f0c99f81981837836425165ac172a98'
p1420
(lp1421
S'Jerusalem.USA-1165db141aa4c07360858d5390b165d1,0.922556645249'
p1422
asS'VCL.based.trojan-cc985764449d2a84c69de92a30606f13'
p1423
(lp1424
S'VCL.20372-9fa1ce12d11a7166ebaaa52192ca3ff1,1.0'
p1425
asS'VGEN.705.0-c811bc774bcedd746a9f83c6749613d9'
p1426
(lp1427
S'VGEN.74.6-c2f0a9903ce9281aa4f1415ae2dab966,0.906313645621'
p1428
asg317
(lp1429
S'Frisk-278770ea9ed05fc7a805d671197547bb,0.675'
p1430
asS'PSMPC.Spunk-b97d0faed2ec22bb5bd920e94778e387'
p1431
(lp1432
S'PSMPC.5652-5c2cf4d58bb953b0c8bde4cc4c2cd86e,0.8'
p1433
asS'Gen.5120.B-449ed4d173968d6a3e1a39216b84d018'
p1434
(lp1435
S'Gen.1701.1704CascadeRelated-df82b7c655efd5ec2c1c46cfcb253e27,1.0'
p1436
asS'VGEN.155.0-ff9d02c13e05cd9c00cf888117f4d7f9'
p1437
(lp1438
S'VGEN.74.6-c2f0a9903ce9281aa4f1415ae2dab966,1.0'
p1439
asS'Burger.1336.c-21d6c993eaf87fb2192ec09a80877203'
p1440
(lp1441
S'Burger.1336.c-81a3ad65fd3137c4ee82e415d8349fbd,0.09'
p1442
asS'Yankee.1-ee0309d9890d4bc7e1fc87efbde59620'
p1443
(lp1444
S'Yankee.1-cce476c53c20a952a10183468938b9c6,0.690378289474'
p1445
asS'Pascal.440-a7242afd2b3988758770597386855fd2'
p1446
(lp1447
S'Pascal.529-9197e4e3155a5f5ff1596e7895139168,0.913412563667'
p1448
asS'Rape.1882-df7a89d248184a1d3abce68a111d3b27'
p1449
(lp1450
S'Rape.486-4510b81057dfd583d46566cc4fe68a6f,0.952739726027'
p1451
asS'ARCV.5-ad90c9ae56b52e14a9294492c6ed167f'
p1452
(lp1453
S'Arcv.Ice.250-8f0f567e2191d212e402fcc8f97a93c7,0.893805309735'
p1454
asS'Grunt'
p1455
(lp1456
sS'Gen'
p1457
(lp1458
g297
asS'Jerusalem.USA-e43d3888b7010f4580ad71000bcf7329'
p1459
(lp1460
S'Jerusalem.USA-1165db141aa4c07360858d5390b165d1,0.941269304475'
p1461
asS'Xuxa'
p1462
(lp1463
g430
asg1367
(lp1464
S'NRLG-4cbc13a009fc7ff2cc2c422d7ce5b48b,0.550906555091'
p1465
asS'DOS.Vgen.2-e098f43395f9ff7734b9e60f72824043'
p1466
(lp1467
S'DOS.Neuroquila.4544.B.1-26157634647730f5310bb970e3a65242,1.0'
p1468
asS'Star.Dot.801-1fb44bf85207f09021bf4dd3005020c4'
p1469
(lp1470
S'Star.Dot.3-6782a0a7793e113cd474c16f85f23a29,0.818831942789'
p1471
asS'Riot.14-c1563ad84d7d46d03c6e51b0061a848b'
p1472
(lp1473
S'Riot.378-2f6597144c7f93178bd5b4fc021f30a7,0.913082437276'
p1474
asS'Small.130.gen-3468be4c2d90bd6f1c15314bc896f5e2'
p1475
(lp1476
S'Small.130.gen-1170570be704495c57a19695dcd3b27a,0.933764135703'
p1477
asS'Leprosy.AOD-ab4a5446faff8d375923c31ffd14015b'
p1478
(lp1479
S'Leprosy.321-ac099a148573f5253b552fc5769efb25,0.86170212766'
p1480
asS'Jerusalem.USA-462ed3c380bbcf486fbecf321e5b22e0'
p1481
(lp1482
S'Jerusalem.USA-1165db141aa4c07360858d5390b165d1,0.876789538947'
p1483
asS'Spanish-c1eefdcb6776fb6270e34c43bd811d66'
p1484
(lp1485
S'Spanish.Telecom.1-fde1947a3eef28c60c36854a2f891e8a,0.99355996136'
p1486
asS'Gen.1376-110b8c3d6587dc3834cc5f5f8407a301'
p1487
(lp1488
S'Gen.1701.1704CascadeRelated-df82b7c655efd5ec2c1c46cfcb253e27,1.0'
p1489
asS'Syslock3551-8f3cf4498d8d82d08fec40f0c35e15f8'
p1490
(lp1491
S'Syslock3551-e2a159d31ea9bf7e8ee5a71852841006,0.915294117647'
p1492
asS'Trivial.98-8b3c9af1ca978acbd5df45fecc02ec76'
p1493
(lp1494
S'Trivial.Ansibomb-25e51990d9817bc1298c425f92f621f4,0.887640449438'
p1495
asS'Boot.K.O.H-34eb3977549c1e2287e0f9adae63c797'
p1496
(lp1497
S'Boot.Tequila.2-9fdff0ea2a95a1a21801af751da56d43,0.987426900585'
p1498
asS'Trivial.102-52199312a9f1a1f4791adc7b7807e066'
p1499
(lp1500
S'Trivial.Ansibomb-25e51990d9817bc1298c425f92f621f4,0.921348314607'
p1501
asS'USSR.2144.B-f91600631587c21c8f28e02235fce3b0'
p1502
(lp1503
S'USSR.707.B-99134c4785529994c62b16b357a0f8f9,0.986890403776'
p1504
asS'Virdem.Family-9250e879bd12b2c829acd4c8aa442976'
p1505
(lp1506
S'Virdem.Family-73e820e3328bea85e1108316ab2affb4,0.443693693694'
p1507
asS'Vgen.697-66e99666cf32d2127aadb9d5e09d2fd2'
p1508
(lp1509
S'VGEN.74.6-c2f0a9903ce9281aa4f1415ae2dab966,0.981955762515'
p1510
asS'PSMPC.5652-97ac1006d7d3a03c0bae38fa755e93e8'
p1511
(lp1512
S'PSMPC.Spunk-3ac00823fe8cae7575945f749b1c56cf,0.855334538879'
p1513
asS'Wordswap'
p1514
(lp1515
sS'Tumen'
p1516
(lp1517
sS'MtE'
p1518
(lp1519
sS'Close-779a171073f5a4da9d9af36dcd7f5ea3'
p1520
(lp1521
S'Clonewar.261-45c09ce5f99e2c0675636898695f32af,0.935897435897'
p1522
asS'MtE2.staticsig-417ecba22a90512cc1d938eaa2f6a072'
p1523
(lp1524
S'MtE2.staticsig-0cef59cbf60037551136b08fd0002e92,0.908265802269'
p1525
asS'Keypress.II.B-4a11743eb1a321a418f0b3074cc4fb60'
p1526
(lp1527
S'Keypress.II.B-b3facd9235b8b1cac8d3922a16747cf0,0.442088091354'
p1528
asS'VGEN.3170.512-61d9fa137915c5dc94090526b0667fc3'
p1529
(lp1530
S'VGEN.74.6-c2f0a9903ce9281aa4f1415ae2dab966,0.902847571189'
p1531
asS'Small.130.gen-b518a59a1e965a973492f84fca8c67b0'
p1532
(lp1533
S'Small.130.gen-1170570be704495c57a19695dcd3b27a,0.907600596125'
p1534
asS'ChristmasViolator-a7bb2e1f3c87e7013c4c753bfe443f48'
p1535
(lp1536
S'ChristmasViolator-c8b2520ea6a950366b4c583c13efa567,0.676923076923'
p1537
asS'Plaice7-024f63eced2dc041558933297ae39e92'
p1538
(lp1539
S'Plaice.1273-830ba9d16bbcebc5819111539a1b24d0,0.99777942265'
p1540
asS'Clipper-30d3bb40dfb62b0d98b55fcfc33dc28b'
p1541
(lp1542
S'Clipper-59696bf78a4967ad0ea27762a299feee,0.683025830258'
p1543
asS'Fist.683-008db1424cd7dcf4428d183d7110cd68'
p1544
(lp1545
S'Fist.Stranger.709.a-b276aef06274a8bd1bee6763a57be2a3,0.977725674091'
p1546
asS'Bljec.427-8c97abfdb47f2667472223495c5d046f'
p1547
(lp1548
S'Bljec.1-0107f34a5e0e6ee569620d14a5023955,0.599520383693'
p1549
asS'Boot.Funface-44f558cf58fc972f9d78743f6c8be23c'
p1550
(lp1551
S'Boot.Tequila.2-9fdff0ea2a95a1a21801af751da56d43,0.996672538657'
p1552
asS'Tic'
p1553
(lp1554
S'Tic.1-b305674669ed9a8f3f4c892c204583f5'
p1555
asS'DOS.X.2.Gen-4cba31730b7d67d7f36692154a3f5124'
p1556
(lp1557
S'DOS.Vgen.2-e098f43395f9ff7734b9e60f72824043,0.972863741339'
p1558
asS'USSR.2144.B-86f4ff50a37371ae6e98c139d8393c0a'
p1559
(lp1560
S'USSR.707.B-99134c4785529994c62b16b357a0f8f9,0.986505351326'
p1561
asS'Riot'
p1562
(lp1563
sS'Vgen.1334-867b568ab3a6862e0ea8e114202d5143'
p1564
(lp1565
S'VGEN.74.6-c2f0a9903ce9281aa4f1415ae2dab966,0.857142857143'
p1566
asS'Hydra.3-8eeb89d620d8442fbcfaa9a587547af2'
p1567
(lp1568
S'Hydra.3-866606493740352c3f9bf8c264c4257a,0.841212121212'
p1569
asS'Vgen.43227-2d56e648eb721e43f972b484c17bf2eb'
p1570
(lp1571
S'VGEN.74.6-c2f0a9903ce9281aa4f1415ae2dab966,0.884328358209'
p1572
asS'DOS.Chemmy.A-a19a0d7cba33f964f08193d3fb46294e'
p1573
(lp1574
S'DOS.Vgen.2-e098f43395f9ff7734b9e60f72824043,0.995109321059'
p1575
asS'Horse.B-f9d1d896e8ec7c2c79160c81008b843f'
p1576
(lp1577
S'Horse.8-5fb4708b19e285e4ec9ec41dc7950421,0.915682062299'
p1578
asS'TinyFamily1-16c5bd1b3021dd722656499f4a545097'
p1579
(lp1580
S'TinyFamily1-67c7b35de557a1343067a1ab307e948b,0.539534883721'
p1581
asS'Friday.13th.C-945e81cfb6cf6d43327a5f88202411a0'
p1582
(lp1583
S'Friday.13th.C-a0167e004b2515308007884a79f00b98,0.392156862745'
p1584
asS'Keypress.II.B-0d0963952bdad4877c2c807be12f16db'
p1585
(lp1586
S'Keypress.II.B-b3facd9235b8b1cac8d3922a16747cf0,0.257748776509'
p1587
asS'Trivial.26-3eb244b6b204b12cf9741c24a94c7b70'
p1588
(lp1589
S'Trivial.Ansibomb-25e51990d9817bc1298c425f92f621f4,0.925093632959'
p1590
asS'Gen.354-58991bb4e2104fc69cd80a1fe5666094'
p1591
(lp1592
S'Gen.1701.1704CascadeRelated-df82b7c655efd5ec2c1c46cfcb253e27,1.0'
p1593
asS'Gen.100.Years-6e833ea93667b9768f0b5012444ebeb6'
p1594
(lp1595
S'Gen.1701.1704CascadeRelated-df82b7c655efd5ec2c1c46cfcb253e27,1.0'
p1596
asS'Datacrime.1-2ad8cf8feb989f6deda06eccc9bc895a'
p1597
(lp1598
S'Datacrime.II.C-c8a9c7f02d77c76dceafbec5c35e602d,0.958881578947'
p1599
asS'MPC.Unnamed-03f69ebad5f21840637b97f06375c03f'
p1600
(lp1601
S'MPC.1a-6ca8141cb6e349fc0442577b62e13cd1,0.972588832487'
p1602
asS'MtE.Pcweevil.staticsig.1-deb95f114b3930e1ddba0cb23b788d3a'
p1603
(lp1604
S'MtE.Encroacher.B-256462f0de7ed8389bc740d243831b24,0.983468590322'
p1605
asS'Syslock3551'
p1606
(lp1607
sS'Yankee.5-a56608e7f1b3fbaca574ad0ef0fa6047'
p1608
(lp1609
S'Yankee.1-cce476c53c20a952a10183468938b9c6,0.618556701031'
p1610
asS'BadTaste-2e8ba69c8e6ebc84b6bc45a09ba6ba13'
p1611
(lp1612
S'BadTaste-0c6581448cbed084eb85ae5496ebdc9d,0.521197007481'
p1613
asS'MemLapse'
p1614
(lp1615
sS'Burger.441-06e0a46e3becc2b062540166e6f52e63'
p1616
(lp1617
S'Burger.1336.c-81a3ad65fd3137c4ee82e415d8349fbd,0.777429467085'
p1618
asS'BadBoy.2-c561862ec4e9f37a6a7e9fbbe8329e2e'
p1619
(lp1620
S'Badboy.d-0f8b522c770aad667f34e69f872f7aa9,0.593541202673'
p1621
asS'PS.MPC.Aaron-69a54e9e42a57e79c31f7274a8761fde'
p1622
(lp1623
S'PS.MPC.Gen.3-016a9a5f87b885fb2090fbd4f3d0c9ee,0.967073170732'
p1624
asS'VGEN.14432.713-68f40e529d2a3816d713654badd56bfc'
p1625
(lp1626
S'VGEN.74.6-c2f0a9903ce9281aa4f1415ae2dab966,0.9'
p1627
asS'VGEN.211.100-700848a29cdcf301cd6d4b7f6fff608b'
p1628
(lp1629
S'VGEN.74.6-c2f0a9903ce9281aa4f1415ae2dab966,1.0'
p1630
asS'Mini'
p1631
(lp1632
g384
asS'V.981-cc8dd99339fdfbef0c3d2e047df2828f'
p1633
(lp1634
S'V.512.j-2da8badfbb6daf80cc2aea446d2c8bf8,0.931108719053'
p1635
asS'DarthVader.344-b31756352ffe0696fe7c75820b1f288e'
p1636
(lp1637
S'DarthVader.255-2e2b0467e91f807ef3bc514aa35b88f6,0.844776119403'
p1638
asS'Jerusalem.USA-0d5f50879d4a4cd924fc6be8324923cc'
p1639
(lp1640
S'Jerusalem.USA-1165db141aa4c07360858d5390b165d1,0.872393191297'
p1641
asS'KO.407-839781eb8e596cf4e80a14f27fb60dae'
p1642
(lp1643
S'KO.407-f0732e639abbfd4c1db0bd4f7cc55817,0.214285714286'
p1644
asS'DOS.PS.MPC.322-8bfd628342db9755467c6235f7b035aa'
p1645
(lp1646
S'DOS.Vgen.2-e098f43395f9ff7734b9e60f72824043,0.986143187067'
p1647
asS'Liberty.1-6849488882b508a9d87a7565e795ebfb'
p1648
(lp1649
S'Liberty.2-09d3ffe35685236c2789e220c6b93211,0.947085201794'
p1650
asS'VGEN.848.9765-18b2bac2d2d56fa823fa4d2ba6b71876'
p1651
(lp1652
S'VGEN.74.6-c2f0a9903ce9281aa4f1415ae2dab966,0.994388327722'
p1653
asS'Stoned.2-86895ff9ab3714f1e5e8894f09357559'
p1654
(lp1655
S'Stoned.2-ec0c7e203b93dba42f85c48083ec20aa,0.776110790537'
p1656
asS'Cybercide.1307-7980dda120cbc0a79da3fa50c1b13b4c'
p1657
(lp1658
S'Cybercide-12d10bca0f2c8b033f02e5cc5057f8d4,0.761166253102'
p1659
asS'VGEN.1063.512-d3d899d4e94dc4d7b17f08d83a093077'
p1660
(lp1661
S'VGEN.74.6-c2f0a9903ce9281aa4f1415ae2dab966,0.991508379888'
p1662
asS'Rat.1-02588364e6e67ba863465b1e094bfe69'
p1663
(lp1664
S'Rat.1-928018c35ecde40504ded9eb6a056a95,0.214574898785'
p1665
asS'Jerusalem'
p1666
(lp1667
sS'IVP.665-e10330a450054113509fc63e646fd581'
p1668
(lp1669
S'IVP.927-0bc037bb74c57d713b07fb43302ae1b7,0.729891956783'
p1670
asS'Pascal.440-af4fc51981cb94183abd2afdf43db97b'
p1671
(lp1672
S'Pascal.529-9197e4e3155a5f5ff1596e7895139168,0.901287553648'
p1673
asS'Gen.3072.a-d7d14ce6c7dd733e8fe08b2d471fb858'
p1674
(lp1675
S'Gen.1701.1704CascadeRelated-df82b7c655efd5ec2c1c46cfcb253e27,1.0'
p1676
asS'Sunday'
p1677
(lp1678
g1326
asS'Grunt.529-7397c33c6d43da66e23473c735dd27f0'
p1679
(lp1680
S'Grunt.203-9bbdef2169da6d6f192538b49b787ee5,0.961199294533'
p1681
asS'Deicide.1335-a1ead91ddbb1eecadbe64540b75d09a9'
p1682
(lp1683
S'Deicide.666-a2b3ef504f97d4a3161e68924b7c5c03,0.96875'
p1684
asS'LockJaw-68291ebc8dcdc0221d6a80deb6dad2ce'
p1685
(lp1686
S'LockJaw-ecf8129d97166eabafd8ebd1798e1d03,0.622691292876'
p1687
asS'Raubkopie'
p1688
(lp1689
sS'Abraxas'
p1690
(lp1691
sS'Star_One'
p1692
(lp1693
sS'Eternity'
p1694
(lp1695
sS'DiamondRock.gen-b09a7125e0c130c6dd5d7d64f48bd527'
p1696
(lp1697
S'DiamondRock.gen-adf0633d00407242d76b1455cf5e34e5,0.768412760929'
p1698
asS'Icelandic.Saratoga-415f1b7d4ce937b83b63da7ed27f0948'
p1699
(lp1700
S'Icelandic.Saratoga-ca02a02c57be1aeee8feb608d99bc0c2,0.711835334477'
p1701
asS'Mix.664-28408a619f94fa9161ab6bb771535cac'
p1702
(lp1703
S'Mix.664-140a65db06bac59eadba219254f1db83,0.327464788732'
p1704
asS'Plastique.2-534494d7218d1938fd142cf43995823c'
p1705
(lp1706
S'Plastique.2-29389536b41d96e97d2e9443f1138c6b,0.342686412055'
p1707
asS'Friday'
p1708
(lp1709
sS'Gen.483.C-e13746af4d99867f3546ff2649d93fb0'
p1710
(lp1711
S'Gen.1701.1704CascadeRelated-df82b7c655efd5ec2c1c46cfcb253e27,1.0'
p1712
asS'Stoned.2-dcc2c673082d369aa6a377e6ae0d699e'
p1713
(lp1714
S'Stoned.2-ec0c7e203b93dba42f85c48083ec20aa,0.776110790537'
p1715
asS'Fist.Stranger.709.a-b276aef06274a8bd1bee6763a57be2a3'
p1716
(lp1717
S'Fist.683-008db1424cd7dcf4428d183d7110cd68,0.978898007034'
p1718
asS'Stoned.2-6c40d98b76bc1fcb1cea0c7101b8986e'
p1719
(lp1720
S'Stoned.2-ec0c7e203b93dba42f85c48083ec20aa,0.778995960762'
p1721
asS'Trivial.25-2d660d3acc48812b0acd11a3f00b6c71'
p1722
(lp1723
S'Trivial.Ansibomb-25e51990d9817bc1298c425f92f621f4,0.940074906367'
p1724
asS'PSMPC.Spunk-5e724fc323e38377b477c445352603a7'
p1725
(lp1726
S'PSMPC.5652-5c2cf4d58bb953b0c8bde4cc4c2cd86e,0.741007194245'
p1727
asS'Wilbur'
p1728
(lp1729
sS'Joke'
p1730
(lp1731
sS'Small.130.gen-ed40f12fd551e79f7f5b5ba9dfe0d1b3'
p1732
(lp1733
S'Small.130.gen-1170570be704495c57a19695dcd3b27a,0.859375'
p1734
asS'SVC'
p1735
(lp1736
sS'Clonewar.1-eeae246e0dae62d6eb0026dc6b9cab0e'
p1737
(lp1738
S'Clonewar.261-45c09ce5f99e2c0675636898695f32af,0.342465753425'
p1739
asS'Attention.3-077e5f5490eb033f2d5d867349b32841'
p1740
(lp1741
S'Attention.3-eaea8c5aa8e351950bb125bf19226529,0.906426155581'
p1742
asS'V.512.e-9a8e2bbe693dde14b37fd0c311a5e8d4'
p1743
(lp1744
S'V.981-cc8dd99339fdfbef0c3d2e047df2828f,0.963316582915'
p1745
asS'Dir'
p1746
(lp1747
sS'Plaice'
p1748
(lp1749
sS'VGEN.46373-fde542451d9670a941e0e9dc596ec651'
p1750
(lp1751
S'VGEN.74.6-c2f0a9903ce9281aa4f1415ae2dab966,0.924603174603'
p1752
asS'Fichv'
p1753
(lp1754
sS'Zherkov.2970-5af90d8ec3a42b74a6b96900feab321e'
p1755
(lp1756
S'Zherkov.2968-7f714c11d459b3dfbd00d881f159c710,0.991792065663'
p1757
asS'Austr.Para.306-facef4aa3c8cc49ef90c338fcb873bb0'
p1758
(lp1759
S'Austr.Parasite.3-afbfb70f550bca15ccba7d0bd1e7fd04,0.775257731959'
p1760
asS'VGEN.63.0-d4f613b76ee9aead3f674e72bf6b6b35'
p1761
(lp1762
S'VGEN.74.6-c2f0a9903ce9281aa4f1415ae2dab966,0.997241922774'
p1763
asS'Tumen.1-8816206f8e13c6564a138e047f5b02b1'
p1764
(lp1765
S'Tumen.1.2-531c2cdc0b6296997bc84e094553c8ae,0.859649122807'
p1766
asS'PSMPC.5652-e4f070134a6b804507d939d46615b356'
p1767
(lp1768
S'PSMPC.Spunk-3ac00823fe8cae7575945f749b1c56cf,0.855839416058'
p1769
asS'Sentinel'
p1770
(lp1771
sS'Polish'
p1772
(lp1773
sS'V.512.j-2da8badfbb6daf80cc2aea446d2c8bf8'
p1774
(lp1775
S'V.981-cc8dd99339fdfbef0c3d2e047df2828f,0.927879440258'
p1776
asS'DOS.Simulated.Virus-c7c76758a017faf547d006691fdf575d'
p1777
(lp1778
S'DOS.Vgen.2-e098f43395f9ff7734b9e60f72824043,0.991339491917'
p1779
asS'VirusConstructionSet-09da16bcfe5f2561e7c2bfc485409ea8'
p1780
(lp1781
S'VirusConstructionSet-5d9953709af857f72a66cd262fb4a146,0.494866529774'
p1782
asS'Overwrite'
p1783
(lp1784
S'Overwrite.3008-ad2550533e6ccc59fd66c707b8921f66'
p1785
asS'MtE2.staticsig-e3c64a41984dbe7c95bebffd97c5480d'
p1786
(lp1787
S'MtE2.staticsig-0cef59cbf60037551136b08fd0002e92,0.941819529368'
p1788
asS'PSMPC.5652-0a81ae6f830c74ed28bc41ae12e61229'
p1789
(lp1790
S'PSMPC.Spunk-3ac00823fe8cae7575945f749b1c56cf,0.853526220615'
p1791
asS'Small.130.gen-0717eece4b240bd1595898e937fb8ff4'
p1792
(lp1793
S'Small.130.gen-1170570be704495c57a19695dcd3b27a,0.927389705882'
p1794
asS'MIX1'
p1795
(lp1796
g1338
asS'Stoned.2-f5f8c730eff59920db1c8ce49146719d'
p1797
(lp1798
S'Stoned.2-ec0c7e203b93dba42f85c48083ec20aa,0.779572994807'
p1799
asS'CivilWar'
p1800
(lp1801
sS'Trivial.28.B-d32fe6b0e8cf47926cc4bd4fd82f4610'
p1802
(lp1803
S'Trivial.Ansibomb-25e51990d9817bc1298c425f92f621f4,0.936329588015'
p1804
asS'KO.407-8c057fd5a05f589d0763ef6bbad6275d'
p1805
(lp1806
S'KO.407-f0732e639abbfd4c1db0bd4f7cc55817,0.32683982684'
p1807
asS'Tiny'
p1808
(lp1809
g699
ag1049
asS'MtE2.staticsig-9664bac838bfd8968596c82e09edcd1b'
p1810
(lp1811
S'MtE2.staticsig-0cef59cbf60037551136b08fd0002e92,0.786008230453'
p1812
asS'IVP.Bubbles.684-209a183299d8f98c4e7133e9b2900c47'
p1813
(lp1814
S'IVP.927-0bc037bb74c57d713b07fb43302ae1b7,0.945978391357'
p1815
asS'HollandGirl'
p1816
(lp1817
sS'PSMPC.5652-a8d5bf1cc1d1c53018df369683730223'
p1818
(lp1819
S'PSMPC.Spunk-3ac00823fe8cae7575945f749b1c56cf,0.853211009174'
p1820
asS'New'
p1821
(lp1822
sg1555
(lp1823
S'Tic.1-f6319f0ff84aca54d5a26858aee087ce,0.943675889328'
p1824
asS'BlackMonday'
p1825
(lp1826
sS'Vienna'
p1827
(lp1828
sS'Deicide.666-3a4d66ebf2911c8048505404ca7d15f9'
p1829
(lp1830
S'Deicide.1335-dffb2cdf6b15706d231fa88f1cd554e7,0.944915254237'
p1831
asS'New.COM.1-98a08bfe8c57674b73432229ea9c4c6f'
p1832
(lp1833
S'New.COM.1-f9092c89af3a613bf0fce7989e5bf45a,0.564288959564'
p1834
asS'Magnitogorsk.1-01c62b47c1d4bbc19d712e6715e32557'
p1835
(lp1836
S'Magnitogorsk.1-a8c3ad3ffda11bdcb1ddbe1829807148,0.991444634564'
p1837
asS'Killer'
p1838
(lp1839
sS'Hydra.3-96ba89511584d5aff27e537198fcf661'
p1840
(lp1841
S'Hydra.3-866606493740352c3f9bf8c264c4257a,0.847272727273'
p1842
asS'X.Fungus-85540ba149286d373cd204e2491327a9'
p1843
(lp1844
S'DOS.Vgen.2-e098f43395f9ff7734b9e60f72824043,0.983833718245'
p1845
asS'Grog.1082-f5be75d1f5e0883ff4a6dd96fe38a515'
p1846
(lp1847
S'Grog.1082-ddd77b39c084703f6807cbcd2f02ea39,0.897247706422'
p1848
asS'Dropper.5-3ba44d50e579bb25acb5ea8da42bc1a0'
p1849
(lp1850
S'Dropper.1-6729b139036fc78d8b33844da9639d12,0.914870689655'
p1851
asg611
(lp1852
S'Pixel.936-9ed2a2a0045749b3f4922f407397a5b0,0.358208955224'
p1853
asS'Vgen.43227-3a7036b663940f11423eef0cc22d000a'
p1854
(lp1855
S'VGEN.74.6-c2f0a9903ce9281aa4f1415ae2dab966,0.948990435707'
p1856
asS'DOS..10842-19d2a99413e6cc05049b82e050269496'
p1857
(lp1858
S'DOS.Vgen.2-e098f43395f9ff7734b9e60f72824043,1.0'
p1859
asS'Plastique.1-b37a152d630f38a526949e738c4f61c9'
p1860
(lp1861
S'Plastique.2-29389536b41d96e97d2e9443f1138c6b,0.786438035853'
p1862
asS'Vienna.2-ea8e8997c56e5fedcb890bf77217fab2'
p1863
(lp1864
S'Vienna.10-d89b3fd0e90ef3d58342a9566592639e,0.866766467066'
p1865
asS'DiamondRock'
p1866
(lp1867
sS'VGEN.238.30-32f760338e5c30be31bd8a36a3cbbd6d'
p1868
(lp1869
S'VGEN.74.6-c2f0a9903ce9281aa4f1415ae2dab966,0.986607142857'
p1870
asS'Vgen.1334-b25d3596734b9a4bcb6afd0740826d7e'
p1871
(lp1872
S'VGEN.74.6-c2f0a9903ce9281aa4f1415ae2dab966,0.85306122449'
p1873
asS'PSMPC.5652-8225e6cbc96792b5e89e9f8c15a14fb5'
p1874
(lp1875
S'PSMPC.Spunk-3ac00823fe8cae7575945f749b1c56cf,0.856884057971'
p1876
asS'PSMPC.Spunk-3106f350e0bc72ee4433282a99fdfb8f'
p1877
(lp1878
S'PSMPC.5652-5c2cf4d58bb953b0c8bde4cc4c2cd86e,0.777173913043'
p1879
asS'Jerusalem.2.Nemesis-d5b20780d87009cd51a3534e78f4e408'
p1880
(lp1881
S'Jerusalem.USA-1165db141aa4c07360858d5390b165d1,0.897869462293'
p1882
asS'BlackMonday.4-8487d0aa0b8f302e3e09589ab30ab9c1'
p1883
(lp1884
S'BlackMonday.4-53ec074f180535cb9bb566ada7aa3356,0.808566433566'
p1885
asS'VGEN.794.3-3bdecd45323deeef2920ffe963a056d4'
p1886
(lp1887
S'VGEN.74.6-c2f0a9903ce9281aa4f1415ae2dab966,0.995348837209'
p1888
asS'MemLapse.385-1ab1bd5fa5d1291cbb0b67f9b33e4e74'
p1889
(lp1890
S'MemLapse.366-69e09e9abd60606431de748b8f6446ed,0.779487179487'
p1891
asS'Star'
p1892
(lp1893
g1469
asS'Horse.A-3e96fa67d547c08a3fd03b306583a0af'
p1894
(lp1895
S'Horse.8-5fb4708b19e285e4ec9ec41dc7950421,0.914607948443'
p1896
asS'PS.MPC.Ear.1024.c-cc4421a4dfe507e6028190b8cb495864'
p1897
(lp1898
S'PS.MPC.Gen.3-016a9a5f87b885fb2090fbd4f3d0c9ee,0.988160291439'
p1899
asS'KeyKapture'
p1900
(lp1901
sS'Pixel.296-200d53aa9fbac337f2dd82086001b91b'
p1902
(lp1903
S'Pixel.936-9ed2a2a0045749b3f4922f407397a5b0,0.640243902439'
p1904
asS'Flash.Gyorgy-46ae0cde6e57aefb123e17a0a49199eb'
p1905
(lp1906
S'Flash.1-0ef1b01346965529c4fe58ebf6e1c991,0.696846388606'
p1907
asg1254
(lp1908
S'VGEN.74.6-c2f0a9903ce9281aa4f1415ae2dab966,0.986368593239'
p1909
asS'Doom.II.B-e562f5e7bbc3ee58e6c9d616cd46d94f'
p1910
(lp1911
S'Doom.677-6ecf7a94cad8ae24128fc17075485545,1.0'
p1912
asS'MPC'
p1913
(lp1914
sS'MPCP.1-ff6215819f95c736af5967039603e701'
p1915
(lp1916
S'MPCP-060a5c573359e3e6c9af3a955f977168,0.969551282051'
p1917
asS'Whale.22-d462bcaa4cd791a781968335f045b04c'
p1918
(lp1919
S'Whale.7-b54a33f60571e385ea096204d8581933,1.0'
p1920
asS'Vienna.3-fe6487ae868f15e149c2c28039d71cd2'
p1921
(lp1922
S'Vienna.10-d89b3fd0e90ef3d58342a9566592639e,0.899665551839'
p1923
asS'Cybertech.914-b4b3d26e9f5830df999186fd9b7e19c8'
p1924
(lp1925
S'Cybertech.1313-835b547073f4e438bb0f0e8378212e6c,0.650362318841'
p1926
asS'Arcv.Ice.250-8f0f567e2191d212e402fcc8f97a93c7'
p1927
(lp1928
S'Arcv.1060-25c48005b4667e989f47a8705b0402fd,0.96626984127'
p1929
asg94
(lp1930
S'Mayberry.758-65d6e004c326f4813d73e34e5f9cfd4c,0.501396648045'
p1931
asS'IVP'
p1932
(lp1933
sS'MPS'
p1934
(lp1935
g149
asS'Small.130.gen-bfdb9b0f8c240db7ccb734373cdfad86'
p1936
(lp1937
S'Small.130.gen-1170570be704495c57a19695dcd3b27a,0.891544117647'
p1938
asS'Datacrime'
p1939
(lp1940
sS'DOS.Ontario.1024-02422674abfae45dbee80c183219e327'
p1941
(lp1942
S'DOS.Vgen.2-e098f43395f9ff7734b9e60f72824043,0.9896073903'
p1943
asS'Rape'
p1944
(lp1945
sg1785
(lp1946
S'Overwrite.17960-b3f264f1fc0c9baa5d025ae1640c2767,0.994958291319'
p1947
asS'PSMPC.5652-a8d16236327c58668006c74caa22e685'
p1948
(lp1949
S'PSMPC.Spunk-3ac00823fe8cae7575945f749b1c56cf,0.854511970534'
p1950
asS'Quit'
p1951
(lp1952
sS'Boot.Funface-4b81169c6f2f7bf41caf8e9fb3165f1b'
p1953
(lp1954
S'Boot.Tequila.2-9fdff0ea2a95a1a21801af751da56d43,0.996478873239'
p1955
asS'K4.737-6174ab2c21c14242fb19f7afcec794b8'
p1956
(lp1957
S'K4.687-e4824333d563128ec7089cb03072948e,0.894088669951'
p1958
asS'Cybertech.1313-835b547073f4e438bb0f0e8378212e6c'
p1959
(lp1960
S'CyberTech.2-64f43224cea103be83f2e15ad7aa0b74,0.903985507246'
p1961
asS'PS.MPC.Gen.3-e28db559ae87797bf934032009b5c244'
p1962
(lp1963
S'PS.MPC.Gen.3-016a9a5f87b885fb2090fbd4f3d0c9ee,0.886900958466'
p1964
asS'Plastique.3-d4aa4d7d7cba16902bc131a6ccdf30a6'
p1965
(lp1966
S'Plastique.2-29389536b41d96e97d2e9443f1138c6b,0.857885164978'
p1967
asS'CivilWar.144-3a9df89c4dc0dc8b92e27407c4ccf2b3'
p1968
(lp1969
S'Civil_War.561-d43205c042558d8fa410f734a1326db2,0.922155688623'
p1970
asS'VGEN.168.0-aa0c2944c9e0c8dcbc852206f3cefc57'
p1971
(lp1972
S'VGEN.74.6-c2f0a9903ce9281aa4f1415ae2dab966,0.963265306122'
p1973
asS'PSMPC.5652-5c2cf4d58bb953b0c8bde4cc4c2cd86e'
p1974
(lp1975
S'PSMPC.Spunk-3ac00823fe8cae7575945f749b1c56cf,0.855072463768'
p1976
asS'RIOTRIO_1435-6133ae5f26d37d2b805bacd62805ccbd'
p1977
(lp1978
S'Riot.378-2f6597144c7f93178bd5b4fc021f30a7,0.94801980198'
p1979
asS'Gen.1226B-f60deba4b109238ad3669e053cadcac1'
p1980
(lp1981
S'Gen.1701.1704CascadeRelated-df82b7c655efd5ec2c1c46cfcb253e27,0.999572344975'
p1982
asS'Arcv'
p1983
(lp1984
sS'DOS.Leprosy.666-324163414a167c4318b3811a6f85756e'
p1985
(lp1986
S'DOS.Vgen.2-e098f43395f9ff7734b9e60f72824043,0.983833718245'
p1987
asS'Gotcha.D-dd20c438d45adaa54ab19f6649963558'
p1988
(lp1989
S'Gotcha.1-9566d5ffb2f70c7c6e19aa7abed30053,0.961256544503'
p1990
asS'VGEN.1078.48-b4f3395d7f60a66a31cf12bc82b5523d'
p1991
(lp1992
S'VGEN.74.6-c2f0a9903ce9281aa4f1415ae2dab966,1.0'
p1993
asS'Eternity.565-78fdfe29b8aab64d34097fb78db819aa'
p1994
(lp1995
S'Eternity.599-904d09b7eb9367d1dc48162823679420,0.948387096774'
p1996
asS'MPC.Unnamed.2-af26aa68927acbfe047a6c23edfff97f'
p1997
(lp1998
S'MPC.1a-6ca8141cb6e349fc0442577b62e13cd1,0.97461928934'
p1999
asS'V.512.f-47b38dcfe33e2ed1531972e0883a4267'
p2000
(lp2001
S'V.981-cc8dd99339fdfbef0c3d2e047df2828f,0.926803013994'
p2002
asS'Killer-73fa443e75ae29c1f52612a7c549563b'
p2003
(lp2004
S'Killer-c20126ee4dd081aecdba244ab5e1c6db,0.460732984293'
p2005
asS'Ash.712-a5fbab25b5d7eafa1b95fd4f14fe7ff3'
p2006
(lp2007
S'Ash.737-46a71152b7a7780127c6043015767857,0.997455595244'
p2008
asS'Gotcha.1-15d75b8aab586e234e719978a65244ea'
p2009
(lp2010
S'Gotcha.D-dd20c438d45adaa54ab19f6649963558,0.988854213107'
p2011
asS'PSMPC.5652-d6f7059699a212cc1fe7a01ac5ed2b9f'
p2012
(lp2013
S'PSMPC.Spunk-3ac00823fe8cae7575945f749b1c56cf,0.858695652174'
p2014
asS'Zherkov.1915-6c9c729cf6104acae1dadf54ac21e79b'
p2015
(lp2016
S'Zherkov.2968-7f714c11d459b3dfbd00d881f159c710,0.986463204529'
p2017
asS'Wordswap.1391-cd47b616fdac66d34ff79135d9182040'
p2018
(lp2019
S'Wordswap.1503.A-0cfd1f99053c1bfc28326d005af71e3e,0.991249005569'
p2020
asS'Vgen.43227-b8da43c1b3f767db5bf7257fcf6383a9'
p2021
(lp2022
S'VGEN.74.6-c2f0a9903ce9281aa4f1415ae2dab966,0.901384083045'
p2023
asS'MIX1-69514f1ef339c00e9373f4ac3791f981'
p2024
(lp2025
S'DOS.Vgen.2-e098f43395f9ff7734b9e60f72824043,0.985167837627'
p2026
asS'VGEN.483.0-f62965a575f415bdc4157379959aaea7'
p2027
(lp2028
S'VGEN.74.6-c2f0a9903ce9281aa4f1415ae2dab966,0.924198250729'
p2029
asS'Deicide.1335-dffb2cdf6b15706d231fa88f1cd554e7'
p2030
(lp2031
S'Deicide.666-a2b3ef504f97d4a3161e68924b7c5c03,0.949152542373'
p2032
asS'Leprosy.570-b661781ee481018ef80d860a05a934e4'
p2033
(lp2034
S'Leprosy.321-ac099a148573f5253b552fc5769efb25,0.872950819672'
p2035
asS'Silly'
p2036
(lp2037
g966
asS'USSR.1049.D-54caf0a5f988123667929206f3aa5f6c'
p2038
(lp2039
S'USSR.707.B-99134c4785529994c62b16b357a0f8f9,0.997501338569'
p2040
asS'Plastique.2-9ff70340cab1c8fe86a579e96fe5e14b'
p2041
(lp2042
S'Plastique.2-29389536b41d96e97d2e9443f1138c6b,0.839958430761'
p2043
asS'Small'
p2044
(lp2045
g1411
ag634
ag740
ag1155
ag182
asS'DOS.Leprosy.666-0c2d1ba928dcf1f17bd645fc4dff0b70'
p2046
(lp2047
S'DOS.Vgen.2-e098f43395f9ff7734b9e60f72824043,0.980946882217'
p2048
asS'Attention.3-b90557b924a722d09512546b12e743a2'
p2049
(lp2050
S'Attention.3-eaea8c5aa8e351950bb125bf19226529,0.405862457723'
p2051
asS'MPC.Unnamed.2-6e8333cf3b9670d78c15c185b1e0d670'
p2052
(lp2053
S'MPC.1a-6ca8141cb6e349fc0442577b62e13cd1,0.977664974619'
p2054
asS'Amstrad.1-a2449e70009a32ad9f3304fdffbef9ff'
p2055
(lp2056
S'Amstrad.1-327fd20a93cf201af9642f93c00bacb5,0.51'
p2057
asS'Invader'
p2058
(lp2059
sS'Ginger.2782-5e60cb98f84bd480ca0fa8c927081d44'
p2060
(lp2061
S'Ginger.2782-ca495f6f175bde6d0665fe2b77d252b6,0.880199348284'
p2062
asS'Small.130.gen-675922be8dc7c7d696b5eedd29a0ef4b'
p2063
(lp2064
S'Small.130.gen-1170570be704495c57a19695dcd3b27a,0.972747497219'
p2065
asS'Hiperion.1-536b106f55fdf5a69fe3629fba4da8aa'
p2066
(lp2067
S'Hiperion.249-12298d0e8aa250a822a4da1a3aa4f450,0.578181818182'
p2068
asS'Plaque-d7e3d6bf4d65c8968e6c1f41eecb136e'
p2069
(lp2070
S'Plaque-bbafef92314e097e7a7af0b3446127d9,0.241221374046'
p2071
asS'Gen.10Past3-20fd234d25f69cfea8905b7920e63d92'
p2072
(lp2073
S'Gen.1701.1704CascadeRelated-df82b7c655efd5ec2c1c46cfcb253e27,1.0'
p2074
asS'Attitude'
p2075
(lp2076
sS'Wilbur.2-33c47bca6cb899fb06d30011ae910289'
p2077
(lp2078
S'Wilbur.1-d0354d5a395a2f4ae8bed677633a1616,0.796641791045'
p2079
asS'Cybercide'
p2080
(lp2081
sS'MPC.Unnamed-b8c411d10efce0f74968604bc4474024'
p2082
(lp2083
S'MPC.1a-6ca8141cb6e349fc0442577b62e13cd1,0.972588832487'
p2084
asS'Small.130.gen-e5c2cb8a5468ff8856468bee08c74823'
p2085
(lp2086
S'Small.130.gen-1170570be704495c57a19695dcd3b27a,0.948529411765'
p2087
asS'Gen.1701.1704CascadeRelated-1d2ab4977838f47cc74271aa04fee222'
p2088
(lp2089
S'Gen.1701.1704CascadeRelated-df82b7c655efd5ec2c1c46cfcb253e27,0.997386552625'
p2090
asS'Satan2.03-aaa9917016f9228f40e73cf624a350a6'
p2091
(lp2092
S'Satan3.00-5facea4bc5c5968955a567bae97f44b3,0.947621335896'
p2093
asS'Magnitogorsk.1-a8c3ad3ffda11bdcb1ddbe1829807148'
p2094
(lp2095
S'Magnitogorsk.1-065455d9f0e52723ebc7a496d5ae8ebc,0.990466878514'
p2096
asS'ARCV.718-0161aa675d74d789f8d2d1324951e1d7'
p2097
(lp2098
S'Arcv.Ice.250-8f0f567e2191d212e402fcc8f97a93c7,0.921944035346'
p2099
asS'Plaice.1273-830ba9d16bbcebc5819111539a1b24d0'
p2100
(lp2101
S'Plaice7-024f63eced2dc041558933297ae39e92,0.99925980755'
p2102
asS'Gen.1701.1704CascadeRelated-80aa20fe3d8bd7cc0a4e2bbdea29894c'
p2103
(lp2104
S'Gen.1701.1704CascadeRelated-df82b7c655efd5ec2c1c46cfcb253e27,0.998812069375'
p2105
asS'Kohn6.638-859c14ea9981fd7ec8dfe3a861f61b14'
p2106
(lp2107
S'Kohn6.633-199cb0a05a00e824ed1426debc9148d9,0.416856492027'
p2108
asS'Keypress.II.B-2d1b67dfda305ea9ce066bc1c2dd22b6'
p2109
(lp2110
S'Keypress.II.B-b3facd9235b8b1cac8d3922a16747cf0,0.595485327314'
p2111
asS'Xabaras'
p2112
(lp2113
sg571
(lp2114
S'Horse.8-5fb4708b19e285e4ec9ec41dc7950421,0.925349087003'
p2115
asS'Trivial.75-4cdd7e77d2c79fd04ffaf6c5ef448475'
p2116
(lp2117
S'Trivial.Ansibomb-25e51990d9817bc1298c425f92f621f4,0.928838951311'
p2118
asS'Icelandic'
p2119
(lp2120
sS'Lockjaw.808-12832afe5f71a9b096e5767daaee8324'
p2121
(lp2122
S'LockJaw-68291ebc8dcdc0221d6a80deb6dad2ce,0.593272171254'
p2123
asg372
(lp2124
S'CaptainTrips-7739255736ee3d22e0eb537422df4ef2,0.247725682295'
p2125
asg1270
(lp2126
S'PS.MPC.Gen.3-016a9a5f87b885fb2090fbd4f3d0c9ee,0.802507836991'
p2127
asS'Stoned.2-1e7199fd5c6fbc391e3b31bceb40938f'
p2128
(lp2129
S'Stoned.2-ec0c7e203b93dba42f85c48083ec20aa,0.776687824582'
p2130
asS'VGEN.447.0-5f3589ef7bba93b75fb9c4204847714a'
p2131
(lp2132
S'VGEN.74.6-c2f0a9903ce9281aa4f1415ae2dab966,0.980249480249'
p2133
asS'MtE2.staticsig-0cef59cbf60037551136b08fd0002e92'
p2134
(lp2135
S'MtE2.staticsig-9664bac838bfd8968596c82e09edcd1b,0.786008230453'
p2136
asS'BadTaste-a16f8cb8605d0abf2591f4a481da88b0'
p2137
(lp2138
S'BadTaste-0572472c0e9bd815dc8e65264d3091df,0.428571428571'
p2139
asS'ARCV.330-bb2ab0f79d2d4122622ca6e232ffb4bf'
p2140
(lp2141
S'Arcv.Ice.250-8f0f567e2191d212e402fcc8f97a93c7,0.901162790698'
p2142
asS'Amstrad'
p2143
(lp2144
sS'Tiny.290-4213d56686b6898b44b4f87bc697fc2f'
p2145
(lp2146
S'Tiny.97-b38f3c9af3d882853ca3b359f750bdbe,0.944649446494'
p2147
asS'Gotcha'
p2148
(lp2149
sS'CivilWar.144-7908173236e32ed364bf44e2bb4719f8'
p2150
(lp2151
S'Civil_War.561-d43205c042558d8fa410f734a1326db2,0.916167664671'
p2152
asS'Dark'
p2153
(lp2154
sS'Stoned.2-9b1d3a393a7e6a6bbdff63fd65d781f0'
p2155
(lp2156
S'Stoned.2-ec0c7e203b93dba42f85c48083ec20aa,0.776110790537'
p2157
asS'VGEN.3325.6-cc06c899f91713a6abc4fb0dd0fe6499'
p2158
(lp2159
S'VGEN.74.6-c2f0a9903ce9281aa4f1415ae2dab966,0.97331639136'
p2160
asS'Gotcha.1-d60fe80e9b5e5727ec225aa055aa283b'
p2161
(lp2162
S'Gotcha.D-dd20c438d45adaa54ab19f6649963558,0.974869109948'
p2163
asS'Boot.Emonk-dee71b780f7061cf9737e2bcd659c483'
p2164
(lp2165
S'Boot.Tequila.2-9fdff0ea2a95a1a21801af751da56d43,0.973038035628'
p2166
asS'Sistor'
p2167
(lp2168
sS'XMas'
p2169
(lp2170
sS'Dir.IIb-bc8edb8c0d3fbd129c38fb690e7e2283'
p2171
(lp2172
S'DIRII.k-eff55f1fd17e9f400351ceb8282e1da8,0.387'
p2173
asS'USSR.2144.B-84706dc1155adf98ecc7d529c54392bb'
p2174
(lp2175
S'USSR.707.B-99134c4785529994c62b16b357a0f8f9,0.980622131566'
p2176
asS'MIX1.B-efedea0567428692d5dfd1cec9889527'
p2177
(lp2178
S'DOS.Vgen.2-e098f43395f9ff7734b9e60f72824043,0.982101616628'
p2179
asS'Kohn6.633-12d6281817bbcb6fbd644e514812853b'
p2180
(lp2181
S'Kohn6.638-859c14ea9981fd7ec8dfe3a861f61b14,0.428246013667'
p2182
asS'DIRII.1024.f-04e691c4451f0da054c0372e32485a23'
p2183
(lp2184
S'DIRII.k-eff55f1fd17e9f400351ceb8282e1da8,0.467692307692'
p2185
asg663
(lp2186
S'Leprosy.321-ac099a148573f5253b552fc5769efb25,0.935543278085'
p2187
asS'Sistor.2630-0d8d9fa81ad77d4e86ee1db4b5679396'
p2188
(lp2189
S'Sistor.1149-cb352a4649ecedc73f84102020aabef3,0.759124087591'
p2190
asg1253
(lp2191
S'VGEN.74.6-c2f0a9903ce9281aa4f1415ae2dab966,1.0'
p2192
asS'April'
p2193
(lp2194
sS'Hydra.3-2c523c3a5fd3de9cd6b433508ccab667'
p2195
(lp2196
S'Hydra.3-866606493740352c3f9bf8c264c4257a,0.872121212121'
p2197
asS'Yankee.5-579b62a3fb78a40ebdeb561319d90083'
p2198
(lp2199
S'Yankee.1-cce476c53c20a952a10183468938b9c6,0.664524421594'
p2200
asS'Jerusalem.USA-aeb11a6b67f72f903e7d3152a9ac14da'
p2201
(lp2202
S'Jerusalem.USA-1165db141aa4c07360858d5390b165d1,0.869349566002'
p2203
asg323
(lp2204
S'DOS.Vgen.2-e098f43395f9ff7734b9e60f72824043,0.982101616628'
p2205
asS'Virdem.Family-928b52cd2f61eb9a4d22f2413b905804'
p2206
(lp2207
S'Virdem.Family-73e820e3328bea85e1108316ab2affb4,0.434889434889'
p2208
asS'Sunday.4-3039342faca53ccf1b1751265330c40f'
p2209
(lp2210
S'Sunday.4-29e0c5f2801ebec0ba8a54f5ed2ff031,0.278206026629'
p2211
asS'Gen.100.Years.1-03127c44d06a3aa7d98041de35ee593b'
p2212
(lp2213
S'Gen.1701.1704CascadeRelated-df82b7c655efd5ec2c1c46cfcb253e27,1.0'
p2214
asS'Killer-c20126ee4dd081aecdba244ab5e1c6db'
p2215
(lp2216
S'Killer-73fa443e75ae29c1f52612a7c549563b,0.476439790576'
p2217
asS'MPC.Unnamed-f5cc52c21d9ee4cbe7dc24105a510147'
p2218
(lp2219
S'MPC.1a-6ca8141cb6e349fc0442577b62e13cd1,0.977664974619'
p2220
asS'Gen.1992-efbe9a26379295d6740f261a4a84939c'
p2221
(lp2222
S'Gen.1701.1704CascadeRelated-df82b7c655efd5ec2c1c46cfcb253e27,1.0'
p2223
asS'AIDS.1-24d1c32fca9658e9456bf144eb0b25d2'
p2224
(lp2225
S'AIDSII-d3ffb0106bbf90d6510e77beb6cde1b3,0.978029912326'
p2226
asS'Spanish'
p2227
(lp2228
sS'VGEN.1058.0-271859acd91decc5013c4166d1f2c0f4'
p2229
(lp2230
S'VGEN.74.6-c2f0a9903ce9281aa4f1415ae2dab966,0.991836734694'
p2231
asS'Pixel.7-4f212308157364b1da4123f8e6d2cc0e'
p2232
(lp2233
S'Pixel.936-9ed2a2a0045749b3f4922f407397a5b0,0.690807799443'
p2234
asS'Tiny.251-b9d60265933d9cead12ae1c8cdc9b747'
p2235
(lp2236
S'Tiny.97-b38f3c9af3d882853ca3b359f750bdbe,0.910112359551'
p2237
asS'Phalcon'
p2238
(lp2239
sS'Vgen.43227-821b32c0336ca4a1cd985c42335b67ce'
p2240
(lp2241
S'VGEN.74.6-c2f0a9903ce9281aa4f1415ae2dab966,0.939590075512'
p2242
as.