(dp0
S'X-fc8d9bec6b6ea82ee415c5cb58539a0c'
p1
(lp2
S'22.3.2-7ea4921beff80e610ebf67cff4add312.raw,0.810650887574'
p3
asS'X-2ab549a59be3d89f2e5c2af2f2eab264'
p4
(lp5
S'22.3.2-7ea4921beff80e610ebf67cff4add312.raw,0.919298245614'
p6
asS'X-16d5ef7e85234f256f5e4b6b70519f27'
p7
(lp8
S'22.3.2-7ea4921beff80e610ebf67cff4add312.raw,0.891891891892'
p9
asS'X-d53d1c583548a47306ecad16359c7b5b'
p10
(lp11
S'22.3.2-7ea4921beff80e610ebf67cff4add312.raw,0.882352941176'
p12
asS'X-5ba556ee63c373386b0e56fc6ca77dce'
p13
(lp14
S'22.3.2-7ea4921beff80e610ebf67cff4add312.raw,0.859922178988'
p15
asS'X-ddb8185a96ff0ccb8bb4b821fb92470a'
p16
(lp17
S'22.3.2-7ea4921beff80e610ebf67cff4add312.raw,0.822857142857'
p18
asS'X-d7e92b27556a4381df972ed6450c24ce'
p19
(lp20
S'22.3.2-7ea4921beff80e610ebf67cff4add312.raw,0.916083916084'
p21
asS'X-28a4b28ad274e2cab72324f50ee38d48'
p22
(lp23
S'22.3.2-7ea4921beff80e610ebf67cff4add312.raw,0.753246753247'
p24
asS'X-7270f158b44e7690130265f704758036'
p25
(lp26
S'22.3.2-7ea4921beff80e610ebf67cff4add312.raw,0.683098591549'
p27
asS'X-4dc78ae1278cc652a650b07064f5929e'
p28
(lp29
S'22.3.2-7ea4921beff80e610ebf67cff4add312.raw,0.910344827586'
p30
asS'X-f8529f797fb5ebcd2a49b048bc5112fe'
p31
(lp32
S'22.3.2-7ea4921beff80e610ebf67cff4add312.raw,0.905405405405'
p33
asS'X-5e6899931a70cbf505b05d92b6969975'
p34
(lp35
S'22.3.2-7ea4921beff80e610ebf67cff4add312.raw,0.780303030303'
p36
asS'X-56dd1a7de7de7ac96999f5f13b91e4e6'
p37
(lp38
S'22.3.2-7ea4921beff80e610ebf67cff4add312.raw,0.905405405405'
p39
asS'X-8f5d093f99fe0a4a186e7ec43f3ad4b5'
p40
(lp41
S'22.3.2-7ea4921beff80e610ebf67cff4add312.raw,0.765100671141'
p42
asS'X-00feea4a357dccf21b47e6946980865d'
p43
(lp44
S'22.3.2-7ea4921beff80e610ebf67cff4add312.raw,0.913494809689'
p45
asS'X-141d257fc7a50457c8c9090073eb78f1'
p46
(lp47
S'22.3.2-7ea4921beff80e610ebf67cff4add312.raw,0.919298245614'
p48
asS'X-32060eeeea3e3b90b04b114e5f29cf66'
p49
(lp50
S'22.3.2-7ea4921beff80e610ebf67cff4add312.raw,0.905405405405'
p51
asS'X-794e7a0aac0e8d2ee0830e898a2046a4'
p52
(lp53
S'22.3.2-7ea4921beff80e610ebf67cff4add312.raw,0.909407665505'
p54
asS'X-673944da0681b9008ae1e14faf5ccb9a'
p55
(lp56
S'22.3.2-7ea4921beff80e610ebf67cff4add312.raw,0.693430656934'
p57
asS'X-b73ee79dce78429e9471bbe512f8f263'
p58
(lp59
S'22.3.2-7ea4921beff80e610ebf67cff4add312.raw,0.815217391304'
p60
asS'X-d47757cde1c610f40a37608d0bc704d6'
p61
(lp62
S'22.3.2-7ea4921beff80e610ebf67cff4add312.raw,0.905405405405'
p63
asS'X-55ce28e667b5168aa8e77b19efcae4ca'
p64
(lp65
S'22.3.2-7ea4921beff80e610ebf67cff4add312.raw,0.905405405405'
p66
asS'X-da5ec1a0a9f94cd341a64f14cb3f45aa'
p67
(lp68
S'22.3.2-7ea4921beff80e610ebf67cff4add312.raw,0.822857142857'
p69
asS'X-1accfb64352c7c65c50d6b11249c6d2d'
p70
(lp71
S'22.3.2-7ea4921beff80e610ebf67cff4add312.raw,0.870848708487'
p72
asS'X-699e646b79ea4e75c9052eacef5ec1df'
p73
(lp74
S'22.3.2-7ea4921beff80e610ebf67cff4add312.raw,0.75641025641'
p75
asS'X-12c12f205f16f6b91d0a25742612ee90'
p76
(lp77
S'22.3.2-7ea4921beff80e610ebf67cff4add312.raw,0.899653979239'
p78
asS'X-14fb2310991a11b4eae06d28d9ae9b2e'
p79
(lp80
S'22.3.2-7ea4921beff80e610ebf67cff4add312.raw,0.905405405405'
p81
asS'X-e3d0572faa2f87b07859c9ccac2ffbb2'
p82
(lp83
S'22.3.2-7ea4921beff80e610ebf67cff4add312.raw,0.801020408163'
p84
asS'X-bfb1bc92a447b1176bc2bbf107f4af3a'
p85
(lp86
S'22.3.2-7ea4921beff80e610ebf67cff4add312.raw,0.751633986928'
p87
asS'X-b3032cce47fb803a43faf687002ed159'
p88
(lp89
S'22.3.2-7ea4921beff80e610ebf67cff4add312.raw,0.761904761905'
p90
asS'X-782e26bc23dbf694a3093d8ffae9b485'
p91
(lp92
S'22.3.2-7ea4921beff80e610ebf67cff4add312.raw,0.891891891892'
p93
asS'X-6477d2a794f7f58b9a3a812475247c1b'
p94
(lp95
S'22.3.2-7ea4921beff80e610ebf67cff4add312.raw,0.824561403509'
p96
asS'X-0c634335ca4df911c381b16903754f88'
p97
(lp98
S'22.3.2-7ea4921beff80e610ebf67cff4add312.raw,0.851351351351'
p99
asS'X-1bc7730b896ee7a9ff23633d3a320426'
p100
(lp101
S'22.3.2-7ea4921beff80e610ebf67cff4add312.raw,0.746666666667'
p102
asS'X-aaf565d40ca784ece044cfe2c8d59a37'
p103
(lp104
S'22.3.2-7ea4921beff80e610ebf67cff4add312.raw,0.735483870968'
p105
asS'X-225531b3d853630b3fb5bf02d5acc672'
p106
(lp107
S'22.3.2-7ea4921beff80e610ebf67cff4add312.raw,0.905405405405'
p108
asS'X-17f06cef2d4cb19e58b2f4870e412cb2'
p109
(lp110
S'22.3.2-7ea4921beff80e610ebf67cff4add312.raw,0.914089347079'
p111
asS'X-603916ba044a75804d1adf866372ff44'
p112
(lp113
S'22.3.2-7ea4921beff80e610ebf67cff4add312.raw,0.896296296296'
p114
asS'X-60573e98e7c9a476ba5c09418dc1eb36'
p115
(lp116
S'22.3.2-7ea4921beff80e610ebf67cff4add312.raw,0.916666666667'
p117
asS'X-e0685cf8196d1f2a73920f5e6711a9b7'
p118
(lp119
S'22.3.2-7ea4921beff80e610ebf67cff4add312.raw,0.897260273973'
p120
asS'X-978e156f630dbc96ea35cf5ab5974a92'
p121
(lp122
S'22.3.2-7ea4921beff80e610ebf67cff4add312.raw,0.8'
p123
asS'X-bb7b265a8c72a9793a8470a0bc53c70e'
p124
(lp125
S'22.3.2-7ea4921beff80e610ebf67cff4add312.raw,0.813131313131'
p126
asS'X-474e307b60b49acb4cef87013364f3af'
p127
(lp128
S'22.3.2-7ea4921beff80e610ebf67cff4add312.raw,0.76'
p129
asS'X-354ed18e5738fd6605f92a9ba2f5f2dd'
p130
(lp131
S'22.3.2-7ea4921beff80e610ebf67cff4add312.raw,0.917525773196'
p132
asS'X-f688d75f04282658a73a664f31180e3a'
p133
(lp134
S'22.3.2-7ea4921beff80e610ebf67cff4add312.raw,0.731343283582'
p135
asS'X-f8cdafaf0fdf22c35f60e964b0aed8aa'
p136
(lp137
S'22.3.2-7ea4921beff80e610ebf67cff4add312.raw,0.880794701987'
p138
asS'X-9a254f0cc3c6d3370bc83a61329f4652'
p139
(lp140
S'22.3.2-7ea4921beff80e610ebf67cff4add312.raw,0.920454545455'
p141
asS'X-ff1ed6b6284ee4931abf4c7bf0684b6f'
p142
(lp143
S'22.3.2-7ea4921beff80e610ebf67cff4add312.raw,0.810256410256'
p144
asS'X-5d82adb2c8d35749d4e59269778f0461'
p145
(lp146
S'22.3.2-7ea4921beff80e610ebf67cff4add312.raw,0.798611111111'
p147
asS'X-853d432d7ebcd9af031ad733157232ae'
p148
(lp149
S'22.3.2-7ea4921beff80e610ebf67cff4add312.raw,0.905405405405'
p150
asS'X-e40a6321537de678114a0cdc86fae124'
p151
(lp152
S'22.3.2-7ea4921beff80e610ebf67cff4add312.raw,0.673913043478'
p153
asS'X-3d70af1140107d738b0404f98fdfe01f'
p154
(lp155
S'22.3.2-7ea4921beff80e610ebf67cff4add312.raw,0.815217391304'
p156
asS'X-344167343e9b6cf6fa4323e3cf5bac97'
p157
(lp158
S'22.3.2-7ea4921beff80e610ebf67cff4add312.raw,0.923076923077'
p159
asS'X-e740710ff89069890bef3410055f1e66'
p160
(lp161
S'22.3.2-7ea4921beff80e610ebf67cff4add312.raw,0.905405405405'
p162
asS'X-f3a306795d8e15aabcc42b33cac080f0'
p163
(lp164
S'22.3.2-7ea4921beff80e610ebf67cff4add312.raw,0.943319838057'
p165
asS'X-ed55443d9713e0b64abe37275d56f755'
p166
(lp167
S'22.3.2-7ea4921beff80e610ebf67cff4add312.raw,0.905405405405'
p168
asS'X-43ee0b9006759bf99ec0702225076b93'
p169
(lp170
S'22.3.2-7ea4921beff80e610ebf67cff4add312.raw,0.919191919192'
p171
asS'X-4033985999983a1d55b668e9cca5986a'
p172
(lp173
S'22.3.2-7ea4921beff80e610ebf67cff4add312.raw,0.891891891892'
p174
asS'X-ef607644ad2102ab03556ecbd824ad27'
p175
(lp176
S'22.3.2-7ea4921beff80e610ebf67cff4add312.raw,0.76'
p177
asS'X-f2c6c8339096607635db0b88f5b2b4a3'
p178
(lp179
S'22.3.2-7ea4921beff80e610ebf67cff4add312.raw,0.765100671141'
p180
asS'X-6cd4fc8c7c460da55637694f2fe5628a'
p181
(lp182
S'22.3.2-7ea4921beff80e610ebf67cff4add312.raw,0.808080808081'
p183
asS'X-5793c6b723ce48d0b5912275c1e325e7'
p184
(lp185
S'22.3.2-7ea4921beff80e610ebf67cff4add312.raw,0.753333333333'
p186
asS'X-69146317c1b5bde8ee274f09bdf980de'
p187
(lp188
S'22.3.2-7ea4921beff80e610ebf67cff4add312.raw,0.897810218978'
p189
asS'X-d3670d6309729e5dec606c35da75f6b6'
p190
(lp191
S'22.3.2-7ea4921beff80e610ebf67cff4add312.raw,0.786666666667'
p192
asS'X-e8e981c87acd6de5a3e3676a1d3061e1'
p193
(lp194
S'22.3.2-7ea4921beff80e610ebf67cff4add312.raw,0.862903225806'
p195
asS'X-be661412314b43e44932fc4d1094dc2f'
p196
(lp197
S'22.3.2-7ea4921beff80e610ebf67cff4add312.raw,0.813471502591'
p198
asS'X-1b41f46821f093124817b2950b362d62'
p199
(lp200
S'22.3.2-7ea4921beff80e610ebf67cff4add312.raw,0.912587412587'
p201
asS'X-91069eb20d31837f1e32fc98de5f71c4'
p202
(lp203
S'22.3.2-7ea4921beff80e610ebf67cff4add312.raw,0.905405405405'
p204
asS'X-81051bcc2cf1bedf378224b0a93e2877'
p205
(lp206
S'22.3.2-7ea4921beff80e610ebf67cff4add312.raw,0.864864864865'
p207
asS'X-a7501437f179fe98adb52d7c63d07783'
p208
(lp209
S'22.3.2-7ea4921beff80e610ebf67cff4add312.raw,0.935334872979'
p210
asS'X-e7d2aeb7abd00ab5abec82ab08061356'
p211
(lp212
S'22.3.2-7ea4921beff80e610ebf67cff4add312.raw,0.905405405405'
p213
asS'X-ef39f6b5dba3e4f4df34e17568a633e4'
p214
(lp215
S'22.3.2-7ea4921beff80e610ebf67cff4add312.raw,0.950819672131'
p216
asS'X-6948272d72aaa83ff903c12810b6272c'
p217
(lp218
S'22.3.2-7ea4921beff80e610ebf67cff4add312.raw,0.905405405405'
p219
asS'X-3506a763837f708ec56bb5ee39a68a57'
p220
(lp221
S'22.3.2-7ea4921beff80e610ebf67cff4add312.raw,0.941295546559'
p222
asS'X-1f5d37bcd6e54732978d70dbf5e4d897'
p223
(lp224
S'22.3.2-7ea4921beff80e610ebf67cff4add312.raw,0.894545454545'
p225
asS'X-1464bf78d6590ab0516ae2b2b2b21454'
p226
(lp227
S'22.3.2-7ea4921beff80e610ebf67cff4add312.raw,0.941414141414'
p228
asS'X-a1a2ee37117bf5958cbb03050cd01ae6'
p229
(lp230
S'22.3.2-7ea4921beff80e610ebf67cff4add312.raw,0.75'
p231
asS'X-2a1f253b63657487ba4dac4900e6ddff'
p232
(lp233
S'22.3.2-7ea4921beff80e610ebf67cff4add312.raw,0.941414141414'
p234
asS'X-7cbf6414e487bf906a98ffb334256822'
p235
(lp236
S'22.3.2-7ea4921beff80e610ebf67cff4add312.raw,0.9'
p237
asS'X-bdca082eec1cd26e330b810e3cf52506'
p238
(lp239
S'22.3.2-7ea4921beff80e610ebf67cff4add312.raw,0.920962199313'
p240
asS'X-c8ba66e5721f77cef5f1d1691ba9fee2'
p241
(lp242
S'22.3.2-7ea4921beff80e610ebf67cff4add312.raw,0.754966887417'
p243
asS'X-05d63d89403d2a005214cda19d86b02b'
p244
(lp245
S'22.3.2-7ea4921beff80e610ebf67cff4add312.raw,0.746666666667'
p246
asS'X-7123b4206dca82f09383ea54423817dc'
p247
(lp248
S'22.3.2-7ea4921beff80e610ebf67cff4add312.raw,0.815028901734'
p249
asS'X-bf90f9e083d160e5c9225c8c621d91fc'
p250
(lp251
S'22.3.2-7ea4921beff80e610ebf67cff4add312.raw,0.902255639098'
p252
asS'X-f01435499d66378bc2b6ac606021d9dd'
p253
(lp254
S'22.3.2-7ea4921beff80e610ebf67cff4add312.raw,0.858299595142'
p255
asS'X-842d54217461cd2f9cb0e53b8abc2078'
p256
(lp257
S'22.3.2-7ea4921beff80e610ebf67cff4add312.raw,0.864864864865'
p258
asS'X-9883dbbf35c7b60dfe2ec918d529bbe6'
p259
(lp260
S'22.3.2-7ea4921beff80e610ebf67cff4add312.raw,0.789473684211'
p261
asS'X-6d8cbc6e2bdf3c8028ed480d8400a1de'
p262
(lp263
S'22.3.2-7ea4921beff80e610ebf67cff4add312.raw,0.922807017544'
p264
asS'X-d3ffd09710d056a466557b2deaf8b07b'
p265
(lp266
S'22.3.2-7ea4921beff80e610ebf67cff4add312.raw,0.753333333333'
p267
asS'X-9340f0ae3d2fb3532b39d8986f5ce6f1'
p268
(lp269
S'22.3.2-7ea4921beff80e610ebf67cff4add312.raw,0.943319838057'
p270
asS'X-cb2e8e417f88ef68e25e757745f18c23'
p271
(lp272
S'22.3.2-7ea4921beff80e610ebf67cff4add312.raw,0.787878787879'
p273
asS'X-0b298a61c6a5d520244c9f7ed9f557c6'
p274
(lp275
S'22.3.2-7ea4921beff80e610ebf67cff4add312.raw,0.788732394366'
p276
asS'X-cead03de83eda5ceb97050a364a1a0ca'
p277
(lp278
S'22.3.2-7ea4921beff80e610ebf67cff4add312.raw,0.907849829352'
p279
asS'X-7236ef6dfce577e3592a122086a0c185'
p280
(lp281
S'22.3.2-7ea4921beff80e610ebf67cff4add312.raw,0.904761904762'
p282
asS'X-d2bde6c6c161d6b7c2b7113ff2c134d6'
p283
(lp284
S'22.3.2-7ea4921beff80e610ebf67cff4add312.raw,0.7421875'
p285
asS'X-0b5c48ed429fe7e0dfac14ecb5e13325'
p286
(lp287
S'22.3.2-7ea4921beff80e610ebf67cff4add312.raw,0.786666666667'
p288
asS'X-3c00d6a2e27f8e89835878899d7b7664'
p289
(lp290
S'22.3.2-7ea4921beff80e610ebf67cff4add312.raw,0.830508474576'
p291
asS'X-cc52c97b42d0dc2658eb7f9ad108565d'
p292
(lp293
S'22.3.2-7ea4921beff80e610ebf67cff4add312.raw,0.696296296296'
p294
asS'X-90cfe4b552826809cd47dbb2ecd5dc83'
p295
(lp296
S'22.3.2-7ea4921beff80e610ebf67cff4add312.raw,0.814070351759'
p297
asS'X-42da0cb444ee6da9072537ba22657bd2'
p298
(lp299
S'22.3.2-7ea4921beff80e610ebf67cff4add312.raw,0.913494809689'
p300
asS'X-a01faa14b6df7ee8129a278305c8611a'
p301
(lp302
S'22.3.2-7ea4921beff80e610ebf67cff4add312.raw,0.907216494845'
p303
asS'X-612e88797211219c08d554f2bcd3983e'
p304
(lp305
S'22.3.2-7ea4921beff80e610ebf67cff4add312.raw,0.721804511278'
p306
asS'X-82aab3127f4eb42c58d20dcf1fdfbe0b'
p307
(lp308
S'22.3.2-7ea4921beff80e610ebf67cff4add312.raw,0.905405405405'
p309
asS'X-b2578272da28cb8a22baaaf842c9455a'
p310
(lp311
S'22.3.2-7ea4921beff80e610ebf67cff4add312.raw,0.909722222222'
p312
asS'X-00ecc66f95621bfce9411f8faf116169'
p313
(lp314
S'22.3.2-7ea4921beff80e610ebf67cff4add312.raw,0.886075949367'
p315
asS'X-df700a1291249249f3e92f2d20d3f6f8'
p316
(lp317
S'22.3.2-7ea4921beff80e610ebf67cff4add312.raw,0.751677852349'
p318
asS'X-a66664e4e2a1ab3b536d3b292a21b698'
p319
(lp320
S'22.3.2-7ea4921beff80e610ebf67cff4add312.raw,0.761589403974'
p321
asS'X-3f4968d4f8557fd283d5a0672e5cd4f6'
p322
(lp323
S'22.3.2-7ea4921beff80e610ebf67cff4add312.raw,0.913494809689'
p324
asS'X-12901e7cf68ef2e87333cddfb77581dc'
p325
(lp326
S'22.3.2-7ea4921beff80e610ebf67cff4add312.raw,0.738255033557'
p327
asS'X-0518aaeb2fa1b506ab69d2c69cfdd3d3'
p328
(lp329
S'22.3.2-7ea4921beff80e610ebf67cff4add312.raw,0.898550724638'
p330
asS'X-8424c6b0ff1491179e4c443fbcecac6e'
p331
(lp332
S'22.3.2-7ea4921beff80e610ebf67cff4add312.raw,0.912891986063'
p333
asS'X-3bd27cfbd694dbf60335346493f41c14'
p334
(lp335
S'22.3.2-7ea4921beff80e610ebf67cff4add312.raw,0.901098901099'
p336
asS'X-f4c4162b51872900ffe38c30e5255505'
p337
(lp338
S'22.3.2-7ea4921beff80e610ebf67cff4add312.raw,0.901754385965'
p339
asS'X-9f9cbd39577461c0a910e33f45137b82'
p340
(lp341
S'22.3.2-7ea4921beff80e610ebf67cff4add312.raw,0.891891891892'
p342
asS'X-4ae1711dfcecce5d75c8803540b501f8'
p343
(lp344
S'22.3.2-7ea4921beff80e610ebf67cff4add312.raw,0.756756756757'
p345
asS'X-d0e020ca9293f3b71246c1e3d767cb2a'
p346
(lp347
S'22.3.2-7ea4921beff80e610ebf67cff4add312.raw,0.905405405405'
p348
asS'X-9a16a72d0e9a17c63ec9039f88a7866c'
p349
(lp350
S'22.3.2-7ea4921beff80e610ebf67cff4add312.raw,0.798561151079'
p351
asS'X-17f4968fcea25a5d51c13c37f1b87ecc'
p352
(lp353
S'22.3.2-7ea4921beff80e610ebf67cff4add312.raw,0.815028901734'
p354
asS'X-b2c465d25476b308d7a693253425d517'
p355
(lp356
S'22.3.2-7ea4921beff80e610ebf67cff4add312.raw,0.808080808081'
p357
asS'X-7966157ff914aeb93f74a721eb6490a3'
p358
(lp359
S'22.3.2-7ea4921beff80e610ebf67cff4add312.raw,0.908163265306'
p360
asS'X-229b3397230edbb510eeeafe857b4e08'
p361
(lp362
S'22.3.2-7ea4921beff80e610ebf67cff4add312.raw,0.812154696133'
p363
asS'X-73502bfa15af3682131e99a0c3c95513'
p364
(lp365
S'22.3.2-7ea4921beff80e610ebf67cff4add312.raw,0.90036900369'
p366
asS'X-5bb27d64858f5d001f82b3e966b33e0c'
p367
(lp368
S'22.3.2-7ea4921beff80e610ebf67cff4add312.raw,0.941532258065'
p369
asS'X-1a067033c6a14211a36102f4ac137a0d'
p370
(lp371
S'22.3.2-7ea4921beff80e610ebf67cff4add312.raw,0.917525773196'
p372
asS'X-9196191dbb3e17117e12c589165c47ca'
p373
(lp374
S'22.3.2-7ea4921beff80e610ebf67cff4add312.raw,0.878378378378'
p375
asS'X-829d4266cf7a26ca094cab03033df079'
p376
(lp377
S'22.3.2-7ea4921beff80e610ebf67cff4add312.raw,0.889830508475'
p378
asS'X-9fc1662057f0f5b74389153efabd866d'
p379
(lp380
S'22.3.2-7ea4921beff80e610ebf67cff4add312.raw,0.75'
p381
asS'X-1e1e2e10945db55a40d99e3557fdfcc0'
p382
(lp383
S'22.3.2-7ea4921beff80e610ebf67cff4add312.raw,0.914089347079'
p384
asS'X-197bf9956fd4e31ef35bf64f78872f90'
p385
(lp386
S'22.3.2-7ea4921beff80e610ebf67cff4add312.raw,0.894160583942'
p387
asS'X-bc61cffea4e8c37a35d56ca77c8db964'
p388
(lp389
S'22.3.2-7ea4921beff80e610ebf67cff4add312.raw,0.943204868154'
p390
asS'X-b481ef0ba204baa08dc4a6c3d59c77e5'
p391
(lp392
S'22.3.2-7ea4921beff80e610ebf67cff4add312.raw,0.913793103448'
p393
asS'X-fa7c79a239806d07dff8ba9496b2c666'
p394
(lp395
S'22.3.2-7ea4921beff80e610ebf67cff4add312.raw,0.893382352941'
p396
asS'X-ba565feae2e281f9327855308e668a57'
p397
(lp398
S'22.3.2-7ea4921beff80e610ebf67cff4add312.raw,0.891891891892'
p399
asS'X-54689b136ff08b7b607638e150fb8934'
p400
(lp401
S'22.3.2-7ea4921beff80e610ebf67cff4add312.raw,0.905405405405'
p402
asS'X-d62172dcee067c02b2cb547d23546bb2'
p403
(lp404
S'22.3.2-7ea4921beff80e610ebf67cff4add312.raw,0.905405405405'
p405
asS'X-0c7cd724b236618fa2ab6fae186a0b8e'
p406
(lp407
S'22.3.2-7ea4921beff80e610ebf67cff4add312.raw,0.745098039216'
p408
asS'X-cd9e6f2545849c4281c337d6827a49fe'
p409
(lp410
S'22.3.2-7ea4921beff80e610ebf67cff4add312.raw,0.913793103448'
p411
asS'X-349e3a4f58d1ac10aeaed24e145791ca'
p412
(lp413
S'22.3.2-7ea4921beff80e610ebf67cff4add312.raw,0.813953488372'
p414
asS'X-cf311c2e1728347373bf0610771041f5'
p415
(lp416
S'22.3.2-7ea4921beff80e610ebf67cff4add312.raw,0.908474576271'
p417
asS'X-35ff2d098cb6f3503469cc040bbe074f'
p418
(lp419
S'22.3.2-7ea4921beff80e610ebf67cff4add312.raw,0.905405405405'
p420
asS'X-dacde3e080bc483550fade10be8161dd'
p421
(lp422
S'22.3.2-7ea4921beff80e610ebf67cff4add312.raw,0.80612244898'
p423
asS'X-f0af7c5a5292f65a0158c33ce611686f'
p424
(lp425
S'22.3.2-7ea4921beff80e610ebf67cff4add312.raw,0.820809248555'
p426
asS'X-a0c6132429646562a7ac96ff3f82222b'
p427
(lp428
S'22.3.2-7ea4921beff80e610ebf67cff4add312.raw,0.910034602076'
p429
asS'X-6209ff2e053a6092032fb6cdb848ce97'
p430
(lp431
S'22.3.2-7ea4921beff80e610ebf67cff4add312.raw,0.906574394464'
p432
asS'X-7af59d8a7ad8f543b83b05d142a69b85'
p433
(lp434
S'22.3.2-7ea4921beff80e610ebf67cff4add312.raw,0.910344827586'
p435
asS'X-a88e7bd5aa1947d8da5039ab77bc1fb6'
p436
(lp437
S'22.3.2-7ea4921beff80e610ebf67cff4add312.raw,0.914383561644'
p438
asS'X-97630e05b83ab3dd7a6e76d356c5dcfa'
p439
(lp440
S'22.3.2-7ea4921beff80e610ebf67cff4add312.raw,0.91724137931'
p441
asS'X-959b8dddf18e21f46368ca1d7113aa55'
p442
(lp443
S'22.3.2-7ea4921beff80e610ebf67cff4add312.raw,0.91095890411'
p444
asS'X-ff239eeb8b114c767cf96b7dfcf665e4'
p445
(lp446
S'22.3.2-7ea4921beff80e610ebf67cff4add312.raw,0.943661971831'
p447
asS'X-330622601a7647162e2f33d5a9f4c5d1'
p448
(lp449
S'22.3.2-7ea4921beff80e610ebf67cff4add312.raw,0.91637630662'
p450
asS'X-7198ec51fa8e358cee6574bedc764839'
p451
(lp452
S'22.3.2-7ea4921beff80e610ebf67cff4add312.raw,0.943089430894'
p453
asS'X-e26bad7639d28c2f2467076404db9cc6'
p454
(lp455
S'22.3.2-7ea4921beff80e610ebf67cff4add312.raw,0.941532258065'
p456
asS'X-ba36ced54734d21a2a85e0faecea1e72'
p457
(lp458
S'22.3.2-7ea4921beff80e610ebf67cff4add312.raw,0.763513513514'
p459
asS'X-d5d751889007278fe91f6fc196b7bf45'
p460
(lp461
S'22.3.2-7ea4921beff80e610ebf67cff4add312.raw,0.914127423823'
p462
asS'X-76fb27a7e9043d5e75349e57e2db23fd'
p463
(lp464
S'22.3.2-7ea4921beff80e610ebf67cff4add312.raw,0.777777777778'
p465
asS'X-c9e1fd5efb77098bf223893ebe4aef82'
p466
(lp467
S'22.3.2-7ea4921beff80e610ebf67cff4add312.raw,0.913793103448'
p468
asS'X-3fddc8d7d15d781a3159ad5f1cb96150'
p469
(lp470
S'22.3.2-7ea4921beff80e610ebf67cff4add312.raw,0.905405405405'
p471
asS'X-01cc40c5071b9468a1b1fc8aacaac1df'
p472
(lp473
S'22.3.2-7ea4921beff80e610ebf67cff4add312.raw,0.815286624204'
p474
asS'X-5df512f4c11e52b0da166b8a1900a9f4'
p475
(lp476
S'22.3.2-7ea4921beff80e610ebf67cff4add312.raw,0.911262798635'
p477
asS'X-b80e7f6d94e32c117130c3456d153467'
p478
(lp479
S'22.3.2-7ea4921beff80e610ebf67cff4add312.raw,0.903780068729'
p480
asS'X-1e9398cfcea705cea3767720b8034e26'
p481
(lp482
S'22.3.2-7ea4921beff80e610ebf67cff4add312.raw,0.756756756757'
p483
asS'X-f970039a853c5f5148ad4edda399a200'
p484
(lp485
S'22.3.2-7ea4921beff80e610ebf67cff4add312.raw,0.905405405405'
p486
asS'X-910014f8c509c3768858bfc5790c92d2'
p487
(lp488
S'22.3.2-7ea4921beff80e610ebf67cff4add312.raw,0.782894736842'
p489
asS'X-c10c9d6be5dc7a44918367fe1e6bbd45'
p490
(lp491
S'22.3.2-7ea4921beff80e610ebf67cff4add312.raw,0.919014084507'
p492
asS'X-5ad8c2c77ccbcb2781f5d96c4a1256ae'
p493
(lp494
S'22.3.2-7ea4921beff80e610ebf67cff4add312.raw,0.796511627907'
p495
asS'X-9a3875ec181de4c1824ce26f4fca428d'
p496
(lp497
S'22.3.2-7ea4921beff80e610ebf67cff4add312.raw,0.943319838057'
p498
asS'X-e8613c79dc01ed661ab70e3add60d9b2'
p499
(lp500
S'22.3.2-7ea4921beff80e610ebf67cff4add312.raw,0.899641577061'
p501
asS'X-75a944afcb8e43a332f99b70cce5dd90'
p502
(lp503
S'22.3.2-7ea4921beff80e610ebf67cff4add312.raw,0.89667896679'
p504
asS'X-08e89391cc724e52a6cca9a914ba7481'
p505
(lp506
S'22.3.2-7ea4921beff80e610ebf67cff4add312.raw,0.905405405405'
p507
asS'X-87b55194519d89c62749ea4db5894e11'
p508
(lp509
S'22.3.2-7ea4921beff80e610ebf67cff4add312.raw,0.90036900369'
p510
asS'X-387194d21b287eea872007a49c105d4d'
p511
(lp512
S'22.3.2-7ea4921beff80e610ebf67cff4add312.raw,0.8125'
p513
asS'X-6049100fe0181d0bb49dcd7d31109f36'
p514
(lp515
S'22.3.2-7ea4921beff80e610ebf67cff4add312.raw,0.756756756757'
p516
asS'X-9206f493a597d1cf20b8858b7b2eb3db'
p517
(lp518
S'22.3.2-7ea4921beff80e610ebf67cff4add312.raw,0.761589403974'
p519
asS'X-43f8c1dabfaa9c0345b60af4e056cdba'
p520
(lp521
S'22.3.2-7ea4921beff80e610ebf67cff4add312.raw,0.798611111111'
p522
asS'X-58a656187505655ac6086533da7cc8ae'
p523
(lp524
S'22.3.2-7ea4921beff80e610ebf67cff4add312.raw,0.724637681159'
p525
asS'X-44c2d68f4fe2156e734a8b99075e35bb'
p526
(lp527
S'22.3.2-7ea4921beff80e610ebf67cff4add312.raw,0.723880597015'
p528
asS'X-665679984eebe1ea166ef2a205920f71'
p529
(lp530
S'22.3.2-7ea4921beff80e610ebf67cff4add312.raw,0.948247078464'
p531
asS'X-a425f847bc382b766fed2d38b8df7d47'
p532
(lp533
S'22.3.2-7ea4921beff80e610ebf67cff4add312.raw,0.917197452229'
p534
asS'X-1b51e061360ff1e8146cc876a23a6d20'
p535
(lp536
S'22.3.2-7ea4921beff80e610ebf67cff4add312.raw,0.786666666667'
p537
asS'X-a0c6a82a5975894468cb20f0d591fb22'
p538
(lp539
S'22.3.2-7ea4921beff80e610ebf67cff4add312.raw,0.905405405405'
p540
asS'X-3c6331a4f59207375252163972c5ab64'
p541
(lp542
S'22.3.2-7ea4921beff80e610ebf67cff4add312.raw,0.910344827586'
p543
asS'X-be655f217dc7778dfbff549f9dc7dbda'
p544
(lp545
S'22.3.2-7ea4921beff80e610ebf67cff4add312.raw,0.905405405405'
p546
asS'X-329e4ddd8cb770d3ca08153f09672269'
p547
(lp548
S'22.3.2-7ea4921beff80e610ebf67cff4add312.raw,0.75'
p549
asS'X-fcb28eb5b2be47340099fa7b11af3811'
p550
(lp551
S'22.3.2-7ea4921beff80e610ebf67cff4add312.raw,0.943204868154'
p552
asS'X-a6036ea7c781eb72daca46c8e22743b8'
p553
(lp554
S'22.3.2-7ea4921beff80e610ebf67cff4add312.raw,0.905405405405'
p555
asS'X-c99ca9a47c117c8e614795a28635b354'
p556
(lp557
S'22.3.2-7ea4921beff80e610ebf67cff4add312.raw,0.891891891892'
p558
asS'X-bdf081653d5dcf774f05bd130c0d4476'
p559
(lp560
S'22.3.2-7ea4921beff80e610ebf67cff4add312.raw,0.790849673203'
p561
asS'X-1737113c51d3f578c12bdc2117458c8a'
p562
(lp563
S'22.3.2-7ea4921beff80e610ebf67cff4add312.raw,0.741379310345'
p564
asS'X-5e9b8513eee71b19bd1c182067fa99e2'
p565
(lp566
S'22.3.2-7ea4921beff80e610ebf67cff4add312.raw,0.648648648649'
p567
asS'X-a4ad1b030f67c4f14a0d40528157e7e2'
p568
(lp569
S'22.3.2-7ea4921beff80e610ebf67cff4add312.raw,0.886075949367'
p570
asS'X-8b20cc34181ebdbcbfaa4c417f1d6aeb'
p571
(lp572
S'22.3.2-7ea4921beff80e610ebf67cff4add312.raw,0.756756756757'
p573
asS'X-e788991348ef679caa1dffd99dac921c'
p574
(lp575
S'22.3.2-7ea4921beff80e610ebf67cff4add312.raw,0.68345323741'
p576
asS'X-27b427c35f049fbbab7f5a9126c022f1'
p577
(lp578
S'22.3.2-7ea4921beff80e610ebf67cff4add312.raw,0.905405405405'
p579
asS'X-bcebd07d8ddb65686a3369e6b8f3efb8'
p580
(lp581
S'22.3.2-7ea4921beff80e610ebf67cff4add312.raw,0.914089347079'
p582
asS'X-ffbe3d3b19b1fd71b74bc6709a0f6d91'
p583
(lp584
S'22.3.2-7ea4921beff80e610ebf67cff4add312.raw,0.920962199313'
p585
asS'X-24b9bedcb229096a24e38d4e7860b3f5'
p586
(lp587
S'22.3.2-7ea4921beff80e610ebf67cff4add312.raw,0.910652920962'
p588
asS'X-bd64d03ca5865ee451af73e0da4a52f2'
p589
(lp590
S'22.3.2-7ea4921beff80e610ebf67cff4add312.raw,0.694029850746'
p591
asS'X-5da1b77884fe1883e0a274178a61e968'
p592
(lp593
S'22.3.2-7ea4921beff80e610ebf67cff4add312.raw,0.820809248555'
p594
asS'X-72126f23365ff6c2a44ad1f0215df5ae'
p595
(lp596
S'22.3.2-7ea4921beff80e610ebf67cff4add312.raw,0.90625'
p597
asS'X-063de13d4451102569756f63bcd84b64'
p598
(lp599
S'22.3.2-7ea4921beff80e610ebf67cff4add312.raw,0.815028901734'
p600
asS'X-ca2b533ce7d45033b35d087df4eb5361'
p601
(lp602
S'22.3.2-7ea4921beff80e610ebf67cff4add312.raw,0.943089430894'
p603
asS'X-cc299b8eddedefb07195b79ebe6ce28d'
p604
(lp605
S'22.3.2-7ea4921beff80e610ebf67cff4add312.raw,0.814207650273'
p606
asS'X-9e425d99a9055f2adebb042c605c41e8'
p607
(lp608
S'22.3.2-7ea4921beff80e610ebf67cff4add312.raw,0.91724137931'
p609
asS'X-c4a51086f1e78bfa46fe829590fd3533'
p610
(lp611
S'22.3.2-7ea4921beff80e610ebf67cff4add312.raw,0.945344129555'
p612
asS'X-a24db683ab608e4adca019c0f5b9c565'
p613
(lp614
S'22.3.2-7ea4921beff80e610ebf67cff4add312.raw,0.812865497076'
p615
asS'X-43a1fb4712e9123cd5a5e12996dc135f'
p616
(lp617
S'22.3.2-7ea4921beff80e610ebf67cff4add312.raw,0.90625'
p618
asS'X-79f5afbe93dc999a7635fa141508edfb'
p619
(lp620
S'22.3.2-7ea4921beff80e610ebf67cff4add312.raw,0.787096774194'
p621
asS'X-97998142dc18a3a2977c328a717ee952'
p622
(lp623
S'22.3.2-7ea4921beff80e610ebf67cff4add312.raw,0.754838709677'
p624
asS'X-05e43fffcd1cf970b1aa01f3d6471b27'
p625
(lp626
S'22.3.2-7ea4921beff80e610ebf67cff4add312.raw,0.905405405405'
p627
asS'X-11b40ec1c1d72cffb80e2dd34db7b45d'
p628
(lp629
S'22.3.2-7ea4921beff80e610ebf67cff4add312.raw,0.905405405405'
p630
asS'X-a38bba741dd73177df45986c75d3ca15'
p631
(lp632
S'22.3.2-7ea4921beff80e610ebf67cff4add312.raw,0.851351351351'
p633
asS'X-669ef6d000bf8b89ceb67444b6f71855'
p634
(lp635
S'22.3.2-7ea4921beff80e610ebf67cff4add312.raw,0.816666666667'
p636
asS'X-5d70e3d76bbee8f762936f0bfaf7acad'
p637
(lp638
S'22.3.2-7ea4921beff80e610ebf67cff4add312.raw,0.941414141414'
p639
asS'X-b49725348fa7957da9d52bf611791e0e'
p640
(lp641
S'22.3.2-7ea4921beff80e610ebf67cff4add312.raw,0.903780068729'
p642
asS'X-84007c49e3ba46d4e4b20b60a64c62ad'
p643
(lp644
S'22.3.2-7ea4921beff80e610ebf67cff4add312.raw,0.695652173913'
p645
asS'X-d14c0ba77f5cd66dff6c27c12fbeeb13'
p646
(lp647
S'22.3.2-7ea4921beff80e610ebf67cff4add312.raw,0.905405405405'
p648
asS'X-ebca915125b588f16b15b7c867d11e02'
p649
(lp650
S'22.3.2-7ea4921beff80e610ebf67cff4add312.raw,0.943319838057'
p651
asS'X-e620a4002446d244db4786de7bc986ef'
p652
(lp653
S'22.3.2-7ea4921beff80e610ebf67cff4add312.raw,0.941295546559'
p654
asS'X-8c5c3605f593ff7ca766363c42db5743'
p655
(lp656
S'22.3.2-7ea4921beff80e610ebf67cff4add312.raw,0.912891986063'
p657
asS'X-133766fc9e3c4c5f5f2cde470ae125f4'
p658
(lp659
S'22.3.2-7ea4921beff80e610ebf67cff4add312.raw,0.741721854305'
p660
asS'X-381d0eb7658fcc1869b763f202e47e5a'
p661
(lp662
S'22.3.2-7ea4921beff80e610ebf67cff4add312.raw,0.91958041958'
p663
asS'X-6ea6b6d08fd03e5e905034d3e585f286'
p664
(lp665
S'22.3.2-7ea4921beff80e610ebf67cff4add312.raw,0.754966887417'
p666
asS'X-a068b87de9af0681feb88088b1f42bbe'
p667
(lp668
S'22.3.2-7ea4921beff80e610ebf67cff4add312.raw,0.769230769231'
p669
asS'X-d0dc87982b6ed956c66b9057e7c156f3'
p670
(lp671
S'22.3.2-7ea4921beff80e610ebf67cff4add312.raw,0.897435897436'
p672
asS'X-abcf18d2e534146941a1093e700fdae4'
p673
(lp674
S'22.3.2-7ea4921beff80e610ebf67cff4add312.raw,0.904109589041'
p675
asS'X-43b204d2edd062f9fac9f3dee484089f'
p676
(lp677
S'22.3.2-7ea4921beff80e610ebf67cff4add312.raw,0.943548387097'
p678
asS'X-435365892f13cecf830b99b7d1c569e7'
p679
(lp680
S'22.3.2-7ea4921beff80e610ebf67cff4add312.raw,0.916666666667'
p681
asS'X-c85829939dc156dc23eadd34b6a89a11'
p682
(lp683
S'22.3.2-7ea4921beff80e610ebf67cff4add312.raw,0.898916967509'
p684
asS'X-c2b86557ea83f286704fd87a41da722c'
p685
(lp686
S'22.3.2-7ea4921beff80e610ebf67cff4add312.raw,0.761589403974'
p687
asS'X-ab0f12eaa1b2b0b886876123ad9d7767'
p688
(lp689
S'22.3.2-7ea4921beff80e610ebf67cff4add312.raw,0.797202797203'
p690
asS'X-d42a45406d1af20791659e8092c73e95'
p691
(lp692
S'22.3.2-7ea4921beff80e610ebf67cff4add312.raw,0.723880597015'
p693
asS'X-1a633f515c003ffddfe3a2ab2894936e'
p694
(lp695
S'22.3.2-7ea4921beff80e610ebf67cff4add312.raw,0.905405405405'
p696
asS'X-0a8ead81bef975756c87a48a83a26d6c'
p697
(lp698
S'22.3.2-7ea4921beff80e610ebf67cff4add312.raw,0.909090909091'
p699
asS'X-29e61390195c0fe927b868fade62035c'
p700
(lp701
S'22.3.2-7ea4921beff80e610ebf67cff4add312.raw,0.891891891892'
p702
asS'X-735cfdb0fdf65297e870874fd639144c'
p703
(lp704
S'22.3.2-7ea4921beff80e610ebf67cff4add312.raw,0.77027027027'
p705
asS'X-e1e37ee8ad8a95fe9aae2fbdf3410872'
p706
(lp707
S'22.3.2-7ea4921beff80e610ebf67cff4add312.raw,0.909090909091'
p708
asS'X-58ac5eeb1f86159729ee2a8b6379e782'
p709
(lp710
S'22.3.2-7ea4921beff80e610ebf67cff4add312.raw,0.767295597484'
p711
asS'X-62f67d7bbee87e83c2598e4cb03caa70'
p712
(lp713
S'22.3.2-7ea4921beff80e610ebf67cff4add312.raw,0.854771784232'
p714
asS'X-bc4c2f89dc513fd75da0a8ac36cec71d'
p715
(lp716
S'22.3.2-7ea4921beff80e610ebf67cff4add312.raw,0.755555555556'
p717
asS'X-0e88108fd555fc7994f9de8dc5952d05'
p718
(lp719
S'22.3.2-7ea4921beff80e610ebf67cff4add312.raw,0.903114186851'
p720
asS'X-356d1e7b1a5992e42d583cf73e7abaf4'
p721
(lp722
S'22.3.2-7ea4921beff80e610ebf67cff4add312.raw,0.905405405405'
p723
asS'X-932b49f84f0146730e70b6ab7003ccbb'
p724
(lp725
S'22.3.2-7ea4921beff80e610ebf67cff4add312.raw,0.943661971831'
p726
asS'X-ccf020d983e4f6f37b76696c19874555'
p727
(lp728
S'22.3.2-7ea4921beff80e610ebf67cff4add312.raw,0.733766233766'
p729
asS'X-474157f07e304d50986b635a076c7926'
p730
(lp731
S'22.3.2-7ea4921beff80e610ebf67cff4add312.raw,0.905405405405'
p732
asS'X-b2ac5d8392911d6fd9b52ff447702f1d'
p733
(lp734
S'22.3.2-7ea4921beff80e610ebf67cff4add312.raw,0.894957983193'
p735
asS'X-3c6bad681344172d199de0536895d09d'
p736
(lp737
S'22.3.2-7ea4921beff80e610ebf67cff4add312.raw,0.909722222222'
p738
asS'X-e85bd6e3ad45e3c9c2250d74f5c5d0fe'
p739
(lp740
S'22.3.2-7ea4921beff80e610ebf67cff4add312.raw,0.79797979798'
p741
asS'X-1e8a8093264a305f76222ce0febb1358'
p742
(lp743
S'22.3.2-7ea4921beff80e610ebf67cff4add312.raw,0.736842105263'
p744
asS'X-a94d99c4e47f9ba135db34c2819adba9'
p745
(lp746
S'22.3.2-7ea4921beff80e610ebf67cff4add312.raw,0.910034602076'
p747
asS'X-0862e38c8df4e7c7a834732c39eab5f6'
p748
(lp749
S'22.3.2-7ea4921beff80e610ebf67cff4add312.raw,0.9'
p750
asS'X-b3c2dbc37fad832c1cd8e7f7cb2116df'
p751
(lp752
S'22.3.2-7ea4921beff80e610ebf67cff4add312.raw,0.943319838057'
p753
asS'X-e3c741bbf0bbf128373170bd9f7aef04'
p754
(lp755
S'22.3.2-7ea4921beff80e610ebf67cff4add312.raw,0.861660079051'
p756
asS'X-8f70c0a2bb642739b4b0100097bb473b'
p757
(lp758
S'22.3.2-7ea4921beff80e610ebf67cff4add312.raw,0.80701754386'
p759
asS'X-4418a2d7b6ae2daf762201dba427be12'
p760
(lp761
S'22.3.2-7ea4921beff80e610ebf67cff4add312.raw,0.912280701754'
p762
asS'X-fad3cbc270f9b5e1abdefc818a89ca70'
p763
(lp764
S'22.3.2-7ea4921beff80e610ebf67cff4add312.raw,0.741721854305'
p765
asS'X-6131c6f1ab4bc4704ded05ef816409aa'
p766
(lp767
S'22.3.2-7ea4921beff80e610ebf67cff4add312.raw,0.909090909091'
p768
asS'X-36b199911f1302f06e024159aff21d54'
p769
(lp770
S'22.3.2-7ea4921beff80e610ebf67cff4add312.raw,0.621621621622'
p771
asS'X-3dad61ba915388c827ea5185d4211196'
p772
(lp773
S'22.3.2-7ea4921beff80e610ebf67cff4add312.raw,0.913194444444'
p774
asS'X-a2940cf18c1520a0eca016b2c07ab96c'
p775
(lp776
S'22.3.2-7ea4921beff80e610ebf67cff4add312.raw,0.865168539326'
p777
asS'X-6ddf0a68fdb91fa0620c27d66b8c1319'
p778
(lp779
S'22.3.2-7ea4921beff80e610ebf67cff4add312.raw,0.910652920962'
p780
asS'X-593881b06242bc19f2c10bff99a93e5d'
p781
(lp782
S'22.3.2-7ea4921beff80e610ebf67cff4add312.raw,0.905405405405'
p783
asS'X-d6fff62826d0bea73f413a281a2d0219'
p784
(lp785
S'22.3.2-7ea4921beff80e610ebf67cff4add312.raw,0.780303030303'
p786
asS'X-67fa4bb248d6bb7296487d8c927ebc19'
p787
(lp788
S'22.3.2-7ea4921beff80e610ebf67cff4add312.raw,0.882845188285'
p789
asS'X-dbf44582d1f1ec398019e5ddad534f29'
p790
(lp791
S'22.3.2-7ea4921beff80e610ebf67cff4add312.raw,0.894160583942'
p792
asS'X-ec32c0281abcdf31d2d451a304aba3b7'
p793
(lp794
S'22.3.2-7ea4921beff80e610ebf67cff4add312.raw,0.905405405405'
p795
asS'X-772a2f338a45cc51f5a6dee4f1113883'
p796
(lp797
S'22.3.2-7ea4921beff80e610ebf67cff4add312.raw,0.68115942029'
p798
asS'X-024ae22a4410315876cc866bff994a0c'
p799
(lp800
S'22.3.2-7ea4921beff80e610ebf67cff4add312.raw,0.815384615385'
p801
asS'X-3a630a5fb13ccd8d96bfcbd314205983'
p802
(lp803
S'22.3.2-7ea4921beff80e610ebf67cff4add312.raw,0.916955017301'
p804
asS'X-875ce316809eb629b66b1f4ce594898c'
p805
(lp806
S'22.3.2-7ea4921beff80e610ebf67cff4add312.raw,0.941314553991'
p807
asS'X-738507d2d219fd5b97fc7bc90a49cab1'
p808
(lp809
S'22.3.2-7ea4921beff80e610ebf67cff4add312.raw,0.911660777385'
p810
asS'X-d03ee41e7f769e04ad26ba7a4de32243'
p811
(lp812
S'22.3.2-7ea4921beff80e610ebf67cff4add312.raw,0.899253731343'
p813
asS'X-fa92f97026807c8d26b1a04f15556746'
p814
(lp815
S'22.3.2-7ea4921beff80e610ebf67cff4add312.raw,0.801242236025'
p816
asS'X-7db3732ad9e47054a40979aca87f8963'
p817
(lp818
S'22.3.2-7ea4921beff80e610ebf67cff4add312.raw,0.891891891892'
p819
asS'X-2b0c89a929cc9ceb8ed7756b214d0f8c'
p820
(lp821
S'22.3.2-7ea4921beff80e610ebf67cff4add312.raw,0.730769230769'
p822
asS'X-ce281aef20e8a6c3cfe21df7a34d9481'
p823
(lp824
S'22.3.2-7ea4921beff80e610ebf67cff4add312.raw,0.724637681159'
p825
asS'X-1d0fc8950d977099b6611127edf4b13b'
p826
(lp827
S'22.3.2-7ea4921beff80e610ebf67cff4add312.raw,0.814569536424'
p828
asS'X-19aa62f5011082b3c16e4381d89b5393'
p829
(lp830
S'22.3.2-7ea4921beff80e610ebf67cff4add312.raw,0.894160583942'
p831
asS'X-32cc38b9bbb6b7bb081e9a38fbe2a0aa'
p832
(lp833
S'22.3.2-7ea4921beff80e610ebf67cff4add312.raw,0.810810810811'
p834
asS'X-40184eb6da42721dfc8b61e55ed1d59f'
p835
(lp836
S'22.3.2-7ea4921beff80e610ebf67cff4add312.raw,0.766233766234'
p837
asS'X-c18ab1c26e471206f3dc04babeabb488'
p838
(lp839
S'22.3.2-7ea4921beff80e610ebf67cff4add312.raw,0.912587412587'
p840
asS'X-79f2ca285ea13a87ac606ad2a90b38f7'
p841
(lp842
S'22.3.2-7ea4921beff80e610ebf67cff4add312.raw,0.90405904059'
p843
asS'X-bd483910034bc2ea155480e5d09f0e5e'
p844
(lp845
S'22.3.2-7ea4921beff80e610ebf67cff4add312.raw,0.805882352941'
p846
asS'X-79e81d276abec6b66d9b0f0985fe032c'
p847
(lp848
S'22.3.2-7ea4921beff80e610ebf67cff4add312.raw,0.815217391304'
p849
asS'X-393ab6bb2627b64d5cca62c712bfd329'
p850
(lp851
S'22.3.2-7ea4921beff80e610ebf67cff4add312.raw,0.891891891892'
p852
asS'X-70521459c0ed53dc49d9fca8c6f5bdd9'
p853
(lp854
S'22.3.2-7ea4921beff80e610ebf67cff4add312.raw,0.795321637427'
p855
asS'X-cb492b7df9b5c170d7c87527940eff3b'
p856
(lp857
S'22.3.2-7ea4921beff80e610ebf67cff4add312.raw,0.837837837838'
p858
asS'X-0bf3b4efcc1e53854de91ac4824057cd'
p859
(lp860
S'22.3.2-7ea4921beff80e610ebf67cff4add312.raw,0.80612244898'
p861
asS'X-099de92a06ecceaee3fb947599e237f5'
p862
(lp863
S'22.3.2-7ea4921beff80e610ebf67cff4add312.raw,0.913494809689'
p864
asS'X-beb1167c34e5355b31fd854bde0648f0'
p865
(lp866
S'22.3.2-7ea4921beff80e610ebf67cff4add312.raw,0.941414141414'
p867
asS'X-a5755c4d052bfcce8d3b1daec488de0e'
p868
(lp869
S'22.3.2-7ea4921beff80e610ebf67cff4add312.raw,0.906574394464'
p870
asS'X-92b60a5247cd8947fde797e044de5c59'
p871
(lp872
S'22.3.2-7ea4921beff80e610ebf67cff4add312.raw,0.676258992806'
p873
asS'X-da0e02f8a4b0244af41850761a6379fb'
p874
(lp875
S'22.3.2-7ea4921beff80e610ebf67cff4add312.raw,0.893382352941'
p876
asS'X-db39910d2632132dc115b05ca7af1669'
p877
(lp878
S'22.3.2-7ea4921beff80e610ebf67cff4add312.raw,0.891891891892'
p879
asS'X-fc07ad4ae7ccc87475275b922073373e'
p880
(lp881
S'22.3.2-7ea4921beff80e610ebf67cff4add312.raw,0.78125'
p882
asS'X-85380af318c87f0c17f34c3e03375459'
p883
(lp884
S'22.3.2-7ea4921beff80e610ebf67cff4add312.raw,0.866920152091'
p885
asS'X-b8ee537b9ee9d87435b5137ffafee59e'
p886
(lp887
S'22.3.2-7ea4921beff80e610ebf67cff4add312.raw,0.742647058824'
p888
asS'X-4a8654bcdbdb56883a90d462f972a004'
p889
(lp890
S'22.3.2-7ea4921beff80e610ebf67cff4add312.raw,0.914383561644'
p891
asS'X-2b936db38a6b887525357f7c2343ad69'
p892
(lp893
S'22.3.2-7ea4921beff80e610ebf67cff4add312.raw,0.782894736842'
p894
asS'X-ffc9b15d997f6a180b60fc0327c1c5c3'
p895
(lp896
S'22.3.2-7ea4921beff80e610ebf67cff4add312.raw,0.751724137931'
p897
asS'X-e70c6c8658ef0ca389916cd70135c14d'
p898
(lp899
S'22.3.2-7ea4921beff80e610ebf67cff4add312.raw,0.757281553398'
p900
asS'X-dd62b6725f5bf4ce3058f945887bbd76'
p901
(lp902
S'22.3.2-7ea4921beff80e610ebf67cff4add312.raw,0.915492957746'
p903
asS'X-88c366bb017ac1a52f779e8cd522366b'
p904
(lp905
S'22.3.2-7ea4921beff80e610ebf67cff4add312.raw,0.887417218543'
p906
asS'X-9625153b530c40c819bd9565438f63bb'
p907
(lp908
S'22.3.2-7ea4921beff80e610ebf67cff4add312.raw,0.914383561644'
p909
asS'X-1bea320e8ea7b8ee93f0be4999d9ad66'
p910
(lp911
S'22.3.2-7ea4921beff80e610ebf67cff4add312.raw,0.775641025641'
p912
asS'X-59c418926c9f8420794fee44742518ac'
p913
(lp914
S'22.3.2-7ea4921beff80e610ebf67cff4add312.raw,0.776315789474'
p915
asS'X-5fb0f8a5449f8a9f0c73b3ef8046091e'
p916
(lp917
S'22.3.2-7ea4921beff80e610ebf67cff4add312.raw,0.905405405405'
p918
asS'X-7a6f61f5ccb2a84ac63ee77863b0fd6a'
p919
(lp920
S'22.3.2-7ea4921beff80e610ebf67cff4add312.raw,0.951724137931'
p921
asS'X-2d00516f8fa92c1349e25a12788a3b05'
p922
(lp923
S'22.3.2-7ea4921beff80e610ebf67cff4add312.raw,0.817258883249'
p924
asS'X-2b1e1417e3600db4582974f41f2861cf'
p925
(lp926
S'22.3.2-7ea4921beff80e610ebf67cff4add312.raw,0.744'
p927
asS'X-501387d7096f5681401fe52f4755b60e'
p928
(lp929
S'22.3.2-7ea4921beff80e610ebf67cff4add312.raw,0.913494809689'
p930
asS'X-47e385a8e5f43b3ec5a16fc563bd0237'
p931
(lp932
S'22.3.2-7ea4921beff80e610ebf67cff4add312.raw,0.745222929936'
p933
asS'X-1feb9aeec5fc3fb54748c33cf81dc630'
p934
(lp935
S'22.3.2-7ea4921beff80e610ebf67cff4add312.raw,0.807106598985'
p936
asS'X-ab9cf53b592afadf832bab5946d42ab3'
p937
(lp938
S'22.3.2-7ea4921beff80e610ebf67cff4add312.raw,0.905405405405'
p939
asS'X-4c62751e501fecaf919b7febbf6a222f'
p940
(lp941
S'22.3.2-7ea4921beff80e610ebf67cff4add312.raw,0.792682926829'
p942
asS'X-148219dfb1a558a228625c151353ddb6'
p943
(lp944
S'22.3.2-7ea4921beff80e610ebf67cff4add312.raw,0.946257197697'
p945
asS'X-ab1dd2b21ce34ce8727fc8cd55d69d3c'
p946
(lp947
S'22.3.2-7ea4921beff80e610ebf67cff4add312.raw,0.743243243243'
p948
asS'X-3f123c9b8d480c6e99e6319dbfa7b66a'
p949
(lp950
S'22.3.2-7ea4921beff80e610ebf67cff4add312.raw,0.905405405405'
p951
asS'X-1f22035efcad15ea03c4e3e7d7b47053'
p952
(lp953
S'22.3.2-7ea4921beff80e610ebf67cff4add312.raw,0.905405405405'
p954
asS'X-ea491748ac16ee2ef97d51ce8a365478'
p955
(lp956
S'22.3.2-7ea4921beff80e610ebf67cff4add312.raw,0.913793103448'
p957
asS'X-3e62c0d6d650f981a04b862824ac9005'
p958
(lp959
S'22.3.2-7ea4921beff80e610ebf67cff4add312.raw,0.913194444444'
p960
asS'X-2a961d37b4d7e0ab0286813a3cbd209d'
p961
(lp962
S'22.3.2-7ea4921beff80e610ebf67cff4add312.raw,0.88679245283'
p963
asS'X-b1aa12dd78548f743c80e0170933f231'
p964
(lp965
S'22.3.2-7ea4921beff80e610ebf67cff4add312.raw,0.683098591549'
p966
asS'X-d100c00606d097bf9dada26ca7933a12'
p967
(lp968
S'22.3.2-7ea4921beff80e610ebf67cff4add312.raw,0.892988929889'
p969
asS'X-c97e05edb52e7bdc0e9a646d19bc87ee'
p970
(lp971
S'22.3.2-7ea4921beff80e610ebf67cff4add312.raw,0.897435897436'
p972
asS'X-600c16f18a01bf80297a3e7a097066b6'
p973
(lp974
S'22.3.2-7ea4921beff80e610ebf67cff4add312.raw,0.770700636943'
p975
asS'X-23214e9c5b8475eb5ab78cd89ed05a27'
p976
(lp977
S'22.3.2-7ea4921beff80e610ebf67cff4add312.raw,0.723880597015'
p978
asS'X-9e6689fcd308b57815ebb2b603299406'
p979
(lp980
S'22.3.2-7ea4921beff80e610ebf67cff4add312.raw,0.914383561644'
p981
asS'X-13de7e90d06ec759310c711fd8caf9a3'
p982
(lp983
S'22.3.2-7ea4921beff80e610ebf67cff4add312.raw,0.895910780669'
p984
asS'X-e725650f6a0398fa7ea7106e711fcbb0'
p985
(lp986
S'22.3.2-7ea4921beff80e610ebf67cff4add312.raw,0.802030456853'
p987
asS'X-f1047767508120e85bc9033c4298455d'
p988
(lp989
S'22.3.2-7ea4921beff80e610ebf67cff4add312.raw,0.780141843972'
p990
asS'X-ae332de73ecf163329b12a9ef7da1ec1'
p991
(lp992
S'22.3.2-7ea4921beff80e610ebf67cff4add312.raw,0.900826446281'
p993
asS'X-c81858337c999270a5fabac8410acf98'
p994
(lp995
S'22.3.2-7ea4921beff80e610ebf67cff4add312.raw,0.941295546559'
p996
asS'X-02d3ab1a86049f9adbb5b66094551d6a'
p997
(lp998
S'22.3.2-7ea4921beff80e610ebf67cff4add312.raw,0.848958333333'
p999
asS'X-8675be64be2ef849af23c682b719e0c6'
p1000
(lp1001
S'22.3.2-7ea4921beff80e610ebf67cff4add312.raw,0.837837837838'
p1002
asS'X'
p1003
(lp1004
g967
aS'X-21f90e257238d6a3fb6f53c3e8cc2fd8'
p1005
ag196
ag958
ag934
ag97
aS'X-b7e9813c1a0a728b80e3593f8dd330ac'
p1006
aS'X-6169559191e742985d6396b3f489b4ad'
p1007
aS'X-24f4c20166295447b2e01401a9da6505'
p1008
ag226
ag352
aS'X-718778391a342b10a8e39a3457713156'
p1009
aS'X-c9e2f5bb128a00ada1498fe7388963eb'
p1010
ag694
ag118
aS'X-39f7e85095492efea82d23155d59476b'
p1011
aS'X-411146bd37fbfec33b51916cdfcd0769'
p1012
ag667
aS'X-4aa024ef7b8f00192ed292a93bc42102'
p1013
aS'X-1d000181a1aef5c78095d5318e51cd13'
p1014
ag724
aS'X-8af2a40a14740f820655fd2e1db78462'
p1015
aS'X-b4c60ba50987b346a2f64625d741cdb8'
p1016
ag685
ag7
aS'X-6b1839154bd96c14277684e5d24af5b0'
p1017
ag802
ag115
ag484
ag835
aS'X-cef57636f0440d1213ca142bdf283ee3'
p1018
aS'X-b69306d78b0597e94fea3ad02787721d'
p1019
ag358
aS'X-686e28ba629f8e536fdeea268ed4c300'
p1020
ag481
aS'X-87bb58b11ac5256807b6b8998e734bd7'
p1021
aS'X-bd69a7e05dedcb13d43b059b28ac3a46'
p1022
ag403
ag190
ag454
ag979
ag334
ag631
ag829
aS'X-22947d56385826070bc6e32b0297ace2'
p1023
ag91
ag709
ag676
ag298
ag46
ag124
ag520
aS'X-9b9ee2aa9a755f4d570d2214ece4acef'
p1024
aS'X-e5a8bbba613eb73d17faf469023624a4'
p1025
aS'X-f38b69337a9f75e2a6935f5823452202'
p1026
aS'X-0ae992d6e9110fd9f3f3bdbeaec53c37'
p1027
ag436
ag208
ag811
aS'X-83cba6df09478cfdb385ad0250bce9ad'
p1028
aS'X-cb962431bb9b6ca48b366f6b84925c9f'
p1029
aS'X-f4c707e1c40b8008d81c61bbf823124a'
p1030
aS'X-63bad9a565c2daeeb3baecb94449389b'
p1031
aS'X-7450fd6f768fccbafd3f874623e7e845'
p1032
ag1000
ag739
ag235
aS'X-61d272bcaa260eb5a68db9dcd3f0ad63'
p1033
ag850
ag82
ag673
ag145
aS'X-58e80aba5d27b89274b484d89df36de3'
p1034
aS'X-b1af22dd59790228013d68636d88baf4'
p1035
ag193
aS'X-3a4893d88e6ad5a625be00a185d5f2d9'
p1036
aS'X-efb12407dc0a9faf961ea14e9e66f38f'
p1037
aS'X-d4574fa9c249a1f9cce086b9a2f0c009'
p1038
ag391
ag76
ag748
ag568
aS'X-cb0004a3af6b72fabe12e512eb290358'
p1039
ag550
ag496
ag385
ag160
aS'X-9c432fc427c9df90bf6fbac6a878efdb'
p1040
ag754
aS'X-e534ed3a7c81ef2a0078c9bfb252963f'
p1041
ag517
ag22
ag112
aS'X-d1759e268bf667bfa10f5d7cdc72df64'
p1042
aS'X-041358651132934372174457013ccd31'
p1043
aS'X-024748be042270b143046e3a8fa90082'
p1044
ag721
aS'X-91968eaac6c06faab44757d3c3555e7b'
p1045
ag904
aS'X-a34e5d9aa39b8ff0671e21bffeeabcf6'
p1046
aS'X-9b277b3a4e3ed40a740a528ae42e46a3'
p1047
ag778
ag172
aS'X-a6566d38a16acc3f94dbd5a8a5f4c59b'
p1048
ag181
aS'X-01f4193b3d0c2b2f518cbf9ffd394cb6'
p1049
aS'X-ba4fccccd651f973cbe64a8cde3a90ad'
p1050
aS'X-e3ece23914e77dc3997073f4df32fa0d'
p1051
aS'X-4e67a65397169540e86adaa87ff84da7'
p1052
ag412
aS'X-cceafae261f6f497e0a48d1b463ecd11'
p1053
aS'X-2497b5ca7a25bfd2bf3878a31d74d1f0'
p1054
ag286
aS'X-09b7c2734e797499294d75ba1e657d95'
p1055
aS'X-93ca27c34a0a0bfd51d635294b49c306'
p1056
aS'X-67166cb9cecb6050435ff4c4dd7e29a3'
p1057
ag610
ag784
aS'X-22ec8e3c4dbd4929e09c4fd2b8c224f0'
p1058
aS'X-803ff339b1b4b9c838459077ffcccc35'
p1059
aS'X-82cca67efd7ec5ab825559c5123bb048'
p1060
aS'X-a3b9ed9758106a58e4fffd34ff7e7a3e'
p1061
aS'X-c7678e6ed61d8b764f0ddd82a07075fd'
p1062
ag970
aS'X-bed6133e2d4965d886262fc286412519'
p1063
ag688
ag178
ag361
ag493
ag862
ag499
ag316
aS'X-101fbc50bd7dc8fceac006117caf0eb6'
p1064
ag736
aS'X-7b3a33249a429d1a58b37aac9c85ca1e'
p1065
ag604
ag598
ag274
aS'X-e4182779eb59c8efc90fa545f956ce18'
p1066
aS'X-bf5301d9f66675521c734c08b9796cff'
p1067
aS'X-0a5159b1e2e290ea4a2657ec4420f8d4'
p1068
ag601
aS'X-70078dd9273e253ea0a19ae71a72ffbe'
p1069
ag730
aS'X-48715f154ee82b75083bbd1a2b633951'
p1070
ag169
ag760
ag16
aS'X-53eeade503b3fe6018be42929af64a2d'
p1071
ag817
aS'X-d042d94b4392928cc4c249ee9439c1ca'
p1072
ag52
ag253
ag373
aS'X-f1353b158cc84ca16b3e3d2e8699d87b'
p1073
aS'X-e91e1df0de49c396599c29aff5974417'
p1074
aS'X-f481703d7394dffe026e5fdf6d0684f6'
p1075
aS'X-f96c2af10b42b9bb18d743701cf34dd8'
p1076
ag442
ag994
aS'X-2dab044796a73831d1ba4f23c5a36ec0'
p1077
aS'X-c0568b161dce3575445be922fe4cb957'
p1078
ag787
ag127
ag880
aS'X-70c7a9ec6fd55205662dde568bd1ca2e'
p1079
ag73
aS'X-5d87b0c4e1cb02199a07c7de3def7e94'
p1080
ag640
ag910
aS'X-2e1e4d25fd9f550524d8f83c4f8a6684'
p1081
ag919
ag619
ag262
aS'X-be9d9654704faa9cf8b1c6b28d740639'
p1082
ag448
ag502
aS'X-5af6772131d44cb40400a69ffaf1ba4a'
p1083
aS'X-47834d48f00e6b6b336bc97c6c96ebdd'
p1084
ag856
aS'X-53c788b3947be5c25b582bb4defa5048'
p1085
ag931
aS'X-ced3b84741915e745223700020fc68cc'
p1086
aS'X-4714c0d914f4099bf5ef327da75b42b2'
p1087
ag394
aS'X-a7b315f8648cc1fb552fde2ecfdb8b53'
p1088
ag838
aS'X-75f929396793c6bb14179278b509ba60'
p1089
aS'X-71678bded35ddd4b8e79be805e73dd3d'
p1090
aS'X-1bdbac9650d37e9561f5e7725d5370de'
p1091
aS'X-69d70326e371d48675cf41dd6c82464f'
p1092
ag700
ag328
aS'X-8254d57fcb0635eebefbbad30b2c897d'
p1093
ag439
aS'X-bc832808c91bdf5a5626a86eeb433a86'
p1094
ag544
ag928
aS'X-98df003e95ca0541990b6ab351750d05'
p1095
ag232
aS'X-a62a03dfe293205047aed23511a8d7f8'
p1096
ag94
aS'X-2433182e08f766ff52dc60c980a74c3f'
p1097
aS'X-d0b14e55e9f5fc560ef586f97601bbe0'
p1098
aS'X-efd7fa9419b87b3c0d3c4153d4c1f353'
p1099
ag727
ag70
ag745
ag622
aS'X-03e91ef01089d3016eaba8c490b63a15'
p1100
aS'X-99db6671c72a7218d2b89ef1f09339dd'
p1101
ag229
ag421
ag580
ag514
ag751
ag775
aS'X-fe19aab7ecc55b0d4d7cf8fd34946998'
p1102
aS'X-744d268d2fbe03c63bbd54ae13c50009'
p1103
aS'X-4543fcbd023818c619be44d44c115d41'
p1104
aS'X-a5daea44fc1803b7b6d41fbc3bebaae5'
p1105
ag4
ag331
ag322
ag265
aS'X-955a3747dd640552557adce85025ec07'
p1106
ag364
aS'X-51fdcd4d1abfab41f2976908c6008c35'
p1107
ag661
aS'X-ccba794e7dd5b78980a3ef8e6d7bdd67'
p1108
ag664
ag223
ag508
ag865
aS'X-b42ac04400f649dbf07deb306f802657'
p1109
ag136
aS'X-be44106f92b9068aaae4acd4e938810b'
p1110
ag388
aS'X-0d3467153a5d6e0933cabeb48b0ad7ec'
p1111
ag67
aS'X-dc5ef84af3074264b9917641d0ad0f37'
p1112
aS'X-2b7cd8daefa81a26598de21ae35cef20'
p1113
ag892
ag433
ag49
aS'X-abc55ad1d89d5f1dbebe57bd10cbc3af'
p1114
ag355
ag31
ag325
aS'X-0177d1c9a941b9e7af005819d63f637c'
p1115
ag370
ag106
ag142
aS'X-091b010d5ac6f296e638bb5920156ca6'
p1116
aS'X-b00212c8cd1b2ce93864d93893bccb4a'
p1117
ag415
aS'X-d51942bc3247ea8d0893db257e2f1668'
p1118
aS'X-84d0041e5946b1117b6b005efc39a758'
p1119
ag382
aS'X-48e1da1f677145282164008e79d72a22'
p1120
ag859
ag409
ag472
ag103
ag511
ag241
aS'X-04f66412f99a222d2a5b09c35383cca1'
p1121
aS'X-7f6325962d283047c433dc3ed473cf36'
p1122
ag877
aS'X-7fa1c39cd1bdeb4bcb6641056a66608a'
p1123
ag139
aS'X-1e388bb19b5c010652dc457ecbe16e73'
p1124
aS'X-3fc9eaa0072a23eb2e201ce7fdeb2f2e'
p1125
ag85
aS'X-2fde65fb43ca6fc0b2186314b70d1ae4'
p1126
ag58
aS'X-633f136e1a7458476f5e3baad1105a6a'
p1127
ag946
aS'X-abaacffc64c968c756dc765ad9725b56'
p1128
aS'X-ab110067920555d99b30ec4f0029d95f'
p1129
ag319
ag901
aS'X-bf22cea85664816f7fff02bf3fbab3fe'
p1130
ag430
aS'X-75d30628f8a7228d70d917872c53d374'
p1131
aS'X-2c5fb86d796680eb0b36f12571598bf1'
p1132
ag154
ag868
ag889
ag445
aS'X-92392dd1c9163fb314b2df1e04627004'
p1133
aS'X-95447b99a6bcc1bd1daeff50e4d0792a'
p1134
ag922
ag397
ag166
ag220
aS'X-e9eaca53f9f8253e191f8dd87313d70a'
p1135
aS'X-14a990c7df3af32f85e79ffdcabd4d1e'
p1136
aS'X-f16b3f8a579c60051989f6977c558def'
p1137
ag679
ag376
ag925
aS'X-a5d4574ae387d0a2bcd8a5709cbf8c58'
p1138
ag820
aS'X-ed2b208b7ceb17b2778f6620ad7d882f'
p1139
aS'X-9e5e209dd156c003bb0ae7fcc1fa7fe8'
p1140
aS'X-8b15e574dc0c1c9cd8f8bfc8770f5909'
p1141
ag61
aS'X-894c176517aea0aa6d88a4a44c3ba85d'
p1142
ag814
aS'X-abb5de892a74c4e8294a0c3ff4f7dadf'
p1143
aS'X-08fb904667a8933b8d7e872594e154a6'
p1144
ag457
ag556
ag280
ag577
aS'X-97370be668c0451a4053418d6bf5ec03'
p1145
ag793
ag634
ag427
ag406
ag337
ag64
ag985
ag706
aS'X-b470b8973d028d7b62148f323bc31259'
p1146
ag295
ag961
ag460
ag367
ag451
aS'X-c01ebf1b70d4da3e63846ec6764746fd'
p1147
aS'X-1bfede4e0031ae6855003e1dafe72236'
p1148
ag715
ag652
aS'X-6a60f880ab99322c8324d9d5cfe3400a'
p1149
aS'X-4d791b7b0e486b6f7c638383f70a83e9'
p1150
ag163
aS'X-bb523a8c7173eb4819012a9506ba70cb'
p1151
ag997
aS'X-9ee843b64b6b1efb3ae9cdc0a39b461a'
p1152
aS'X-2036f706536468cfefee6f86123350f9'
p1153
aS'X-f4b4bfc68b0e49e3d78d88c9944d5883'
p1154
ag424
aS'X-2e9b36b19a8c24168f22084a0ba85e03'
p1155
ag478
aS'X-d75aa0cb6731db33791b53c0972f6134'
p1156
ag346
ag805
ag646
aS'X-89e6084891ce47c56f3baed8e1f2683a'
p1157
aS'X-7852261bdb442d328de93ae7800f5780'
p1158
aS'X-2fd18c91bdf7bc472b683b4f1b9c0024'
p1159
aS'X-064a805023f7085e90bb167e5242b5b1'
p1160
ag310
aS'X-03341ae680a9a0dcb3a168119d3a736d'
p1161
ag529
aS'X-add4ab5a342cdde93aff346a9a1c0836'
p1162
ag955
ag532
ag772
ag649
aS'X-293a5956281835d29d1dc22c89311617'
p1163
ag19
aS'X-732b2d6c1447b8d0a65debeff7f4cab3'
p1164
aS'X-a26b51f9dd5297b37e393ff0610c0dea'
p1165
aS'X-5ea98adda24458ea0473236da677e4dc'
p1166
ag943
ag658
ag301
ag907
aS'X-cc0fe832d2f47be1dd0c2b1a2b021a89'
p1167
ag916
aS'X-2f1d9ac4c6e9be335d7c62b53e700607'
p1168
aS'X-fa831b0ee1b0251db9e464a4f083105e'
p1169
ag28
aS'X-2f5f00e3cef4e32b63c8415f104b97ac'
p1170
ag655
aS'X-4ce66b0d14a609b0f2b34ff6ec76b14b'
p1171
aS'X-6ec6209b1908648eafa6ec9409cc7db5'
p1172
ag952
ag247
aS'X-012a660cbfbf5d0a9488ed7835bfe35f'
p1173
aS'X-9a2639b5d8b21c6fc855056f2a23ff59'
p1174
ag766
ag541
aS'X-9f8b1a648060816ac4bdbfd7e3612784'
p1175
ag670
aS'X-fc41c43210d1fb7b8f6e7d19046f4196'
p1176
aS'X-e4523c90bd5e93d52de50b864bfe4fc5'
p1177
aS'X-0b42487316a013da6a9fffb820f50eca'
p1178
ag307
aS'X-d701957208e417f5e42f1549f59466f7'
p1179
aS'X-5b8db37ecbb13ca9a57dddd0c3a36e82'
p1180
ag883
aS'X-ffeeb4efa01076ee35b913d530cb7275'
p1181
aS'X-58feda4a2d8504f97e425ff46edfe175'
p1182
ag277
ag463
ag184
aS'X-63d2c8aa7986a35f3005db308a75e101'
p1183
ag418
ag808
aS'X-2eb066eab3729d35e3311de2e32977c9'
p1184
ag637
aS'X-c693c15f81dac4da2ee9175b9367f481'
p1185
aS'X-c8d20734a25643e446d746d932d54574'
p1186
aS'X-914d4f84f1c5d2a0bdae26e48bfec5b8'
p1187
aS'X-68f73196411f052cfa860d049ae1d73e'
p1188
ag535
aS'X-acce4f1c64eec2b419636b9b2c9d3f79'
p1189
ag130
aS'X-5aff237df5f6df6d32934b7ce0f6aaa8'
p1190
aS'X-571220f5f59b26438860709c5432db05'
p1191
ag763
ag79
ag289
ag343
ag607
ag940
aS'X-24f82c68a1144e65f1a7b3767e703e94'
p1192
ag841
aS'X-5501e81e0450729ae6a540879298bfc1'
p1193
ag991
aS'X-c70625d3cb9aa9fe537f772ab1df446a'
p1194
ag217
ag1
ag718
ag538
ag256
ag937
ag592
ag487
ag313
ag490
ag40
ag148
ag211
aS'X-1de4b09cf3798883c351d976ae569822'
p1195
ag898
aS'X-5ccde6d5fffa0d9f0b3249cd2874deb1'
p1196
aS'X-d2434ab159c1f87f2be9efde2765e78b'
p1197
ag982
aS'X-9e2538893c2cbc6c8b2ef056a100d4fd'
p1198
aS'X-3bb4b45dd6bcbf161907fb7260781aea'
p1199
ag628
aS'X-70db75e5cc6b197454b4b28b2d2244b4'
p1200
ag271
ag400
aS'X-bc04b9468194c37fef2161c3489ace20'
p1201
aS'X-23d525b3d970136ce76f9f9b6e60c815'
p1202
aS'X-1d276e10394e677b9ef847d5b1261fa8'
p1203
aS'X-fd1aae71d6f94c11d5ebe5346c964e22'
p1204
ag874
aS'X-cd82f158e54199b482ee1c56ed187bae'
p1205
ag757
aS'X-b336e930faa8b434496b12dc792e3fdf'
p1206
aS'X-871d0ab133a42f70c0a54088370baaf4'
p1207
ag799
aS'X-7e82cff1e3653c9d71b8d060aea942ec'
p1208
ag712
aS'X-0e43f22e93c68c27311d3695b89da964'
p1209
ag205
ag682
aS'X-1ba4504bcb07eafe903a42889a666608'
p1210
aS'X-95e75cb6d5a8953ff0f9a8ce77ccbb57'
p1211
aS'X-e50bae6441e452dda2adafc599f56ab3'
p1212
ag832
ag733
ag244
ag826
aS'X-a9a2d90525bf5b9e2210b681e77732c7'
p1213
ag565
ag268
aS'X-2476d3065eb9c494754028163a808070'
p1214
ag475
aS'X-458cfdecacfa3482d723c4d4a48d304f'
p1215
ag844
ag505
ag250
aS'X-7669afc57b6742d1abb7777bf6c8fad9'
p1216
aS'X-da07855b96bb8df53ee8ce63bdee6205'
p1217
aS'X-8997d4a991ea8faa3bbdf5a5705fadc0'
p1218
ag625
ag10
ag583
ag913
ag586
ag781
aS'X-18fba06a78826325cdd9ddaa41f08b40'
p1219
ag853
ag559
ag469
ag847
aS'X-e025a173ee3369abd76e728d970dc7b0'
p1220
aS'X-a5f668eee036a09fb33993f858b92f35'
p1221
ag13
aS'X-07361150da3620c934e5e86d1c98d5b4'
p1222
ag571
aS'X-ad457eeff772a6f7d328589610f44800'
p1223
aS'X-f9dc4a724a268dc50f599d91414a25a8'
p1224
ag349
ag595
aS'X-fae0b27c451c728867a567e8c1bb4e53'
p1225
ag613
aS'X-c600d34de549b24c511f266e49d3f313'
p1226
ag157
aS'X-eaea9675923d10dd63afddff78b6b7bb'
p1227
ag790
ag202
aS'X-55a63864f49123de9fb4c63f2d6fd71c'
p1228
ag553
ag199
aS'X-9f9f41f100d8a9798853badad9ce2844'
p1229
aS'X-02075d62adbe66323c2270de2f3e90ea'
p1230
aS'X-e8f78a9a5e50cb831ffb24520462d264'
p1231
ag214
ag37
ag340
ag616
ag259
aS'X-675b3109586013e2e892e9fea4215ab9'
p1232
ag742
ag121
ag562
ag973
aS'X-b7ba37d022bdf89c0f9a99e063db1042'
p1233
ag34
aS'X-bea5c86c5f82ba107003a52f7aafe98e'
p1234
aS'X-f565044027f668b58d9085d3a948257a'
p1235
ag43
ag466
ag187
ag949
aS'X-efeccfb823a936433815585f821c69e3'
p1236
aS'X-8c072d555a96d29b7029bfb907d60868'
p1237
ag238
ag109
aS'X-4551c6f966869b1c8b1a2f278919eb4a'
p1238
aS'X-81d0c29c02e456f1268001b65e284cf5'
p1239
aS'X-60bdddd606b3187bfc2cb477a7314a96'
p1240
asg1186
(lp1241
S'22.3.2-7ea4921beff80e610ebf67cff4add312.raw,0.769230769231'
p1242
asg1098
(lp1243
S'22.3.2-7ea4921beff80e610ebf67cff4add312.raw,0.941176470588'
p1244
asg1137
(lp1245
S'22.3.2-7ea4921beff80e610ebf67cff4add312.raw,0.894160583942'
p1246
asg1036
(lp1247
S'22.3.2-7ea4921beff80e610ebf67cff4add312.raw,0.916083916084'
p1248
asg1125
(lp1249
S'22.3.2-7ea4921beff80e610ebf67cff4add312.raw,0.751879699248'
p1250
asS'X-d77359adaa134d4019b38e311df11c60'
p1251
(lp1252
S'22.3.2-7ea4921beff80e610ebf67cff4add312.raw,0.715384615385'
p1253
asg1009
(lp1254
S'22.3.2-7ea4921beff80e610ebf67cff4add312.raw,0.949275362319'
p1255
asg1010
(lp1256
S'22.3.2-7ea4921beff80e610ebf67cff4add312.raw,0.80701754386'
p1257
asg1008
(lp1258
S'22.3.2-7ea4921beff80e610ebf67cff4add312.raw,0.815476190476'
p1259
asg1175
(lp1260
S'22.3.2-7ea4921beff80e610ebf67cff4add312.raw,0.887029288703'
p1261
asg1165
(lp1262
S'22.3.2-7ea4921beff80e610ebf67cff4add312.raw,0.905405405405'
p1263
asg1035
(lp1264
S'22.3.2-7ea4921beff80e610ebf67cff4add312.raw,0.905405405405'
p1265
asg1194
(lp1266
S'22.3.2-7ea4921beff80e610ebf67cff4add312.raw,0.905405405405'
p1267
asS'X-679f666fddbd37901631b14b47376c35'
p1268
(lp1269
S'22.3.2-7ea4921beff80e610ebf67cff4add312.raw,0.891891891892'
p1270
asg1173
(lp1271
S'22.3.2-7ea4921beff80e610ebf67cff4add312.raw,0.940936863544'
p1272
asg1068
(lp1273
S'22.3.2-7ea4921beff80e610ebf67cff4add312.raw,0.91637630662'
p1274
asg1092
(lp1275
S'22.3.2-7ea4921beff80e610ebf67cff4add312.raw,0.94983277592'
p1276
asg1063
(lp1277
S'22.3.2-7ea4921beff80e610ebf67cff4add312.raw,0.891472868217'
p1278
asg1028
(lp1279
S'22.3.2-7ea4921beff80e610ebf67cff4add312.raw,0.848888888889'
p1280
asg1136
(lp1281
S'22.3.2-7ea4921beff80e610ebf67cff4add312.raw,0.903448275862'
p1282
asg1143
(lp1283
S'22.3.2-7ea4921beff80e610ebf67cff4add312.raw,0.77027027027'
p1284
asg1038
(lp1285
S'22.3.2-7ea4921beff80e610ebf67cff4add312.raw,0.905405405405'
p1286
asg1066
(lp1287
S'22.3.2-7ea4921beff80e610ebf67cff4add312.raw,0.878378378378'
p1288
asS'X-bea5f26719db054addd040694aa51da2'
p1289
(lp1290
S'22.3.2-7ea4921beff80e610ebf67cff4add312.raw,0.756756756757'
p1291
asg1046
(lp1292
S'22.3.2-7ea4921beff80e610ebf67cff4add312.raw,0.905405405405'
p1293
asg1114
(lp1294
S'22.3.2-7ea4921beff80e610ebf67cff4add312.raw,0.905405405405'
p1295
asg1086
(lp1296
S'22.3.2-7ea4921beff80e610ebf67cff4add312.raw,0.910034602076'
p1297
asS'X-03fad3803448b250bce237ac224bb81a'
p1298
(lp1299
S'22.3.2-7ea4921beff80e610ebf67cff4add312.raw,0.719696969697'
p1300
asS'X-b6ffeff674641a5095a1438019ecbe0c'
p1301
(lp1302
S'22.3.2-7ea4921beff80e610ebf67cff4add312.raw,0.683098591549'
p1303
asS'X-8bd9ecf43eecbf9a1d22953187ed1fac'
p1304
(lp1305
S'22.3.2-7ea4921beff80e610ebf67cff4add312.raw,0.761904761905'
p1306
asg1123
(lp1307
S'22.3.2-7ea4921beff80e610ebf67cff4add312.raw,0.912891986063'
p1308
asg1144
(lp1309
S'22.3.2-7ea4921beff80e610ebf67cff4add312.raw,0.733766233766'
p1310
asg1157
(lp1311
S'22.3.2-7ea4921beff80e610ebf67cff4add312.raw,0.885593220339'
p1312
asg1170
(lp1313
S'22.3.2-7ea4921beff80e610ebf67cff4add312.raw,0.923611111111'
p1314
asg1107
(lp1315
S'22.3.2-7ea4921beff80e610ebf67cff4add312.raw,0.920415224913'
p1316
asg1197
(lp1317
S'22.3.2-7ea4921beff80e610ebf67cff4add312.raw,0.822857142857'
p1318
asg1201
(lp1319
S'22.3.2-7ea4921beff80e610ebf67cff4add312.raw,0.878378378378'
p1320
asg1167
(lp1321
S'22.3.2-7ea4921beff80e610ebf67cff4add312.raw,0.764705882353'
p1322
asg1110
(lp1323
S'22.3.2-7ea4921beff80e610ebf67cff4add312.raw,0.861111111111'
p1324
asg1131
(lp1325
S'22.3.2-7ea4921beff80e610ebf67cff4add312.raw,0.915492957746'
p1326
asS'X-c7f8932f90da8b029157fe1a56d1975c'
p1327
(lp1328
S'22.3.2-7ea4921beff80e610ebf67cff4add312.raw,0.705882352941'
p1329
asg1108
(lp1330
S'22.3.2-7ea4921beff80e610ebf67cff4add312.raw,0.913793103448'
p1331
asg1180
(lp1332
S'22.3.2-7ea4921beff80e610ebf67cff4add312.raw,0.941532258065'
p1333
asg1116
(lp1334
S'22.3.2-7ea4921beff80e610ebf67cff4add312.raw,0.732026143791'
p1335
asg1087
(lp1336
S'22.3.2-7ea4921beff80e610ebf67cff4add312.raw,0.75'
p1337
asg1105
(lp1338
S'22.3.2-7ea4921beff80e610ebf67cff4add312.raw,0.89667896679'
p1339
asg1163
(lp1340
S'22.3.2-7ea4921beff80e610ebf67cff4add312.raw,0.786206896552'
p1341
asg1049
(lp1342
S'22.3.2-7ea4921beff80e610ebf67cff4add312.raw,0.776315789474'
p1343
asg1106
(lp1344
S'22.3.2-7ea4921beff80e610ebf67cff4add312.raw,0.914089347079'
p1345
asg1064
(lp1346
S'22.3.2-7ea4921beff80e610ebf67cff4add312.raw,0.912891986063'
p1347
asS'X-4614d92cb575ea0c113c799aa388bd20'
p1348
(lp1349
S'22.3.2-7ea4921beff80e610ebf67cff4add312.raw,0.756756756757'
p1350
asS'X-f363ab6a9f0231f6ae27ad8d12390396'
p1351
(lp1352
S'22.3.2-7ea4921beff80e610ebf67cff4add312.raw,0.761904761905'
p1353
asS'X-4af55923a89f444d88c0deb9325b31a1'
p1354
(lp1355
S'22.3.2-7ea4921beff80e610ebf67cff4add312.raw,0.746666666667'
p1356
asg1070
(lp1357
S'22.3.2-7ea4921beff80e610ebf67cff4add312.raw,0.791366906475'
p1358
asg1065
(lp1359
S'22.3.2-7ea4921beff80e610ebf67cff4add312.raw,0.905405405405'
p1360
asg1095
(lp1361
S'22.3.2-7ea4921beff80e610ebf67cff4add312.raw,0.890625'
p1362
asg1126
(lp1363
S'22.3.2-7ea4921beff80e610ebf67cff4add312.raw,1.0'
p1364
asg1051
(lp1365
S'22.3.2-7ea4921beff80e610ebf67cff4add312.raw,0.897810218978'
p1366
asS'X-54fd34514b136e3fbc86b87ac285a3c1'
p1367
(lp1368
S'22.3.2-7ea4921beff80e610ebf67cff4add312.raw,0.728682170543'
p1369
asg1141
(lp1370
S'22.3.2-7ea4921beff80e610ebf67cff4add312.raw,0.905405405405'
p1371
asg1193
(lp1372
S'22.3.2-7ea4921beff80e610ebf67cff4add312.raw,0.898550724638'
p1373
asg1221
(lp1374
S'22.3.2-7ea4921beff80e610ebf67cff4add312.raw,0.913793103448'
p1375
asg1053
(lp1376
S'22.3.2-7ea4921beff80e610ebf67cff4add312.raw,0.941767068273'
p1377
asg1222
(lp1378
S'22.3.2-7ea4921beff80e610ebf67cff4add312.raw,0.90625'
p1379
asg1139
(lp1380
S'22.3.2-7ea4921beff80e610ebf67cff4add312.raw,0.9375'
p1381
asg1132
(lp1382
S'22.3.2-7ea4921beff80e610ebf67cff4add312.raw,0.781456953642'
p1383
asg1182
(lp1384
S'22.3.2-7ea4921beff80e610ebf67cff4add312.raw,0.917525773196'
p1385
asg1142
(lp1386
S'22.3.2-7ea4921beff80e610ebf67cff4add312.raw,0.913194444444'
p1387
asg1109
(lp1388
S'22.3.2-7ea4921beff80e610ebf67cff4add312.raw,0.891891891892'
p1389
asg1071
(lp1390
S'22.3.2-7ea4921beff80e610ebf67cff4add312.raw,0.719008264463'
p1391
asg1227
(lp1392
S'22.3.2-7ea4921beff80e610ebf67cff4add312.raw,0.897260273973'
p1393
asg1088
(lp1394
S'22.3.2-7ea4921beff80e610ebf67cff4add312.raw,0.916083916084'
p1395
asg1029
(lp1396
S'22.3.2-7ea4921beff80e610ebf67cff4add312.raw,0.914089347079'
p1397
asg1192
(lp1398
S'22.3.2-7ea4921beff80e610ebf67cff4add312.raw,0.644736842105'
p1399
asg1118
(lp1400
S'22.3.2-7ea4921beff80e610ebf67cff4add312.raw,0.7375'
p1401
asg1113
(lp1402
S'22.3.2-7ea4921beff80e610ebf67cff4add312.raw,0.890756302521'
p1403
asg1085
(lp1404
S'22.3.2-7ea4921beff80e610ebf67cff4add312.raw,0.847133757962'
p1405
asg1184
(lp1406
S'22.3.2-7ea4921beff80e610ebf67cff4add312.raw,0.91095890411'
p1407
asg1166
(lp1408
S'22.3.2-7ea4921beff80e610ebf67cff4add312.raw,0.905405405405'
p1409
asg1216
(lp1410
S'22.3.2-7ea4921beff80e610ebf67cff4add312.raw,0.888059701493'
p1411
asg1061
(lp1412
S'22.3.2-7ea4921beff80e610ebf67cff4add312.raw,0.815217391304'
p1413
asg1181
(lp1414
S'22.3.2-7ea4921beff80e610ebf67cff4add312.raw,0.81976744186'
p1415
asS'X-8ecb7d7af5ff8a8dfd33c5a8b19bac8f'
p1416
(lp1417
S'22.3.2-7ea4921beff80e610ebf67cff4add312.raw,0.68345323741'
p1418
asg1056
(lp1419
S'22.3.2-7ea4921beff80e610ebf67cff4add312.raw,0.784615384615'
p1420
asg1225
(lp1421
S'22.3.2-7ea4921beff80e610ebf67cff4add312.raw,0.891891891892'
p1422
asg1146
(lp1423
S'22.3.2-7ea4921beff80e610ebf67cff4add312.raw,0.753333333333'
p1424
asS'X-b3f70814b7b6474f21b061b9e6a2dd5d'
p1425
(lp1426
S'22.3.2-7ea4921beff80e610ebf67cff4add312.raw,0.732824427481'
p1427
asg1076
(lp1428
S'22.3.2-7ea4921beff80e610ebf67cff4add312.raw,0.727272727273'
p1429
asg1093
(lp1430
S'22.3.2-7ea4921beff80e610ebf67cff4add312.raw,0.910034602076'
p1431
asg1062
(lp1432
S'22.3.2-7ea4921beff80e610ebf67cff4add312.raw,0.887029288703'
p1433
asS'X-afe08efaba8ea3a2a8ecf8045db248db'
p1434
(lp1435
S'22.3.2-7ea4921beff80e610ebf67cff4add312.raw,0.760273972603'
p1436
asg1091
(lp1437
S'22.3.2-7ea4921beff80e610ebf67cff4add312.raw,0.717948717949'
p1438
asg1133
(lp1439
S'22.3.2-7ea4921beff80e610ebf67cff4add312.raw,0.942638623327'
p1440
asg1089
(lp1441
S'22.3.2-7ea4921beff80e610ebf67cff4add312.raw,0.802469135802'
p1442
asg1179
(lp1443
S'22.3.2-7ea4921beff80e610ebf67cff4add312.raw,0.823529411765'
p1444
asg1217
(lp1445
S'22.3.2-7ea4921beff80e610ebf67cff4add312.raw,0.824390243902'
p1446
asg1022
(lp1447
S'22.3.2-7ea4921beff80e610ebf67cff4add312.raw,0.920689655172'
p1448
asg1148
(lp1449
S'22.3.2-7ea4921beff80e610ebf67cff4add312.raw,0.788461538462'
p1450
asS'X-78fcb2f3eb19826cf6a0ac2e787ac913'
p1451
(lp1452
S'22.3.2-7ea4921beff80e610ebf67cff4add312.raw,0.676258992806'
p1453
asS'X-04bd10f48ea55f9bc668e9621aa806d5'
p1454
(lp1455
S'22.3.2-7ea4921beff80e610ebf67cff4add312.raw,0.756756756757'
p1456
asg1155
(lp1457
S'22.3.2-7ea4921beff80e610ebf67cff4add312.raw,0.914383561644'
p1458
asg1149
(lp1459
S'22.3.2-7ea4921beff80e610ebf67cff4add312.raw,0.763513513514'
p1460
asg1052
(lp1461
S'22.3.2-7ea4921beff80e610ebf67cff4add312.raw,0.892592592593'
p1462
asg1190
(lp1463
S'22.3.2-7ea4921beff80e610ebf67cff4add312.raw,0.819209039548'
p1464
asg1237
(lp1465
S'22.3.2-7ea4921beff80e610ebf67cff4add312.raw,0.920138888889'
p1466
asg1034
(lp1467
S'22.3.2-7ea4921beff80e610ebf67cff4add312.raw,0.820224719101'
p1468
asS'X-6fde343034337c3f219b1efda5145b67'
p1469
(lp1470
S'22.3.2-7ea4921beff80e610ebf67cff4add312.raw,0.736434108527'
p1471
asS'X-4cacf6ab7717e73441efc30f797fd387'
p1472
(lp1473
S'22.3.2-7ea4921beff80e610ebf67cff4add312.raw,0.756756756757'
p1474
asg1027
(lp1475
S'22.3.2-7ea4921beff80e610ebf67cff4add312.raw,0.891891891892'
p1476
asg1238
(lp1477
S'22.3.2-7ea4921beff80e610ebf67cff4add312.raw,0.772727272727'
p1478
asg1032
(lp1479
S'22.3.2-7ea4921beff80e610ebf67cff4add312.raw,0.898550724638'
p1480
asg1115
(lp1481
S'22.3.2-7ea4921beff80e610ebf67cff4add312.raw,0.943548387097'
p1482
asg1154
(lp1483
S'22.3.2-7ea4921beff80e610ebf67cff4add312.raw,0.905405405405'
p1484
asg1031
(lp1485
S'22.3.2-7ea4921beff80e610ebf67cff4add312.raw,0.829545454545'
p1486
asg1202
(lp1487
S'22.3.2-7ea4921beff80e610ebf67cff4add312.raw,0.777777777778'
p1488
asg1059
(lp1489
S'22.3.2-7ea4921beff80e610ebf67cff4add312.raw,0.945344129555'
p1490
asg1224
(lp1491
S'22.3.2-7ea4921beff80e610ebf67cff4add312.raw,0.899159663866'
p1492
asg1073
(lp1493
S'22.3.2-7ea4921beff80e610ebf67cff4add312.raw,0.910652920962'
p1494
asg1023
(lp1495
S'22.3.2-7ea4921beff80e610ebf67cff4add312.raw,0.820987654321'
p1496
asg1210
(lp1497
S'22.3.2-7ea4921beff80e610ebf67cff4add312.raw,0.808383233533'
p1498
asg1240
(lp1499
S'22.3.2-7ea4921beff80e610ebf67cff4add312.raw,0.905405405405'
p1500
asg1199
(lp1501
S'22.3.2-7ea4921beff80e610ebf67cff4add312.raw,0.907936507937'
p1502
asg1213
(lp1503
S'22.3.2-7ea4921beff80e610ebf67cff4add312.raw,0.770700636943'
p1504
asS'X-769fe718c8c4d7ce735b02323b301fa2'
p1505
(lp1506
S'22.3.2-7ea4921beff80e610ebf67cff4add312.raw,0.734848484848'
p1507
asg1211
(lp1508
S'22.3.2-7ea4921beff80e610ebf67cff4add312.raw,0.897435897436'
p1509
asg1090
(lp1510
S'22.3.2-7ea4921beff80e610ebf67cff4add312.raw,0.77027027027'
p1511
asg1033
(lp1512
S'22.3.2-7ea4921beff80e610ebf67cff4add312.raw,0.947368421053'
p1513
asg1177
(lp1514
S'22.3.2-7ea4921beff80e610ebf67cff4add312.raw,0.943319838057'
p1515
asg1129
(lp1516
S'22.3.2-7ea4921beff80e610ebf67cff4add312.raw,0.816091954023'
p1517
asg1127
(lp1518
S'22.3.2-7ea4921beff80e610ebf67cff4add312.raw,0.919014084507'
p1519
asS'X-e5f14011fb325cdbfc569aea683180b3'
p1520
(lp1521
S'22.3.2-7ea4921beff80e610ebf67cff4add312.raw,0.761904761905'
p1522
asg1104
(lp1523
S'22.3.2-7ea4921beff80e610ebf67cff4add312.raw,0.896551724138'
p1524
asS'X-c21ba620aef16977332cca54020c40a5'
p1525
(lp1526
S'22.3.2-7ea4921beff80e610ebf67cff4add312.raw,0.683098591549'
p1527
asg1220
(lp1528
S'22.3.2-7ea4921beff80e610ebf67cff4add312.raw,0.910034602076'
p1529
asg1007
(lp1530
S'22.3.2-7ea4921beff80e610ebf67cff4add312.raw,0.896551724138'
p1531
asg1223
(lp1532
S'22.3.2-7ea4921beff80e610ebf67cff4add312.raw,0.943661971831'
p1533
asg1024
(lp1534
S'22.3.2-7ea4921beff80e610ebf67cff4add312.raw,0.905405405405'
p1535
asg1020
(lp1536
S'22.3.2-7ea4921beff80e610ebf67cff4add312.raw,0.758169934641'
p1537
asg1119
(lp1538
S'22.3.2-7ea4921beff80e610ebf67cff4add312.raw,0.898181818182'
p1539
asg1176
(lp1540
S'22.3.2-7ea4921beff80e610ebf67cff4add312.raw,0.77027027027'
p1541
asg1097
(lp1542
S'22.3.2-7ea4921beff80e610ebf67cff4add312.raw,0.909090909091'
p1543
asg1096
(lp1544
S'22.3.2-7ea4921beff80e610ebf67cff4add312.raw,0.764705882353'
p1545
asg1043
(lp1546
S'22.3.2-7ea4921beff80e610ebf67cff4add312.raw,0.816666666667'
p1547
asg1230
(lp1548
S'22.3.2-7ea4921beff80e610ebf67cff4add312.raw,0.910652920962'
p1549
asg1158
(lp1550
S'22.3.2-7ea4921beff80e610ebf67cff4add312.raw,0.912587412587'
p1551
asg1169
(lp1552
S'22.3.2-7ea4921beff80e610ebf67cff4add312.raw,0.913494809689'
p1553
asg1140
(lp1554
S'22.3.2-7ea4921beff80e610ebf67cff4add312.raw,0.905405405405'
p1555
asg1018
(lp1556
S'22.3.2-7ea4921beff80e610ebf67cff4add312.raw,0.891891891892'
p1557
asg1079
(lp1558
S'22.3.2-7ea4921beff80e610ebf67cff4add312.raw,0.898876404494'
p1559
asS'X-ce071e701810a9442e71062899c74145'
p1560
(lp1561
S'22.3.2-7ea4921beff80e610ebf67cff4add312.raw,0.719696969697'
p1562
asg1015
(lp1563
S'22.3.2-7ea4921beff80e610ebf67cff4add312.raw,0.735099337748'
p1564
asg1145
(lp1565
S'22.3.2-7ea4921beff80e610ebf67cff4add312.raw,0.945674044266'
p1566
asg1188
(lp1567
S'22.3.2-7ea4921beff80e610ebf67cff4add312.raw,0.754966887417'
p1568
asg1017
(lp1569
S'22.3.2-7ea4921beff80e610ebf67cff4add312.raw,0.905405405405'
p1570
asg1206
(lp1571
S'22.3.2-7ea4921beff80e610ebf67cff4add312.raw,0.845132743363'
p1572
asg1124
(lp1573
S'22.3.2-7ea4921beff80e610ebf67cff4add312.raw,0.911262798635'
p1574
asS'X-44f423f66c869f4c9015eb9004051d64'
p1575
(lp1576
S'22.3.2-7ea4921beff80e610ebf67cff4add312.raw,0.706766917293'
p1577
asg1074
(lp1578
S'22.3.2-7ea4921beff80e610ebf67cff4add312.raw,0.947368421053'
p1579
asg1233
(lp1580
S'22.3.2-7ea4921beff80e610ebf67cff4add312.raw,0.905405405405'
p1581
asg1183
(lp1582
S'22.3.2-7ea4921beff80e610ebf67cff4add312.raw,0.909722222222'
p1583
asg1171
(lp1584
S'22.3.2-7ea4921beff80e610ebf67cff4add312.raw,0.774193548387'
p1585
asg1016
(lp1586
S'22.3.2-7ea4921beff80e610ebf67cff4add312.raw,0.890365448505'
p1587
asg1078
(lp1588
S'22.3.2-7ea4921beff80e610ebf67cff4add312.raw,0.870848708487'
p1589
asg1047
(lp1590
S'22.3.2-7ea4921beff80e610ebf67cff4add312.raw,0.906896551724'
p1591
asg1122
(lp1592
S'22.3.2-7ea4921beff80e610ebf67cff4add312.raw,0.826589595376'
p1593
asg1080
(lp1594
S'22.3.2-7ea4921beff80e610ebf67cff4add312.raw,0.891891891892'
p1595
asg1164
(lp1596
S'22.3.2-7ea4921beff80e610ebf67cff4add312.raw,0.909407665505'
p1597
asg1160
(lp1598
S'22.3.2-7ea4921beff80e610ebf67cff4add312.raw,0.905405405405'
p1599
asS'X-925184f7d7067a634558133ce6036c08'
p1600
(lp1601
S'22.3.2-7ea4921beff80e610ebf67cff4add312.raw,0.68115942029'
p1602
asg1209
(lp1603
S'22.3.2-7ea4921beff80e610ebf67cff4add312.raw,0.913793103448'
p1604
asg1054
(lp1605
S'22.3.2-7ea4921beff80e610ebf67cff4add312.raw,0.919881305638'
p1606
asg1212
(lp1607
S'22.3.2-7ea4921beff80e610ebf67cff4add312.raw,0.706422018349'
p1608
asS'X-638edba5c6c2d8da326d35b8415980a8'
p1609
(lp1610
S'22.3.2-7ea4921beff80e610ebf67cff4add312.raw,0.722222222222'
p1611
asg1021
(lp1612
S'22.3.2-7ea4921beff80e610ebf67cff4add312.raw,0.914383561644'
p1613
asg1042
(lp1614
S'22.3.2-7ea4921beff80e610ebf67cff4add312.raw,0.787878787879'
p1615
asg1006
(lp1616
S'22.3.2-7ea4921beff80e610ebf67cff4add312.raw,0.912891986063'
p1617
asg1218
(lp1618
S'22.3.2-7ea4921beff80e610ebf67cff4add312.raw,0.88'
p1619
asS'X-bbbca3173ffc2f614681a3ff0803ba1f'
p1620
(lp1621
S'22.3.2-7ea4921beff80e610ebf67cff4add312.raw,0.75'
p1622
asg1037
(lp1623
S'22.3.2-7ea4921beff80e610ebf67cff4add312.raw,0.945454545455'
p1624
asS'X-5403992b14e29feed7ff2bf8b6ffa7b9'
p1625
(lp1626
S'22.3.2-7ea4921beff80e610ebf67cff4add312.raw,0.728682170543'
p1627
asg1162
(lp1628
S'22.3.2-7ea4921beff80e610ebf67cff4add312.raw,0.906574394464'
p1629
asg1130
(lp1630
S'22.3.2-7ea4921beff80e610ebf67cff4add312.raw,0.905405405405'
p1631
asg1207
(lp1632
S'22.3.2-7ea4921beff80e610ebf67cff4add312.raw,0.905405405405'
p1633
asg1048
(lp1634
S'22.3.2-7ea4921beff80e610ebf67cff4add312.raw,0.906896551724'
p1635
asg1195
(lp1636
S'22.3.2-7ea4921beff80e610ebf67cff4add312.raw,0.910034602076'
p1637
asS'X-cf56afef560a1e116973d9153cf713e9'
p1638
(lp1639
S'22.3.2-7ea4921beff80e610ebf67cff4add312.raw,0.683098591549'
p1640
asg1067
(lp1641
S'22.3.2-7ea4921beff80e610ebf67cff4add312.raw,0.905405405405'
p1642
asg1044
(lp1643
S'22.3.2-7ea4921beff80e610ebf67cff4add312.raw,0.813186813187'
p1644
asg1013
(lp1645
S'22.3.2-7ea4921beff80e610ebf67cff4add312.raw,0.900735294118'
p1646
asg1234
(lp1647
S'22.3.2-7ea4921beff80e610ebf67cff4add312.raw,0.75'
p1648
asg1153
(lp1649
S'22.3.2-7ea4921beff80e610ebf67cff4add312.raw,0.868'
p1650
asg1102
(lp1651
S'22.3.2-7ea4921beff80e610ebf67cff4add312.raw,0.927461139896'
p1652
asg1215
(lp1653
S'22.3.2-7ea4921beff80e610ebf67cff4add312.raw,0.751633986928'
p1654
asg1084
(lp1655
S'22.3.2-7ea4921beff80e610ebf67cff4add312.raw,0.913494809689'
p1656
asg1039
(lp1657
S'22.3.2-7ea4921beff80e610ebf67cff4add312.raw,0.76875'
p1658
asS'X-b2951ecf331e30c4f67b8c9619e98762'
p1659
(lp1660
S'22.3.2-7ea4921beff80e610ebf67cff4add312.raw,0.683098591549'
p1661
asg1185
(lp1662
S'22.3.2-7ea4921beff80e610ebf67cff4add312.raw,0.756756756757'
p1663
asg1198
(lp1664
S'22.3.2-7ea4921beff80e610ebf67cff4add312.raw,0.81976744186'
p1665
asg1196
(lp1666
S'22.3.2-7ea4921beff80e610ebf67cff4add312.raw,0.939516129032'
p1667
asg1060
(lp1668
S'22.3.2-7ea4921beff80e610ebf67cff4add312.raw,0.830508474576'
p1669
asg1204
(lp1670
S'22.3.2-7ea4921beff80e610ebf67cff4add312.raw,0.947841726619'
p1671
asg1072
(lp1672
S'22.3.2-7ea4921beff80e610ebf67cff4add312.raw,0.91637630662'
p1673
asg1174
(lp1674
S'22.3.2-7ea4921beff80e610ebf67cff4add312.raw,0.766666666667'
p1675
asg1075
(lp1676
S'22.3.2-7ea4921beff80e610ebf67cff4add312.raw,0.807106598985'
p1677
asg1026
(lp1678
S'22.3.2-7ea4921beff80e610ebf67cff4add312.raw,0.802469135802'
p1679
asg1111
(lp1680
S'22.3.2-7ea4921beff80e610ebf67cff4add312.raw,0.860377358491'
p1681
asg1103
(lp1682
S'22.3.2-7ea4921beff80e610ebf67cff4add312.raw,0.746835443038'
p1683
asg1138
(lp1684
S'22.3.2-7ea4921beff80e610ebf67cff4add312.raw,0.894545454545'
p1685
asg1019
(lp1686
S'22.3.2-7ea4921beff80e610ebf67cff4add312.raw,0.898181818182'
p1687
asg1041
(lp1688
S'22.3.2-7ea4921beff80e610ebf67cff4add312.raw,0.905405405405'
p1689
asg1168
(lp1690
S'22.3.2-7ea4921beff80e610ebf67cff4add312.raw,0.905405405405'
p1691
asg1151
(lp1692
S'22.3.2-7ea4921beff80e610ebf67cff4add312.raw,0.913194444444'
p1693
asg1128
(lp1694
S'22.3.2-7ea4921beff80e610ebf67cff4add312.raw,0.913494809689'
p1695
asg1050
(lp1696
S'22.3.2-7ea4921beff80e610ebf67cff4add312.raw,0.905405405405'
p1697
asg1228
(lp1698
S'22.3.2-7ea4921beff80e610ebf67cff4add312.raw,0.790697674419'
p1699
asg1099
(lp1700
S'22.3.2-7ea4921beff80e610ebf67cff4add312.raw,0.89010989011'
p1701
asg1161
(lp1702
S'22.3.2-7ea4921beff80e610ebf67cff4add312.raw,0.832487309645'
p1703
asg1205
(lp1704
S'22.3.2-7ea4921beff80e610ebf67cff4add312.raw,0.793548387097'
p1705
asg1005
(lp1706
S'22.3.2-7ea4921beff80e610ebf67cff4add312.raw,0.916955017301'
p1707
asg1083
(lp1708
S'22.3.2-7ea4921beff80e610ebf67cff4add312.raw,0.771812080537'
p1709
asg1040
(lp1710
S'22.3.2-7ea4921beff80e610ebf67cff4add312.raw,0.906574394464'
p1711
asg1191
(lp1712
S'22.3.2-7ea4921beff80e610ebf67cff4add312.raw,0.912587412587'
p1713
asg1077
(lp1714
S'22.3.2-7ea4921beff80e610ebf67cff4add312.raw,0.822857142857'
p1715
asg1112
(lp1716
S'22.3.2-7ea4921beff80e610ebf67cff4add312.raw,0.909722222222'
p1717
asg1236
(lp1718
S'22.3.2-7ea4921beff80e610ebf67cff4add312.raw,0.9'
p1719
asg1226
(lp1720
S'22.3.2-7ea4921beff80e610ebf67cff4add312.raw,0.943434343434'
p1721
asg1101
(lp1722
S'22.3.2-7ea4921beff80e610ebf67cff4add312.raw,0.913194444444'
p1723
asg1014
(lp1724
S'22.3.2-7ea4921beff80e610ebf67cff4add312.raw,0.78'
p1725
asS'X-c69065f1942b7dbc1fb9d9c1ffb44796'
p1726
(lp1727
S'22.3.2-7ea4921beff80e610ebf67cff4add312.raw,0.717557251908'
p1728
asg1150
(lp1729
S'22.3.2-7ea4921beff80e610ebf67cff4add312.raw,0.761589403974'
p1730
asg1200
(lp1731
S'22.3.2-7ea4921beff80e610ebf67cff4add312.raw,0.902877697842'
p1732
asg1011
(lp1733
S'22.3.2-7ea4921beff80e610ebf67cff4add312.raw,0.910034602076'
p1734
asg1231
(lp1735
S'22.3.2-7ea4921beff80e610ebf67cff4add312.raw,0.837696335079'
p1736
asS'X-e3173170378f294fecea500ee36f978c'
p1737
(lp1738
S'22.3.2-7ea4921beff80e610ebf67cff4add312.raw,0.824324324324'
p1739
asg1152
(lp1740
S'22.3.2-7ea4921beff80e610ebf67cff4add312.raw,0.764331210191'
p1741
asg1219
(lp1742
S'22.3.2-7ea4921beff80e610ebf67cff4add312.raw,0.90625'
p1743
asg1189
(lp1744
S'22.3.2-7ea4921beff80e610ebf67cff4add312.raw,0.891891891892'
p1745
asg1239
(lp1746
S'22.3.2-7ea4921beff80e610ebf67cff4add312.raw,0.76821192053'
p1747
asg1082
(lp1748
S'22.3.2-7ea4921beff80e610ebf67cff4add312.raw,0.907216494845'
p1749
asg1229
(lp1750
S'22.3.2-7ea4921beff80e610ebf67cff4add312.raw,0.913494809689'
p1751
asg1172
(lp1752
S'22.3.2-7ea4921beff80e610ebf67cff4add312.raw,0.902621722846'
p1753
asg1025
(lp1754
S'22.3.2-7ea4921beff80e610ebf67cff4add312.raw,0.878151260504'
p1755
asg1203
(lp1756
S'22.3.2-7ea4921beff80e610ebf67cff4add312.raw,0.91095890411'
p1757
asg1094
(lp1758
S'22.3.2-7ea4921beff80e610ebf67cff4add312.raw,0.77027027027'
p1759
asg1081
(lp1760
S'22.3.2-7ea4921beff80e610ebf67cff4add312.raw,0.851528384279'
p1761
asg1057
(lp1762
S'22.3.2-7ea4921beff80e610ebf67cff4add312.raw,0.900735294118'
p1763
asS'X-0d7848ef3f5db9ac7665ab34690e8d0d'
p1764
(lp1765
S'22.3.2-7ea4921beff80e610ebf67cff4add312.raw,0.756756756757'
p1766
asg1030
(lp1767
S'22.3.2-7ea4921beff80e610ebf67cff4add312.raw,0.910652920962'
p1768
asg1069
(lp1769
S'22.3.2-7ea4921beff80e610ebf67cff4add312.raw,0.878378378378'
p1770
asg1045
(lp1771
S'22.3.2-7ea4921beff80e610ebf67cff4add312.raw,0.897435897436'
p1772
asg1208
(lp1773
S'22.3.2-7ea4921beff80e610ebf67cff4add312.raw,0.825870646766'
p1774
asg1156
(lp1775
S'22.3.2-7ea4921beff80e610ebf67cff4add312.raw,0.91724137931'
p1776
asg1055
(lp1777
S'22.3.2-7ea4921beff80e610ebf67cff4add312.raw,0.905405405405'
p1778
asS'X-05a6173bf1df05e6da48c88153f01be9'
p1779
(lp1780
S'22.3.2-7ea4921beff80e610ebf67cff4add312.raw,0.730769230769'
p1781
asg1134
(lp1782
S'22.3.2-7ea4921beff80e610ebf67cff4add312.raw,0.911262798635'
p1783
asg1214
(lp1784
S'22.3.2-7ea4921beff80e610ebf67cff4add312.raw,0.951423785595'
p1785
asg1117
(lp1786
S'22.3.2-7ea4921beff80e610ebf67cff4add312.raw,0.897058823529'
p1787
asg1232
(lp1788
S'22.3.2-7ea4921beff80e610ebf67cff4add312.raw,0.774834437086'
p1789
asg1159
(lp1790
S'22.3.2-7ea4921beff80e610ebf67cff4add312.raw,0.882113821138'
p1791
asg1120
(lp1792
S'22.3.2-7ea4921beff80e610ebf67cff4add312.raw,0.987272727273'
p1793
asg1147
(lp1794
S'22.3.2-7ea4921beff80e610ebf67cff4add312.raw,0.916955017301'
p1795
asg1187
(lp1796
S'22.3.2-7ea4921beff80e610ebf67cff4add312.raw,0.905923344948'
p1797
asg1012
(lp1798
S'22.3.2-7ea4921beff80e610ebf67cff4add312.raw,0.914089347079'
p1799
asg1100
(lp1800
S'22.3.2-7ea4921beff80e610ebf67cff4add312.raw,0.913194444444'
p1801
asg1121
(lp1802
S'22.3.2-7ea4921beff80e610ebf67cff4add312.raw,0.834123222749'
p1803
asg1235
(lp1804
S'22.3.2-7ea4921beff80e610ebf67cff4add312.raw,0.907849829352'
p1805
asg1135
(lp1806
S'22.3.2-7ea4921beff80e610ebf67cff4add312.raw,0.807453416149'
p1807
asg1058
(lp1808
S'22.3.2-7ea4921beff80e610ebf67cff4add312.raw,0.894160583942'
p1809
asg1178
(lp1810
S'22.3.2-7ea4921beff80e610ebf67cff4add312.raw,0.916083916084'
p1811
as.