(dp0
S'18-fe5e8c1bd8291d61eaeb791821a20885.raw'
p1
(lp2
S'18-9d484817327e5204821c4e6f1443325f.raw,0.817258883249'
p3
asS'6.2-b6928a9b23914dd4576c42f8e1283a15.raw'
p4
(lp5
S'6.1.2-eff838940f72ba3f05c25b6e82196862.raw,0.86820083682'
p6
asS'5.2-5a63cd881fbb0e8e949435af162f66a1.raw'
p7
(lp8
S'5.3-718a9b08a38c979146cece8ff674ecd2.raw,0.99609375'
p9
asS'18-4e3bcaa89a686ce1506cad15213ca37f.raw'
p10
(lp11
S'18-9d484817327e5204821c4e6f1443325f.raw,0.824873096447'
p12
asS'18-ad82c7ae9ac6e8fe687bd1564874c72c.raw'
p13
(lp14
S'18-9d484817327e5204821c4e6f1443325f.raw,0.815189873418'
p15
asS'14.1.2-29303771b81258c99d79d852ad1bb56d.raw'
p16
(lp17
S'14.6-5c8c0cf8755b027234eb50717723113e.raw,0.848549946294'
p18
asS'18-ec9d093dcc76aa1b0e7fc85fe1d4908a.raw'
p19
(lp20
S'18-9d484817327e5204821c4e6f1443325f.raw,0.812332439678'
p21
asS'14.6-76e8f6f9bd06d43aaccfbe7177742f76.raw'
p22
(lp23
S'14.1.2-ae4652b546a10c092c22036bbc0db641.raw,0.856516976999'
p24
asS'24'
p25
(lp26
sS'18-a007919d3b6c2269a0ac5ec40c270c3b.raw'
p27
(lp28
S'18-9d484817327e5204821c4e6f1443325f.raw,0.822784810127'
p29
asS'27'
p30
(lp31
S'27.1-c59ebdb083ea1dafecca6210944d6038.raw'
p32
asS'29'
p33
(lp34
S'29-22fd724b05b00687fa19a10b7357a8ac.raw'
p35
aS'29-8d216fb284c55725d577c8506418dff4.raw'
p36
aS'29-50eba7c78b50c61d5e964c3bccad2ec4.raw'
p37
aS'29-20cfefbca05c2faa7fe643cd0fe6487c.raw'
p38
aS'29-15af40c347a16f4206b564d4d5e58be2.raw'
p39
aS'29-28689bc4d451c05931e7903d0ee17d2f.raw'
p40
aS'29-55bd961af45636738c7c5e1891bc53a9.raw'
p41
aS'29-31dc126226fbefdc012bee8dce22539d.raw'
p42
aS'29-8da56c9d1ed977fc2aec41e085241b4c.raw'
p43
asS'18-e8946c832dce383383ef8f8556a0830e.raw'
p44
(lp45
S'18-9d484817327e5204821c4e6f1443325f.raw,0.823232323232'
p46
asS'18-7f361fd51036a64ba60fb9d71d270966.raw'
p47
(lp48
S'18-9d484817327e5204821c4e6f1443325f.raw,0.822784810127'
p49
asS'8'
p50
(lp51
S'8-6ebb313ee65a5915aadd971df455ce02.raw'
p52
aS'8-6c5b9065372dddec27eb4fb49fe160d8.raw'
p53
aS'8-0b7d99c126630c338d6dc51fc387d0b8.raw'
p54
aS'8-2a83e7f5b96d7e36e1512fef88bc0de6.raw'
p55
aS'8-5d1055fe2e8bc8697474fc261336b476.raw'
p56
aS'8-4ec0c06a0e1c517206431c8b8e173fd5.raw'
p57
aS'8-ddc13f738bfde488e90a7ef5a71a6db1.raw'
p58
aS'8-0b24deaba05f352d96b58df0ffac475a.raw'
p59
aS'8-2f949a63fccdb4458a081aa33172b0a0.raw'
p60
aS'8-4a549a6dbcf2ee4c2bc220b644278cf5.raw'
p61
asS'18-6179da1735dbe728081cc9777e34a943.raw'
p62
(lp63
S'18-9d484817327e5204821c4e6f1443325f.raw,0.822784810127'
p64
asg41
(lp65
S'29.1-257cc578a26560b7ae9ec7888f54a1ad.raw,0.960835509138'
p66
asS'18-97866e8a5c0b4b40263850ec909ab410.raw'
p67
(lp68
S'18-9d484817327e5204821c4e6f1443325f.raw,0.824873096447'
p69
asg53
(lp70
S'8-6bf6cb9da054e0d5b22b0f4c5f54f59a.raw,0.862453531599'
p71
asS'14.6-10ba8d0e754458237fb50442d3c2ca42.raw'
p72
(lp73
S'14.1.2-ae4652b546a10c092c22036bbc0db641.raw,0.856377277599'
p74
asS'18-07fe449397be518966075d35851d910e.raw'
p75
(lp76
S'18-9d484817327e5204821c4e6f1443325f.raw,0.822784810127'
p77
asg55
(lp78
S'8-6bf6cb9da054e0d5b22b0f4c5f54f59a.raw,0.843866171004'
p79
asS'18-e8e976b95b6372bea0cd186bbe4e7a08.raw'
p80
(lp81
S'18-9d484817327e5204821c4e6f1443325f.raw,0.822784810127'
p82
asS'14.1.2-c3b69b7940ffab4f7ab1c6776621c174.raw'
p83
(lp84
S'14.6-5c8c0cf8755b027234eb50717723113e.raw,0.84962406015'
p85
asS'18-f762208ebf755a34e3b2c66c7d66f4e0.raw'
p86
(lp87
S'18-9d484817327e5204821c4e6f1443325f.raw,0.824873096447'
p88
asS'18-1e736444770b6d0133bd4c6172e7452f.raw'
p89
(lp90
S'18-9d484817327e5204821c4e6f1443325f.raw,0.823232323232'
p91
asS'18-00c8670e9b3dcb9cdb85537c244dda5e.raw'
p92
(lp93
S'18-9d484817327e5204821c4e6f1443325f.raw,0.822335025381'
p94
asS'6.2-dd4bc0c9faaa062059a36be4fc15b53a.raw'
p95
(lp96
S'6.1.2-eff838940f72ba3f05c25b6e82196862.raw,0.867924528302'
p97
asS'18-d54518652204bf0176d138f7e13d2620.raw'
p98
(lp99
S'18-9d484817327e5204821c4e6f1443325f.raw,0.823232323232'
p100
asS'18-09bacec6a7af20f8eac8d241a6b782cf.raw'
p101
(lp102
S'18-9d484817327e5204821c4e6f1443325f.raw,0.824873096447'
p103
asS'14.5-392b618c7ab897ccfe8cbdad9a1531db.raw'
p104
(lp105
S'14.1.2-ae4652b546a10c092c22036bbc0db641.raw,0.870036101083'
p106
asS'18-1cac979a552ce0ede9994ed05c42210d.raw'
p107
(lp108
S'18-9d484817327e5204821c4e6f1443325f.raw,0.822784810127'
p109
asS'18-738b03b782750f86b5ab5397a3bf5191.raw'
p110
(lp111
S'18-9d484817327e5204821c4e6f1443325f.raw,0.824427480916'
p112
asS'14.6-35d864d008ed3f859bc0152e399b7cf7.raw'
p113
(lp114
S'14.1.2-ae4652b546a10c092c22036bbc0db641.raw,0.857456140351'
p115
asS'18-4ac46cfee13e9bb90c17a46fe3cc725c.raw'
p116
(lp117
S'18-9d484817327e5204821c4e6f1443325f.raw,0.825316455696'
p118
asS'24.2-a641b4d1a37d9a53b81c53f44de5c011.raw'
p119
(lp120
S'24.1-735cfdb0fdf65297e870874fd639144c.raw,0.833333333333'
p121
asS'18-0a1a36f2686601e1686fcb8b216781b1.raw'
p122
(lp123
S'18-9d484817327e5204821c4e6f1443325f.raw,0.822784810127'
p124
asS'14.5-b5c50b8bd0b9db915fdfed483f87f3fc.raw'
p125
(lp126
S'14.1.2-ae4652b546a10c092c22036bbc0db641.raw,0.892165898618'
p127
asS'18-21ae24a37ec25b92cd724f298b8cf957.raw'
p128
(lp129
S'18-9d484817327e5204821c4e6f1443325f.raw,0.822784810127'
p130
asS'18-03b01a356aa089eac02cb26579ed4636.raw'
p131
(lp132
S'18-9d484817327e5204821c4e6f1443325f.raw,0.822784810127'
p133
asS'6.1.2-eff838940f72ba3f05c25b6e82196862.raw'
p134
(lp135
S'6.2-3ca4908cf4fc08e5fc0e7a07e92f6df8.raw,0.867924528302'
p136
asS'14.5-0f02ed7e077d741b8e93c5f1084c055a.raw'
p137
(lp138
S'14.1.2-ae4652b546a10c092c22036bbc0db641.raw,0.878199470432'
p139
asS'18-536283fa71e99605b7e9342464c49577.raw'
p140
(lp141
S'18-9d484817327e5204821c4e6f1443325f.raw,0.826972010178'
p142
asS'5.2-4cd886b30d0e401c15e6e77f84ec82ff.raw'
p143
(lp144
S'5.3-718a9b08a38c979146cece8ff674ecd2.raw,1.0'
p145
asS'18-2778ea0fff795b00a7e53651bd0d0918.raw'
p146
(lp147
S'18-9d484817327e5204821c4e6f1443325f.raw,0.810810810811'
p148
asS'14.6-727db1fdb8bb6e9b18cf2cace89dbd74.raw'
p149
(lp150
S'14.1.2-ae4652b546a10c092c22036bbc0db641.raw,0.865168539326'
p151
asS'18-c9d74bcde672cf1d40b04d8ee0e1c42f.raw'
p152
(lp153
S'18-9d484817327e5204821c4e6f1443325f.raw,0.822784810127'
p154
asS'29-7e1342bba879767880aaf65d9e6859c9.raw'
p155
(lp156
S'29.1-257cc578a26560b7ae9ec7888f54a1ad.raw,0.960835509138'
p157
asg57
(lp158
S'8-6bf6cb9da054e0d5b22b0f4c5f54f59a.raw,0.866171003717'
p159
asS'24.1-735cfdb0fdf65297e870874fd639144c.raw'
p160
(lp161
S'24.2-a641b4d1a37d9a53b81c53f44de5c011.raw,0.833333333333'
p162
asS'14.6-0c7de3e28d712110b9693c97e55cda73.raw'
p163
(lp164
S'14.1.2-ae4652b546a10c092c22036bbc0db641.raw,0.856516976999'
p165
asS'14.6-0af88469d89e56e428a2cd0c70fdf905.raw'
p166
(lp167
S'14.1.2-ae4652b546a10c092c22036bbc0db641.raw,0.853319057816'
p168
asg38
(lp169
S'29.1-257cc578a26560b7ae9ec7888f54a1ad.raw,0.960835509138'
p170
asS'18-e2b1b4e0bf4b90990a40f7a34ae948b1.raw'
p171
(lp172
S'18-9d484817327e5204821c4e6f1443325f.raw,0.824873096447'
p173
asS'18-44215390c24722a1f3312ff6c971ed5d.raw'
p174
(lp175
S'18-9d484817327e5204821c4e6f1443325f.raw,0.825316455696'
p176
asS'18-ac2043756687ae5c577a9c5536b1be4f.raw'
p177
(lp178
S'18-9d484817327e5204821c4e6f1443325f.raw,0.822784810127'
p179
asg42
(lp180
S'29.1-257cc578a26560b7ae9ec7888f54a1ad.raw,0.960835509138'
p181
asS'18-0970d69bb15e898b21f7ad1f0eed40d0.raw'
p182
(lp183
S'18-9d484817327e5204821c4e6f1443325f.raw,0.824873096447'
p184
asS'18-3bff94f44da43a07f352bda4d18221a3.raw'
p185
(lp186
S'18-9d484817327e5204821c4e6f1443325f.raw,0.822784810127'
p187
asS'6.2-8ea1d559bad8810d470a38100048b63f.raw'
p188
(lp189
S'6.1.2-eff838940f72ba3f05c25b6e82196862.raw,0.86820083682'
p190
asS'18-b041a0875916f3a813c68a6e18016a99.raw'
p191
(lp192
S'18-9d484817327e5204821c4e6f1443325f.raw,0.822784810127'
p193
asS'29-7d153ea9f08017d5b539621d88792597.raw'
p194
(lp195
S'29.1-257cc578a26560b7ae9ec7888f54a1ad.raw,0.960835509138'
p196
asS'14.5-c0e600b27a7de6714e7d75c66967151f.raw'
p197
(lp198
S'14.1.2-ae4652b546a10c092c22036bbc0db641.raw,0.872282608696'
p199
asS'18-8792bfc7820a187d423af9845722ec8c.raw'
p200
(lp201
S'18-9d484817327e5204821c4e6f1443325f.raw,0.820253164557'
p202
asS'18-95d81076c2728cef687f3bb7e2b06d50.raw'
p203
(lp204
S'18-9d484817327e5204821c4e6f1443325f.raw,0.824873096447'
p205
asS'18-041f233ce21cec16c886fd890d9e192b.raw'
p206
(lp207
S'18-9d484817327e5204821c4e6f1443325f.raw,0.822784810127'
p208
asS'18-47cc34218b9eea15774c07d3b5c3503b.raw'
p209
(lp210
S'18-9d484817327e5204821c4e6f1443325f.raw,0.822335025381'
p211
asS'14.1.2-c2ebd8e7c451ee66d3be2c0d4bc8fa3a.raw'
p212
(lp213
S'14.6-5c8c0cf8755b027234eb50717723113e.raw,0.84962406015'
p214
asS'18-b77a92b99fc1b9901b025a88f2f53223.raw'
p215
(lp216
S'18-9d484817327e5204821c4e6f1443325f.raw,0.825316455696'
p217
asS'18-b94fa95baf38c5ef2fd86c3cb0a4df80.raw'
p218
(lp219
S'18-9d484817327e5204821c4e6f1443325f.raw,0.824427480916'
p220
asS'5.2-6c46afb635caee9a2a0507755f9d3bf5.raw'
p221
(lp222
S'5.3-718a9b08a38c979146cece8ff674ecd2.raw,1.0'
p223
asS'18-52869b2b96962f9595d3be817f197f56.raw'
p224
(lp225
S'18-9d484817327e5204821c4e6f1443325f.raw,0.817721518987'
p226
asS'14.6-18e21d0add83d0452212a39cc4f30cc3.raw'
p227
(lp228
S'14.1.2-ae4652b546a10c092c22036bbc0db641.raw,0.854682454252'
p229
asS'18-5042199e2f891cfe8098cbcde37d8ae4.raw'
p230
(lp231
S'18-9d484817327e5204821c4e6f1443325f.raw,0.825316455696'
p232
asS'18-f7258187cb15af382820a8e1934659b7.raw'
p233
(lp234
S'18-9d484817327e5204821c4e6f1443325f.raw,0.825316455696'
p235
asS'18-0a5c969937b9cd958b52af8983a249ec.raw'
p236
(lp237
S'18-9d484817327e5204821c4e6f1443325f.raw,0.824873096447'
p238
asS'6.1.2-f7c308dace8147077204149e0712a329.raw'
p239
(lp240
S'6.2-3ca4908cf4fc08e5fc0e7a07e92f6df8.raw,0.861635220126'
p241
asg39
(lp242
S'29.1-257cc578a26560b7ae9ec7888f54a1ad.raw,0.960835509138'
p243
asS'14.5-0f142c762c2ee6a43998a9b1eab39bf9.raw'
p244
(lp245
S'14.1.2-ae4652b546a10c092c22036bbc0db641.raw,0.891061452514'
p246
asS'18-c81009dff546a60518b8ec0e2ae585ef.raw'
p247
(lp248
S'18-9d484817327e5204821c4e6f1443325f.raw,0.822784810127'
p249
asS'14.1.2-bb50eab41b5b5da6811b498ba787ebd0.raw'
p250
(lp251
S'14.6-5c8c0cf8755b027234eb50717723113e.raw,0.84962406015'
p252
asS'5.3-718a9b08a38c979146cece8ff674ecd2.raw'
p253
(lp254
S'5.2-1b1f137c7c020fb02936967ac3f90af4.raw,0.984375'
p255
asS'14.1.2-ab5267f5c1bd6b8ec1b52aabccb083a7.raw'
p256
(lp257
S'14.6-5c8c0cf8755b027234eb50717723113e.raw,0.84962406015'
p258
asS'14.5-035d206e2b3b4810e7f12f8fffd903d4.raw'
p259
(lp260
S'14.1.2-ae4652b546a10c092c22036bbc0db641.raw,0.880717488789'
p261
asS'18-d253f8cfb2aaa5ebc66c5acc8a7ab44d.raw'
p262
(lp263
S'18-9d484817327e5204821c4e6f1443325f.raw,0.822784810127'
p264
asS'18-1f0137d6a8c3cf2f146c74730cf6403c.raw'
p265
(lp266
S'18-9d484817327e5204821c4e6f1443325f.raw,0.825316455696'
p267
asS'14.5-7f7e973fe844fa162f3025843cf4782e.raw'
p268
(lp269
S'14.1.2-ae4652b546a10c092c22036bbc0db641.raw,0.870651204282'
p270
asS'18-b3a5751f62c1bd25d9f09425534c711e.raw'
p271
(lp272
S'18-9d484817327e5204821c4e6f1443325f.raw,0.825316455696'
p273
asS'6.2-98151bd5161160491570d9afc73237f0.raw'
p274
(lp275
S'6.1.2-eff838940f72ba3f05c25b6e82196862.raw,0.86820083682'
p276
asS'18-c3f19c50d945f9c54c93656e971d5c56.raw'
p277
(lp278
S'18-9d484817327e5204821c4e6f1443325f.raw,0.822784810127'
p279
asS'14.6-60edf812cf3e97b888713d6b695e5e1b.raw'
p280
(lp281
S'14.1.2-ae4652b546a10c092c22036bbc0db641.raw,0.855913978495'
p282
asS'14.1.2-545358c4de6b0f3b7a4ae540ccf16732.raw'
p283
(lp284
S'14.6-5c8c0cf8755b027234eb50717723113e.raw,0.848549946294'
p285
asS'18-62680d51f0eed9d5b30da59624433951.raw'
p286
(lp287
S'18-9d484817327e5204821c4e6f1443325f.raw,0.822784810127'
p288
asS'18-bbdc4e5c0717432a13573f2491c1e3a8.raw'
p289
(lp290
S'18-9d484817327e5204821c4e6f1443325f.raw,0.822784810127'
p291
asS'6.1.1-1c180ddd078f527cff087763507853b5.raw'
p292
(lp293
S'6.2-3ca4908cf4fc08e5fc0e7a07e92f6df8.raw,0.895178197065'
p294
asS'18-0a2e7517f212cfdb07e53fb40ca88a3b.raw'
p295
(lp296
S'18-9d484817327e5204821c4e6f1443325f.raw,0.822335025381'
p297
asS'14.6-5c8c0cf8755b027234eb50717723113e.raw'
p298
(lp299
S'14.1.2-ae4652b546a10c092c22036bbc0db641.raw,0.853920515575'
p300
asS'18-9d484817327e5204821c4e6f1443325f.raw'
p301
(lp302
S'18-d7535adefffd3895cd099a6a63a3ba76.raw,0.824873096447'
p303
asS'5.2-4e062f22fb165a7dafbd4f3aaea7a3e9.raw'
p304
(lp305
S'5.3-718a9b08a38c979146cece8ff674ecd2.raw,0.98828125'
p306
asS'6.2-a57d95916bf2a84e9dacdc9ae2c7b498.raw'
p307
(lp308
S'6.1.2-eff838940f72ba3f05c25b6e82196862.raw,0.882845188285'
p309
asS'18-2e4a3fd553eb340bac869bf2e128bdde.raw'
p310
(lp311
S'18-9d484817327e5204821c4e6f1443325f.raw,0.820253164557'
p312
asS'6.2-3ca4908cf4fc08e5fc0e7a07e92f6df8.raw'
p313
(lp314
S'6.1.2-eff838940f72ba3f05c25b6e82196862.raw,0.867924528302'
p315
asS'18-88577f56a2e4eda6fbc80f4b10cc93e0.raw'
p316
(lp317
S'18-9d484817327e5204821c4e6f1443325f.raw,0.825316455696'
p318
asS'18-0a6c12bfbfbc5760a44576e4b69a8edd.raw'
p319
(lp320
S'18-9d484817327e5204821c4e6f1443325f.raw,0.815189873418'
p321
asS'2'
p322
(lp323
S'2-0914a08287845112141cf3563170b8c0.raw'
p324
asg35
(lp325
S'29.1-257cc578a26560b7ae9ec7888f54a1ad.raw,0.960835509138'
p326
asS'5.2-2ad3ffa74c561a87cdf03e6edd4f0e66.raw'
p327
(lp328
S'5.3-718a9b08a38c979146cece8ff674ecd2.raw,0.99609375'
p329
asS'6'
p330
(lp331
g4
ag239
aS'6.2-a518eb6b69f96b5742f6438af2685526.raw'
p332
ag274
ag307
ag292
ag188
ag95
asS'18-b9dc80adcd578aaf5aa4e56d0bc62e81.raw'
p333
(lp334
S'18-9d484817327e5204821c4e6f1443325f.raw,0.822784810127'
p335
asS'14.1.2-ad85fd04665793ec30b30cd2c7952ce0.raw'
p336
(lp337
S'14.6-5c8c0cf8755b027234eb50717723113e.raw,0.853920515575'
p338
asS'18-0a2d6f20fb149e9943e3da6342e3aa00.raw'
p339
(lp340
S'18-9d484817327e5204821c4e6f1443325f.raw,0.826972010178'
p341
asg43
(lp342
S'29.1-257cc578a26560b7ae9ec7888f54a1ad.raw,0.960835509138'
p343
asg36
(lp344
S'29.1-257cc578a26560b7ae9ec7888f54a1ad.raw,0.960835509138'
p345
asS'18-e32a55b2ac18903b592f5993e6784f01.raw'
p346
(lp347
S'18-9d484817327e5204821c4e6f1443325f.raw,0.822784810127'
p348
asS'5.2-3eebecf1fb743037423b711d06bab4e6.raw'
p349
(lp350
S'5.3-718a9b08a38c979146cece8ff674ecd2.raw,0.9921875'
p351
asg54
(lp352
S'8-6bf6cb9da054e0d5b22b0f4c5f54f59a.raw,0.843866171004'
p353
asS'14.5-561bd3c9ec7acc959e13d005efe759c1.raw'
p354
(lp355
S'14.1.2-ae4652b546a10c092c22036bbc0db641.raw,0.867924528302'
p356
asS'14.5-47248b4882fdd25c8ffbdec4401233ff.raw'
p357
(lp358
S'14.1.2-ae4652b546a10c092c22036bbc0db641.raw,0.868686868687'
p359
asS'5.2-6c0d6173e751df0bfa8e7d872b7a2475.raw'
p360
(lp361
S'5.3-718a9b08a38c979146cece8ff674ecd2.raw,0.98828125'
p362
asS'18-4f78788fdab1c0bada019581ec0809a4.raw'
p363
(lp364
S'18-9d484817327e5204821c4e6f1443325f.raw,0.824873096447'
p365
asS'18-2aa9591f791c94e68eec402e2cd4001c.raw'
p366
(lp367
S'18-9d484817327e5204821c4e6f1443325f.raw,0.837647058824'
p368
asS'14.6-afb3a89e813e29b90a1ed791577a3100.raw'
p369
(lp370
S'14.1.2-ae4652b546a10c092c22036bbc0db641.raw,0.857142857143'
p371
asS'18-d616249939c90baacd7e9848f6b075b3.raw'
p372
(lp373
S'18-9d484817327e5204821c4e6f1443325f.raw,0.824873096447'
p374
asS'18-1d35d9b1e0e63ff42fc2def8a250fd29.raw'
p375
(lp376
S'18-9d484817327e5204821c4e6f1443325f.raw,0.822335025381'
p377
asS'18-57df85db3da0ff1579711c2951fdcf8e.raw'
p378
(lp379
S'18-9d484817327e5204821c4e6f1443325f.raw,0.822784810127'
p380
asS'14'
p381
(lp382
S'14.1.2-883516c63f6ca421f208f02e0a53dfda.raw'
p383
ag369
ag149
aS'14.1.2-a83d8b396c494895f572bc3988952a7c.raw'
p384
ag166
ag83
ag163
ag357
ag250
ag336
ag268
ag256
ag212
ag244
ag227
ag259
ag137
ag197
ag104
ag283
aS'14.5-821e9c215d84e3db9f8bd1fc0fecb3dc.raw'
p385
ag16
ag280
ag113
ag72
ag22
aS'14.6-95ae2769884f19218ea4e2983c69d6d7.raw'
p386
ag125
ag354
asS'18-12c610d9613de9ad0d00c57e3e8a60a9.raw'
p387
(lp388
S'18-9d484817327e5204821c4e6f1443325f.raw,0.825316455696'
p389
asS'14.1.2-ae4652b546a10c092c22036bbc0db641.raw'
p390
(lp391
S'14.6-5c8c0cf8755b027234eb50717723113e.raw,0.84962406015'
p392
asS'18'
p393
(lp394
g27
aS'18-c71bbef5badcc5ce2a5cc81992caf45e.raw'
p395
aS'18-0d77888a42f45fa665ae01d586131c4e.raw'
p396
aS'18-b1b4dd0426ce83bd540701f2d5a6085f.raw'
p397
aS'18-22cb7f661306c1582aac7b18d03b10bd.raw'
p398
ag89
aS'18-7a834510fdd8483c812d160b46efb968.raw'
p399
ag191
aS'18-431ca0464b4870d9d3ee6cde69d563fd.raw'
p400
ag224
aS'18-25ef57a63dd8af2be2a23ee1860ff01b.raw'
p401
ag200
ag363
ag75
ag277
aS'18-cda5d2462c981d13dd1084550441c206.raw'
p402
aS'18-9eff7063aab80022ebc0057189374766.raw'
p403
ag13
aS'18-432013eae7d7ed9672a37cd48be125c0.raw'
p404
ag333
ag110
aS'18-ea29bc79d019326cbe80da5e821c2d97.raw'
p405
ag310
aS'18-7f3c1808e399d4c8a364a7a64534ccbd.raw'
p406
aS'18-0a3da9cf8edbba354126ddea59fbdec9.raw'
p407
ag286
ag67
ag80
ag47
ag262
aS'18-fa1e34c4f1dee7d8e22e28521199c9a7.raw'
p408
aS'18-a4dc863524161559c929e8fc983f01ee.raw'
p409
ag265
ag10
ag116
ag366
aS'18-01f111a0dda50c0bd24efe1a0b8538dd.raw'
p410
aS'18-4d4389f51f9075ebebb71222a08f7a91.raw'
p411
ag101
aS'18-5c377b9fa6b4c4b9d9c0fb184aa6ecc8.raw'
p412
ag271
aS'18-0f85140b6693a5be55a3dbccd169ab60.raw'
p413
ag375
ag209
ag152
aS'18-2009a521d8d7453e8943396368ac9921.raw'
p414
ag236
aS'18-28ef904d3cec7b4b374eb978b9b7acc3.raw'
p415
ag131
ag339
ag230
ag19
aS'18-c37ddfb8d9f8a9500e6169e66a1ca363.raw'
p416
ag387
ag182
ag346
ag128
aS'18-5dea7a120851d481f84f5651f5ca9c44.raw'
p417
aS'18-c7f6675859468a6de41d39c8722dad4b.raw'
p418
aS'18-d73aa09a7ac1baf852f79a5ef73ab38e.raw'
p419
ag92
aS'18-340312a531c18855acc977bae124ec80.raw'
p420
ag122
ag316
ag185
ag86
aS'18-00f18888317e19dba8f68e704cb08ae7.raw'
p421
aS'18-0a3b842dd9b5f65edd4b2e7dda2fb8ff.raw'
p422
ag206
aS'18-0a6b21081220a224bc00f3f7bb8a37e5.raw'
p423
ag289
aS'18-3cf87e06b8210342de94016336d9ea16.raw'
p424
ag319
ag372
ag44
ag203
ag233
aS'18-912b48ccaa4a1b3a58417d32e6af22ac.raw'
p425
ag62
ag107
aS'18-14ec5a8be4dd7b4a7c1cb9cc650e69e7.raw'
p426
ag140
ag146
aS'18-0a4f49f012d9e6d3d351429d21067f80.raw'
p427
ag1
ag218
aS'18-381cc747998d7051190bc664320adb02.raw'
p428
ag247
ag295
ag171
ag174
aS'18-b2ebf70fe337f60aca09b08324f1298f.raw'
p429
ag177
aS'18-55a908af392f7b0fa3610429bd41d261.raw'
p430
ag215
ag378
ag98
aS'18-64cb3200922af17f409aa0c5cb06d821.raw'
p431
asg56
(lp432
S'8-6bf6cb9da054e0d5b22b0f4c5f54f59a.raw,0.847583643123'
p433
asg421
(lp434
S'18-9d484817327e5204821c4e6f1443325f.raw,0.822784810127'
p435
asg52
(lp436
S'8-6bf6cb9da054e0d5b22b0f4c5f54f59a.raw,0.866171003717'
p437
asg37
(lp438
S'29.1-257cc578a26560b7ae9ec7888f54a1ad.raw,0.960835509138'
p439
asS'5.2-1b1f137c7c020fb02936967ac3f90af4.raw'
p440
(lp441
S'5.3-718a9b08a38c979146cece8ff674ecd2.raw,0.9921875'
p442
asg429
(lp443
S'18-9d484817327e5204821c4e6f1443325f.raw,0.822784810127'
p444
asg411
(lp445
S'18-9d484817327e5204821c4e6f1443325f.raw,0.822784810127'
p446
asg426
(lp447
S'18-9d484817327e5204821c4e6f1443325f.raw,0.822784810127'
p448
asg412
(lp449
S'18-9d484817327e5204821c4e6f1443325f.raw,0.822784810127'
p450
asg403
(lp451
S'18-9d484817327e5204821c4e6f1443325f.raw,0.824873096447'
p452
asg401
(lp453
S'18-9d484817327e5204821c4e6f1443325f.raw,0.817721518987'
p454
asS'18-d7535adefffd3895cd099a6a63a3ba76.raw'
p455
(lp456
S'18-9d484817327e5204821c4e6f1443325f.raw,0.822335025381'
p457
asg397
(lp458
S'18-9d484817327e5204821c4e6f1443325f.raw,0.823232323232'
p459
asg409
(lp460
S'18-9d484817327e5204821c4e6f1443325f.raw,0.812332439678'
p461
asg59
(lp462
S'8-6bf6cb9da054e0d5b22b0f4c5f54f59a.raw,0.85873605948'
p463
asg40
(lp464
S'29.1-257cc578a26560b7ae9ec7888f54a1ad.raw,0.960835509138'
p465
asS'29.1-257cc578a26560b7ae9ec7888f54a1ad.raw'
p466
(lp467
S'29-7e1342bba879767880aaf65d9e6859c9.raw,0.960835509138'
p468
asg32
(lp469
S'27.1-ab179e4c4ac589ed3c62709ac7a303db.raw,0.659090909091'
p470
asg332
(lp471
S'6.1.2-eff838940f72ba3f05c25b6e82196862.raw,0.867924528302'
p472
asg400
(lp473
S'18-9d484817327e5204821c4e6f1443325f.raw,0.817258883249'
p474
asS'5.2-1ebf3a323982d3b61617f866ed3b5551.raw'
p475
(lp476
S'5.3-718a9b08a38c979146cece8ff674ecd2.raw,0.984375'
p477
asg402
(lp478
S'18-9d484817327e5204821c4e6f1443325f.raw,0.822335025381'
p479
asg384
(lp480
S'14.6-5c8c0cf8755b027234eb50717723113e.raw,0.850698174006'
p481
asg427
(lp482
S'18-9d484817327e5204821c4e6f1443325f.raw,0.825316455696'
p483
asS'5.2-6e7354142c10c6937f8dec04728b2454.raw'
p484
(lp485
S'5.3-718a9b08a38c979146cece8ff674ecd2.raw,1.0'
p486
asg61
(lp487
S'8-6bf6cb9da054e0d5b22b0f4c5f54f59a.raw,0.843866171004'
p488
asg420
(lp489
S'18-9d484817327e5204821c4e6f1443325f.raw,0.822335025381'
p490
asg413
(lp491
S'18-9d484817327e5204821c4e6f1443325f.raw,0.819338422392'
p492
asg399
(lp493
S'18-9d484817327e5204821c4e6f1443325f.raw,0.814249363868'
p494
asg385
(lp495
S'14.1.2-ae4652b546a10c092c22036bbc0db641.raw,0.89126394052'
p496
asS'5'
p497
(lp498
g7
ag143
ag349
ag327
ag221
ag475
ag360
ag484
ag304
asg430
(lp499
S'18-9d484817327e5204821c4e6f1443325f.raw,0.825316455696'
p500
asg431
(lp501
S'18-9d484817327e5204821c4e6f1443325f.raw,0.822784810127'
p502
asg419
(lp503
S'18-9d484817327e5204821c4e6f1443325f.raw,0.817721518987'
p504
asg58
(lp505
S'8-6bf6cb9da054e0d5b22b0f4c5f54f59a.raw,0.847583643123'
p506
asg414
(lp507
S'18-9d484817327e5204821c4e6f1443325f.raw,0.825316455696'
p508
asg417
(lp509
S'18-9d484817327e5204821c4e6f1443325f.raw,0.824873096447'
p510
asg418
(lp511
S'18-9d484817327e5204821c4e6f1443325f.raw,0.813775510204'
p512
asg395
(lp513
S'18-9d484817327e5204821c4e6f1443325f.raw,0.822784810127'
p514
asg398
(lp515
S'18-9d484817327e5204821c4e6f1443325f.raw,0.822784810127'
p516
asg383
(lp517
S'14.6-5c8c0cf8755b027234eb50717723113e.raw,0.848549946294'
p518
asg407
(lp519
S'18-9d484817327e5204821c4e6f1443325f.raw,0.822784810127'
p520
asg324
(lp521
S'2-4c6784225bb509cd6d33e2ed852d22d1.raw,0.785714285714'
p522
asg406
(lp523
S'18-9d484817327e5204821c4e6f1443325f.raw,0.822784810127'
p524
asg408
(lp525
S'18-9d484817327e5204821c4e6f1443325f.raw,0.823232323232'
p526
asg410
(lp527
S'18-9d484817327e5204821c4e6f1443325f.raw,0.81679389313'
p528
asg405
(lp529
S'18-9d484817327e5204821c4e6f1443325f.raw,0.822784810127'
p530
asg415
(lp531
S'18-9d484817327e5204821c4e6f1443325f.raw,0.824873096447'
p532
asg396
(lp533
S'18-9d484817327e5204821c4e6f1443325f.raw,0.822784810127'
p534
asg425
(lp535
S'18-9d484817327e5204821c4e6f1443325f.raw,0.822784810127'
p536
asg60
(lp537
S'8-6bf6cb9da054e0d5b22b0f4c5f54f59a.raw,0.866171003717'
p538
asg404
(lp539
S'18-9d484817327e5204821c4e6f1443325f.raw,0.823232323232'
p540
asg423
(lp541
S'18-9d484817327e5204821c4e6f1443325f.raw,0.815189873418'
p542
asg424
(lp543
S'18-9d484817327e5204821c4e6f1443325f.raw,0.822784810127'
p544
asS'8-2868ff07e1bc760488962955a850a7be.raw'
p545
(lp546
S'8-6bf6cb9da054e0d5b22b0f4c5f54f59a.raw,0.851301115242'
p547
asg386
(lp548
S'14.1.2-ae4652b546a10c092c22036bbc0db641.raw,0.853920515575'
p549
asg422
(lp550
S'18-9d484817327e5204821c4e6f1443325f.raw,0.828644501279'
p551
asg428
(lp552
S'18-9d484817327e5204821c4e6f1443325f.raw,0.822784810127'
p553
asS'8-6bf6cb9da054e0d5b22b0f4c5f54f59a.raw'
p554
(lp555
S'8-2868ff07e1bc760488962955a850a7be.raw,0.828996282528'
p556
asg416
(lp557
S'18-9d484817327e5204821c4e6f1443325f.raw,0.822784810127'
p558
as.