(dp0
S'62'
p1
(lp2
sS'61-windowsshellreverse_tcp.raw'
p3
(lp4
S'61-windowsshellreverse_nonx_tcp.raw,0.937931034483'
p5
asS'61-windowsshellbind_ipv6_tcp.raw'
p6
(lp7
S'61-windowsshellreverse_nonx_tcp.raw,0.947658402204'
p8
asS'61-windowsshellreverse_tcp_allports.raw'
p9
(lp10
S'61-windowsshellreverse_nonx_tcp.raw,0.931506849315'
p11
asS'61-windowsshellreverse_ipv6_http.raw'
p12
(lp13
S'61-windowsshellreverse_nonx_tcp.raw,0.948275862069'
p14
asS'62-windowsvncinjectfind_tag.exe'
p15
(lp16
S'62-windowsvncinjectreverse_http.exe,0.53'
p17
asS'61-windowsshellreverse_http.raw'
p18
(lp19
S'61-windowsshellreverse_nonx_tcp.raw,0.951008645533'
p20
asS'62-windowsvncinjectreverse_nonx_tcp.exe'
p21
(lp22
S'62-windowsvncinjectreverse_http.exe,0.51'
p23
asS'61-windowsshellreverse_ipv6_tcp.raw'
p24
(lp25
S'61-windowsshellreverse_nonx_tcp.raw,0.945017182131'
p26
asS'62-windowsvncinjectreverse_tcp_dns.exe'
p27
(lp28
S'62-windowsvncinjectreverse_http.exe,0.5'
p29
asS'61-windowsshell_bind_tcp_xpfw.raw'
p30
(lp31
S'61-windowsshellreverse_nonx_tcp.raw,0.934615384615'
p32
asS'61-windowsshellreverse_tcp_dns.raw'
p33
(lp34
S'61-windowsshellreverse_nonx_tcp.raw,0.953125'
p35
asS'61-windowsshell_reverse_tcp.raw'
p36
(lp37
S'61-windowsshellreverse_nonx_tcp.raw,0.947040498442'
p38
asS'61-windowsshellbind_tcp.raw'
p39
(lp40
S'61-windowsshellreverse_nonx_tcp.raw,0.942567567568'
p41
asS'61-windowsshell_bind_tcp.raw'
p42
(lp43
S'61-windowsshellreverse_nonx_tcp.raw,0.951008645533'
p44
asS'62-windowsvncinjectreverse_http.exe'
p45
(lp46
S'62-windowsshellreverse_tcp.c,1.0'
p47
asS'62-windowsvncinjectbind_nonx_tcp.exe'
p48
(lp49
S'62-windowsvncinjectreverse_http.exe,0.56'
p50
asS'62-windowsvncinjectreverse_ord_tcp.exe'
p51
(lp52
S'62-windowsvncinjectreverse_http.exe,0.48'
p53
asS'62-windowsvncinjectreverse_tcp_allports.exe'
p54
(lp55
S'62-windowsshellreverse_tcp.c,1.0'
p56
asS'61-windowsshellfind_tag.raw'
p57
(lp58
S'61-windowsshellreverse_nonx_tcp.raw,0.93085106383'
p59
asS'61'
p60
(lp61
sS'61-windowsshellbind_nonx_tcp.raw'
p62
(lp63
S'61-windowsshellreverse_ord_tcp.raw,0.8995215311'
p64
asS'62-windowsvncinjectreverse_ipv6_http.exe'
p65
(lp66
S'62-windowsvncinjectreverse_http.exe,0.51'
p67
asS'61-windowsshellreverse_ord_tcp.raw'
p68
(lp69
S'61-windowsshellreverse_nonx_tcp.raw,0.877659574468'
p70
asS'62-windowsvncinjectreverse_ipv6_tcp.exe'
p71
(lp72
S'62-windowsshellreverse_tcp.c,1.0'
p73
asS'62-windowsvncinjectreverse_tcp.exe'
p74
(lp75
S'62-windowsvncinjectreverse_http.exe,0.45'
p76
asS'62-windowsvncinjectbind_tcp.exe'
p77
(lp78
S'62-windowsvncinjectreverse_http.exe,0.45'
p79
asS'61-windowsshellreverse_nonx_tcp.raw'
p80
(lp81
S'61-windowsshellreverse_ord_tcp.raw,0.877659574468'
p82
asS'62-windowsvncinjectbind_ipv6_tcp.exe'
p83
(lp84
S'62-windowsshellreverse_tcp.c,1.0'
p85
as.