(dp0
S'X-c0cf705906c60b50e183de099c7d3b09'
p1
(lp2
S'22.3.2-7ea4921beff80e610ebf67cff4add312.raw,0.919315403423'
p3
asS'X-37ae1bfd1998ced78d260e52401599c4'
p4
(lp5
S'22.3.2-7ea4921beff80e610ebf67cff4add312.raw,0.869565217391'
p6
asS'X-20c4ade1d7a757ae9910fb136e9a7fe4'
p7
(lp8
S'22.3.2-7ea4921beff80e610ebf67cff4add312.raw,0.854460093897'
p9
asS'X-1e6b4934cf908b2b9d4db0256d854f87'
p10
(lp11
S'22.3.2-7ea4921beff80e610ebf67cff4add312.raw,0.907542579075'
p12
asS'X-eda2b0670bd6385325a1c19be204a0a6'
p13
(lp14
S'22.3.2-7ea4921beff80e610ebf67cff4add312.raw,0.999649437152'
p15
asS'X-ccfa468edf567005d96447d8443419be'
p16
(lp17
S'22.3.2-7ea4921beff80e610ebf67cff4add312.raw,0.974121996303'
p18
asS'X-4c70eb9f55cbcf4e2de59a9d4cc51ab6'
p19
(lp20
S'22.3.2-7ea4921beff80e610ebf67cff4add312.raw,0.99674267101'
p21
asS'X-adf4fec42c3ed7dad908860829f43918'
p22
(lp23
S'22.3.2-7ea4921beff80e610ebf67cff4add312.raw,0.868995633188'
p24
asS'X-c8391af055a906304095e6c1b8ce59f1'
p25
(lp26
S'22.3.2-7ea4921beff80e610ebf67cff4add312.raw,0.956262425447'
p27
asS'X-61c419adc644113d0030bbc2312ccdc6'
p28
(lp29
S'22.3.2-7ea4921beff80e610ebf67cff4add312.raw,0.948717948718'
p30
asS'X-ca8f28ad90cf18d3cabf3a0dc6b5a012'
p31
(lp32
S'22.3.2-7ea4921beff80e610ebf67cff4add312.raw,0.990246406571'
p33
asS'X-23986932454eeea88fc3adcc4202b453'
p34
(lp35
S'22.3.2-7ea4921beff80e610ebf67cff4add312.raw,0.847161572052'
p36
asS'X-978356f5e758297abbf3eaf50112cb46'
p37
(lp38
S'22.3.2-7ea4921beff80e610ebf67cff4add312.raw,0.948586118252'
p39
asS'X-762f9fdd382cc2a45bea3e12bed159e6'
p40
(lp41
S'22.3.2-7ea4921beff80e610ebf67cff4add312.raw,0.92118226601'
p42
asS'X-f08882ba8ba28769b3db3c0c7f55be31'
p43
(lp44
S'22.3.2-7ea4921beff80e610ebf67cff4add312.raw,0.894514767932'
p45
asS'X-c68d4314de902fac05821def5c76447a'
p46
(lp47
S'22.3.2-7ea4921beff80e610ebf67cff4add312.raw,0.902953586498'
p48
asS'X-582a18f33e0b178d5bf0c17f067a2f03'
p49
(lp50
S'22.3.2-7ea4921beff80e610ebf67cff4add312.raw,0.951030927835'
p51
asS'X-3260b369bb45c00c9c5fa086078d3b83'
p52
(lp53
S'22.3.2-7ea4921beff80e610ebf67cff4add312.raw,0.973484848485'
p54
asS'X-adde1c6bcb1c89537c561b135d5aacf8'
p55
(lp56
S'22.3.2-7ea4921beff80e610ebf67cff4add312.raw,0.990974729242'
p57
asS'X-719d8c5e6d5c98242558895fd620c765'
p58
(lp59
S'22.3.2-7ea4921beff80e610ebf67cff4add312.raw,0.991379310345'
p60
asS'X-04bf15e5a8412f1efbae4c2df18a8a86'
p61
(lp62
S'22.3.2-7ea4921beff80e610ebf67cff4add312.raw,0.951030927835'
p63
asS'X-4132cacc8cf1b971ef987c3cb5460ec1'
p64
(lp65
S'22.3.2-7ea4921beff80e610ebf67cff4add312.raw,0.951156812339'
p66
asS'X-aa241684beb8e960b786b81f9d5d9403'
p67
(lp68
S'22.3.2-7ea4921beff80e610ebf67cff4add312.raw,0.911392405063'
p69
asS'X-49b7403be0b6005cc735f8dd6bde084f'
p70
(lp71
S'22.3.2-7ea4921beff80e610ebf67cff4add312.raw,0.974025974026'
p72
asS'X-68d071920e02d12365c2aac01fdfc831'
p73
(lp74
S'22.3.2-7ea4921beff80e610ebf67cff4add312.raw,0.951282051282'
p75
asS'X-c45fde44860a8b71497dbc2e7091cdd4'
p76
(lp77
S'22.3.2-7ea4921beff80e610ebf67cff4add312.raw,0.862222222222'
p78
asS'X-92577d1df5bddc11ac7e4ee88c734142'
p79
(lp80
S'22.3.2-7ea4921beff80e610ebf67cff4add312.raw,0.94472361809'
p81
asS'X-7b963fa2a916135b052e7fa6e4c95437'
p82
(lp83
S'22.3.2-7ea4921beff80e610ebf67cff4add312.raw,0.999667347812'
p84
asS'X-eb8050b5ee1806f78015f587e21dbe32'
p85
(lp86
S'22.3.2-7ea4921beff80e610ebf67cff4add312.raw,0.965986394558'
p87
asS'X-a65a8585efce9cef6fc38fe9aac2b600'
p88
(lp89
S'22.3.2-7ea4921beff80e610ebf67cff4add312.raw,0.950777202073'
p90
asS'X-0e1514f0875d43670aff1949c1eabe18'
p91
(lp92
S'22.3.2-7ea4921beff80e610ebf67cff4add312.raw,0.963302752294'
p93
asS'X-57fb3091da90baa6ac20e7981e694cbe'
p94
(lp95
S'22.3.2-7ea4921beff80e610ebf67cff4add312.raw,0.95618556701'
p96
asS'X-026ccac795d61c2351255e9beee1cf72'
p97
(lp98
S'22.3.2-7ea4921beff80e610ebf67cff4add312.raw,0.878378378378'
p99
asS'X-189aeb8124deb5ce753c104ce151c301'
p100
(lp101
S'22.3.2-7ea4921beff80e610ebf67cff4add312.raw,0.991012582385'
p102
asS'X-874b00d4d02200aa659b5eccce26dc5b'
p103
(lp104
S'22.3.2-7ea4921beff80e610ebf67cff4add312.raw,0.946291560102'
p105
asS'X-38424dd889ad64ef48488244a6462f8a'
p106
(lp107
S'22.3.2-7ea4921beff80e610ebf67cff4add312.raw,0.886363636364'
p108
asS'X-fa80ce99368ab5fd0cdfb50a8065268d'
p109
(lp110
S'22.3.2-7ea4921beff80e610ebf67cff4add312.raw,0.96450617284'
p111
asS'X-f097bd75d13156d25ee43ea1931eccb4'
p112
(lp113
S'22.3.2-7ea4921beff80e610ebf67cff4add312.raw,0.965986394558'
p114
asS'X-01203fbba0d92fcbdfba476989960591'
p115
(lp116
S'22.3.2-7ea4921beff80e610ebf67cff4add312.raw,0.99293059126'
p117
asS'X-39e7d21f361a7e810731a358cfbdf310'
p118
(lp119
S'22.3.2-7ea4921beff80e610ebf67cff4add312.raw,0.999715322753'
p120
asS'X-9cf8650a04304bed08bf3acc14ed5118'
p121
(lp122
S'22.3.2-7ea4921beff80e610ebf67cff4add312.raw,0.878378378378'
p123
asS'X-398fe0232de46f84ffd2d1aa2c0e55c0'
p124
(lp125
S'22.3.2-7ea4921beff80e610ebf67cff4add312.raw,0.755813953488'
p126
asS'X-ed3beb8ffdf3b1c570c8afbd10395ce5'
p127
(lp128
S'22.3.2-7ea4921beff80e610ebf67cff4add312.raw,0.953727506427'
p129
asS'X-3fcfc282381cd8fc7ec4dc24c5d33961'
p130
(lp131
S'22.3.2-7ea4921beff80e610ebf67cff4add312.raw,0.941031941032'
p132
asS'X-1818c80274d11b1daff9948a80cd7ab8'
p133
(lp134
S'22.3.2-7ea4921beff80e610ebf67cff4add312.raw,0.88'
p135
asS'X-9d546f92e3d1233bd5ffa65e0d815bdd'
p136
(lp137
S'22.3.2-7ea4921beff80e610ebf67cff4add312.raw,0.848780487805'
p138
asS'X-a8aaa469218ec529fb88193d731484e0'
p139
(lp140
S'22.3.2-7ea4921beff80e610ebf67cff4add312.raw,0.928406466513'
p141
asS'X-6a1b03278f086eb5080d407f1851f7df'
p142
(lp143
S'22.3.2-7ea4921beff80e610ebf67cff4add312.raw,0.869198312236'
p144
asS'X-26790f1d1666f5d348ce1554a10c9d17'
p145
(lp146
S'22.3.2-7ea4921beff80e610ebf67cff4add312.raw,0.86036036036'
p147
asS'X-bd0617f2691e52e0341717c9d3a99184'
p148
(lp149
S'22.3.2-7ea4921beff80e610ebf67cff4add312.raw,0.936734693878'
p150
asS'X-12b0ab6de1ec1402a2060a591a1ee742'
p151
(lp152
S'22.3.2-7ea4921beff80e610ebf67cff4add312.raw,0.999819084568'
p153
asS'X-f29d7bf1e91ee6b0fe7d17ed2b61af30'
p154
(lp155
S'22.3.2-7ea4921beff80e610ebf67cff4add312.raw,0.849557522124'
p156
asS'X-7284fc5483528c4f5c58effcf1fff1c1'
p157
(lp158
S'22.3.2-7ea4921beff80e610ebf67cff4add312.raw,0.919512195122'
p159
asS'X-8477151a160cb371e8e72af652d043eb'
p160
(lp161
S'22.3.2-7ea4921beff80e610ebf67cff4add312.raw,0.999641605607'
p162
asS'X-5d1d4f804ca6dcf6eb25ecb6f19b3fd8'
p163
(lp164
S'22.3.2-7ea4921beff80e610ebf67cff4add312.raw,0.999805686897'
p165
asS'X-d49c5ff903de4fa260f1cea74e2072b2'
p166
(lp167
S'22.3.2-7ea4921beff80e610ebf67cff4add312.raw,0.930715935335'
p168
asS'X-235ee1df30433f1cbec5acba5785a5f2'
p169
(lp170
S'22.3.2-7ea4921beff80e610ebf67cff4add312.raw,0.91061452514'
p171
asS'X-3ed0264f1cfe2864f688de1b6193aa43'
p172
(lp173
S'22.3.2-7ea4921beff80e610ebf67cff4add312.raw,0.972375690608'
p174
asS'X-782f5df8f86d202992b2ab0526556941'
p175
(lp176
S'22.3.2-7ea4921beff80e610ebf67cff4add312.raw,0.906403940887'
p177
asS'X-2b72027b4b704706af5024b4ce30599f'
p178
(lp179
S'22.3.2-7ea4921beff80e610ebf67cff4add312.raw,0.873417721519'
p180
asS'X-d5022a45b83c5f06184975047b4642ef'
p181
(lp182
S'22.3.2-7ea4921beff80e610ebf67cff4add312.raw,0.96472392638'
p183
asS'X-95e409ee3f015ac3664f0401a4984591'
p184
(lp185
S'22.3.2-7ea4921beff80e610ebf67cff4add312.raw,0.979633401222'
p186
asS'X-91c9e79585abc23ba4faf5e9c0557bb2'
p187
(lp188
S'22.3.2-7ea4921beff80e610ebf67cff4add312.raw,0.972577696527'
p189
asS'X-9db67a0148a2258a3867987992b3f030'
p190
(lp191
S'22.3.2-7ea4921beff80e610ebf67cff4add312.raw,0.923267326733'
p192
asS'X-45b072a06c8eda1e6d5b92e867b75560'
p193
(lp194
S'22.3.2-7ea4921beff80e610ebf67cff4add312.raw,0.948586118252'
p195
asS'X-82a14cb71c026e6e9ff959ff91e2302e'
p196
(lp197
S'22.3.2-7ea4921beff80e610ebf67cff4add312.raw,0.944444444444'
p198
asS'X-145fbb60bfafc8e806af8a41910ffa3b'
p199
(lp200
S'22.3.2-7ea4921beff80e610ebf67cff4add312.raw,0.956072351421'
p201
asS'X-f118f20b4649f4bf2355b639610b114c'
p202
(lp203
S'22.3.2-7ea4921beff80e610ebf67cff4add312.raw,0.78125'
p204
asS'X-9ec0fd20da880666379d92303d920e06'
p205
(lp206
S'22.3.2-7ea4921beff80e610ebf67cff4add312.raw,0.777777777778'
p207
asS'X-50e9d91e913a7319f7006560778b6d46'
p208
(lp209
S'22.3.2-7ea4921beff80e610ebf67cff4add312.raw,0.952380952381'
p210
asS'X-6e22c6815914ec3bdf901a7d8b5ff876'
p211
(lp212
S'22.3.2-7ea4921beff80e610ebf67cff4add312.raw,0.986225895317'
p213
asS'X-197532cafc10a522ee74ad5bf3151d8b'
p214
(lp215
S'22.3.2-7ea4921beff80e610ebf67cff4add312.raw,0.976344086022'
p216
asS'X-feb11704e1a17357f58ba1ee2c88c5ef'
p217
(lp218
S'22.3.2-7ea4921beff80e610ebf67cff4add312.raw,0.937751004016'
p219
asS'X-8b8a970ccbcf047705fd3796fd688282'
p220
(lp221
S'22.3.2-7ea4921beff80e610ebf67cff4add312.raw,0.90843373494'
p222
asS'X-7a3e676e0cc503c030b6bc515aac213e'
p223
(lp224
S'22.3.2-7ea4921beff80e610ebf67cff4add312.raw,0.968421052632'
p225
asS'X-c703fe7ce1ff406b5f6bff622ac6bdae'
p226
(lp227
S'22.3.2-7ea4921beff80e610ebf67cff4add312.raw,0.967694566814'
p228
asS'X-84fca7de6211345b57cc07d0087f896f'
p229
(lp230
S'22.3.2-7ea4921beff80e610ebf67cff4add312.raw,0.951030927835'
p231
asS'X-f070e180d8e8769d970423dc3268f1a7'
p232
(lp233
S'22.3.2-7ea4921beff80e610ebf67cff4add312.raw,0.978647686833'
p234
asS'X-33dc20f7e64aeb1c336f44433f4d6893'
p235
(lp236
S'22.3.2-7ea4921beff80e610ebf67cff4add312.raw,0.92970521542'
p237
asS'X-73caca634a3d8c0ce03cfc6adcacf7fa'
p238
(lp239
S'22.3.2-7ea4921beff80e610ebf67cff4add312.raw,0.913043478261'
p240
asS'X-a29d684aeb8b63cbf1bcd7e9b753d23a'
p241
(lp242
S'22.3.2-7ea4921beff80e610ebf67cff4add312.raw,0.919902912621'
p243
asS'X-1afdd1b91153a37b9ecec81de1c33b5a'
p244
(lp245
S'22.3.2-7ea4921beff80e610ebf67cff4add312.raw,0.975186104218'
p246
asS'X-8c661f1708986ee7278be6a15e0ca7ae'
p247
(lp248
S'22.3.2-7ea4921beff80e610ebf67cff4add312.raw,0.931350114416'
p249
asS'X-8b5036ef7f404e322ae43b32e3efdbfc'
p250
(lp251
S'22.3.2-7ea4921beff80e610ebf67cff4add312.raw,0.976531942634'
p252
asS'X-5bc91fe355c1494b358c7adc319ae90d'
p253
(lp254
S'22.3.2-7ea4921beff80e610ebf67cff4add312.raw,0.948453608247'
p255
asS'X-bc329039135fe0b76f2cf34587943f02'
p256
(lp257
S'22.3.2-7ea4921beff80e610ebf67cff4add312.raw,0.99969103527'
p258
asS'X-85618da22fed0898aa84036438a597f9'
p259
(lp260
S'22.3.2-7ea4921beff80e610ebf67cff4add312.raw,0.973977695167'
p261
asS'X-27baded43551923511d5f45cf6ce773e'
p262
(lp263
S'22.3.2-7ea4921beff80e610ebf67cff4add312.raw,0.987536656891'
p264
asS'X-f49070814ca651a19cccd797a59637eb'
p265
(lp266
S'22.3.2-7ea4921beff80e610ebf67cff4add312.raw,0.967184801382'
p267
asS'X-639f792800dd610f0384cdae79e1a66f'
p268
(lp269
S'22.3.2-7ea4921beff80e610ebf67cff4add312.raw,0.999829881342'
p270
asS'X-4674755c426322798258868b327fb58a'
p271
(lp272
S'22.3.2-7ea4921beff80e610ebf67cff4add312.raw,0.9375'
p273
asS'X-5572aeea7f1dfc425c86bba1fa820a00'
p274
(lp275
S'22.3.2-7ea4921beff80e610ebf67cff4add312.raw,0.998167379352'
p276
asS'X-4baf59cca508432308094c1815c4e4e5'
p277
(lp278
S'22.3.2-7ea4921beff80e610ebf67cff4add312.raw,0.948979591837'
p279
asS'X-f1edef1a87f7a8d1401c3b92d95cdc5b'
p280
(lp281
S'22.3.2-7ea4921beff80e610ebf67cff4add312.raw,0.921921921922'
p282
asS'X-fc97c0a880356ca414eacb8b18e55a14'
p283
(lp284
S'22.3.2-7ea4921beff80e610ebf67cff4add312.raw,0.953488372093'
p285
asS'X-84ce7126988620e722c844d2b527fe77'
p286
(lp287
S'22.3.2-7ea4921beff80e610ebf67cff4add312.raw,0.838235294118'
p288
asS'X-0a42ba395022870e5bc61003bce0b733'
p289
(lp290
S'22.3.2-7ea4921beff80e610ebf67cff4add312.raw,0.850877192982'
p291
asS'X-1219ac5a09ddb9af04ca43f02c5aaa4f'
p292
(lp293
S'22.3.2-7ea4921beff80e610ebf67cff4add312.raw,0.970588235294'
p294
asS'X-376eacfd628fd961c5a545e771c37484'
p295
(lp296
S'22.3.2-7ea4921beff80e610ebf67cff4add312.raw,0.95530726257'
p297
asS'X-81ff772a50b207f213c967e1873a6464'
p298
(lp299
S'22.3.2-7ea4921beff80e610ebf67cff4add312.raw,0.906451612903'
p300
asS'X-7b1c554367ab9884a38b7544436fb7ae'
p301
(lp302
S'22.3.2-7ea4921beff80e610ebf67cff4add312.raw,0.840707964602'
p303
asS'X-e64259006b7f934dbe69fd3fb17a3667'
p304
(lp305
S'22.3.2-7ea4921beff80e610ebf67cff4add312.raw,0.951406649616'
p306
asS'X-b2642f881cfd74fcd3243a4ff20333e0'
p307
(lp308
S'22.3.2-7ea4921beff80e610ebf67cff4add312.raw,0.972170686456'
p309
asS'X-f8021e38f2f588778ddba727db8fcf3d'
p310
(lp311
S'22.3.2-7ea4921beff80e610ebf67cff4add312.raw,0.972067039106'
p312
asS'X-ea4159b2a9def4995b5bc61fd89653f4'
p313
(lp314
S'22.3.2-7ea4921beff80e610ebf67cff4add312.raw,0.990974729242'
p315
asS'X-7faafa22607a1059ac246c0845a8a581'
p316
(lp317
S'22.3.2-7ea4921beff80e610ebf67cff4add312.raw,0.961009174312'
p318
asS'X-fac397c24600db89d4bee642e51077f8'
p319
(lp320
S'22.3.2-7ea4921beff80e610ebf67cff4add312.raw,0.983050847458'
p321
asS'X-763d94948a4af249e829fe9600d63ea1'
p322
(lp323
S'22.3.2-7ea4921beff80e610ebf67cff4add312.raw,0.823529411765'
p324
asS'X-b938c2288a760feef8668e59bcd0a4b8'
p325
(lp326
S'22.3.2-7ea4921beff80e610ebf67cff4add312.raw,0.953488372093'
p327
asS'X-e8f1a60dbae68e2c0095a6010123f837'
p328
(lp329
S'22.3.2-7ea4921beff80e610ebf67cff4add312.raw,0.973880597015'
p330
asS'X-05fc093a915799b26bfaba386e4a2e99'
p331
(lp332
S'22.3.2-7ea4921beff80e610ebf67cff4add312.raw,0.857142857143'
p333
asS'X-8fe06ea2590cfb7cd12ad5976c879a12'
p334
(lp335
S'22.3.2-7ea4921beff80e610ebf67cff4add312.raw,0.851528384279'
p336
asS'X-8e8bf735097c3726a7f2d93d1685dd5e'
p337
(lp338
S'22.3.2-7ea4921beff80e610ebf67cff4add312.raw,0.990706319703'
p339
asS'X-4589a8015ea19bab17db0bfaaee0b383'
p340
(lp341
S'22.3.2-7ea4921beff80e610ebf67cff4add312.raw,0.999497613665'
p342
asS'X-2c2f033db0c856f51ac4dcac79b65be7'
p343
(lp344
S'22.3.2-7ea4921beff80e610ebf67cff4add312.raw,0.985985160758'
p345
asS'X-43a388b403775c31c99e01bfc4942603'
p346
(lp347
S'22.3.2-7ea4921beff80e610ebf67cff4add312.raw,0.864864864865'
p348
asS'X-6e6239ea695cb04dcba0af4e2818dc10'
p349
(lp350
S'22.3.2-7ea4921beff80e610ebf67cff4add312.raw,0.963553530752'
p351
asS'X-8436baa5bae85d4980ae5becca114ee3'
p352
(lp353
S'22.3.2-7ea4921beff80e610ebf67cff4add312.raw,0.992424242424'
p354
asS'X-883849aee2482dd607be34f2aee470a2'
p355
(lp356
S'22.3.2-7ea4921beff80e610ebf67cff4add312.raw,0.760479041916'
p357
asS'X-bc61b1303e138d206d8b1fdf726c74fd'
p358
(lp359
S'22.3.2-7ea4921beff80e610ebf67cff4add312.raw,0.990700557967'
p360
asS'X-8f813e45e6316925e2ef6eb5e57c3bf1'
p361
(lp362
S'22.3.2-7ea4921beff80e610ebf67cff4add312.raw,0.976623376623'
p363
asS'X-524afcf41560876f9d382d65ab38cde8'
p364
(lp365
S'22.3.2-7ea4921beff80e610ebf67cff4add312.raw,0.928229665072'
p366
asS'X-c2fdc1c028c70b8b7f668555dfb7d937'
p367
(lp368
S'22.3.2-7ea4921beff80e610ebf67cff4add312.raw,0.944700460829'
p369
asS'X-465e40fe029c4486e7704653ddea14e5'
p370
(lp371
S'22.3.2-7ea4921beff80e610ebf67cff4add312.raw,0.999693735717'
p372
asS'X-bfc18c453e0a991722a32067c0281a60'
p373
(lp374
S'22.3.2-7ea4921beff80e610ebf67cff4add312.raw,0.914215686275'
p375
asS'X-bb228d079d19e623ed5c40a1be3ed1b3'
p376
(lp377
S'22.3.2-7ea4921beff80e610ebf67cff4add312.raw,0.875518672199'
p378
asS'X-dcf2f5dfea97f5f504fa280382785ff4'
p379
(lp380
S'22.3.2-7ea4921beff80e610ebf67cff4add312.raw,0.906432748538'
p381
asS'X-72bc6051ef3881f0277ab28d5095b98f'
p382
(lp383
S'22.3.2-7ea4921beff80e610ebf67cff4add312.raw,0.913242009132'
p384
asS'X-a263df259878def02ca9a0cc7ea060e3'
p385
(lp386
S'22.3.2-7ea4921beff80e610ebf67cff4add312.raw,0.853333333333'
p387
asS'X-21bc928f622c4841d6c567163670ae96'
p388
(lp389
S'22.3.2-7ea4921beff80e610ebf67cff4add312.raw,0.989231873654'
p390
asS'X-7a0f9685acf7fe2ff5fe5f99fe1ba9b4'
p391
(lp392
S'22.3.2-7ea4921beff80e610ebf67cff4add312.raw,0.878378378378'
p393
asS'X-9ef95cf7d562cc26e48f7daf0b934709'
p394
(lp395
S'22.3.2-7ea4921beff80e610ebf67cff4add312.raw,0.998318762609'
p396
asS'X-76c1bf7150f4620ea7dd6cff576e478f'
p397
(lp398
S'22.3.2-7ea4921beff80e610ebf67cff4add312.raw,0.995462280204'
p399
asS'X-72dd4a60007234b1cce23b026c98c93e'
p400
(lp401
S'22.3.2-7ea4921beff80e610ebf67cff4add312.raw,0.970840480274'
p402
asS'X-8c08961842244a04c0a67694fc57178a'
p403
(lp404
S'22.3.2-7ea4921beff80e610ebf67cff4add312.raw,0.972677595628'
p405
asS'X-21109c3038fd6a18b65029ac379fe618'
p406
(lp407
S'22.3.2-7ea4921beff80e610ebf67cff4add312.raw,0.960784313725'
p408
asS'X-5040ddc71134e13352a2893a838eb0f0'
p409
(lp410
S'22.3.2-7ea4921beff80e610ebf67cff4add312.raw,0.919117647059'
p411
asS'X-441be4489884b3d62a625811a5a312bb'
p412
(lp413
S'22.3.2-7ea4921beff80e610ebf67cff4add312.raw,0.922141119221'
p414
asS'X-97c0e69f444f26f4f2daf1964d191de5'
p415
(lp416
S'22.3.2-7ea4921beff80e610ebf67cff4add312.raw,0.852272727273'
p417
asS'X-d335c1f596d3b6eea0f2d67b9d46e7d4'
p418
(lp419
S'22.3.2-7ea4921beff80e610ebf67cff4add312.raw,0.941624365482'
p420
asS'X-d99c6ba0c152c5c39634203d5402cd54'
p421
(lp422
S'22.3.2-7ea4921beff80e610ebf67cff4add312.raw,0.992220227409'
p423
asS'X-833701d8e7b6e8c61f56097884979205'
p424
(lp425
S'22.3.2-7ea4921beff80e610ebf67cff4add312.raw,0.941624365482'
p426
asS'X-ae09590cf3685397c762ce851a570f43'
p427
(lp428
S'22.3.2-7ea4921beff80e610ebf67cff4add312.raw,0.901639344262'
p429
asS'X-e3d87d8051fef0ef16d30fbfb5295ff8'
p430
(lp431
S'22.3.2-7ea4921beff80e610ebf67cff4add312.raw,0.991698948533'
p432
asS'X-3632d525c0375debfbcf3fa1685d3e06'
p433
(lp434
S'22.3.2-7ea4921beff80e610ebf67cff4add312.raw,0.891891891892'
p435
asS'X-7b0cc04bba7059830ce1071e3630dd73'
p436
(lp437
S'22.3.2-7ea4921beff80e610ebf67cff4add312.raw,0.951406649616'
p438
asS'X-0a4f81e9928507618f8346d0718b0f33'
p439
(lp440
S'22.3.2-7ea4921beff80e610ebf67cff4add312.raw,0.918719211823'
p441
asS'X-ce4fbd971978d34045431a0b562c220f'
p442
(lp443
S'22.3.2-7ea4921beff80e610ebf67cff4add312.raw,0.990482233503'
p444
asS'X-1f677f8330db77c04c26acddfe0bd221'
p445
(lp446
S'22.3.2-7ea4921beff80e610ebf67cff4add312.raw,0.924170616114'
p447
asS'X-d330dff45c186b64deb27747a5aba5c6'
p448
(lp449
S'22.3.2-7ea4921beff80e610ebf67cff4add312.raw,0.946428571429'
p450
asS'X-9a75a7da7ebf086c5155436c4134f621'
p451
(lp452
S'22.3.2-7ea4921beff80e610ebf67cff4add312.raw,0.853211009174'
p453
asS'X-ce3f660550fffdbe2acd2ec7d3b9a6bb'
p454
(lp455
S'22.3.2-7ea4921beff80e610ebf67cff4add312.raw,0.960747663551'
p456
asS'X-538a6328769a08d52c510a89efd9adbd'
p457
(lp458
S'22.3.2-7ea4921beff80e610ebf67cff4add312.raw,0.948586118252'
p459
asS'X-8674d835be2ed391ae41b34302b3cd06'
p460
(lp461
S'22.3.2-7ea4921beff80e610ebf67cff4add312.raw,0.912832929782'
p462
asS'X-e24025dd00a61b8c5c4a721ce811d5a1'
p463
(lp464
S'22.3.2-7ea4921beff80e610ebf67cff4add312.raw,0.914215686275'
p465
asS'X-b88d8381e22f682a11b88bd12abcf2a9'
p466
(lp467
S'22.3.2-7ea4921beff80e610ebf67cff4add312.raw,0.914841849148'
p468
asS'X-67f50348cdb4f954144abb01cbdaa56a'
p469
(lp470
S'22.3.2-7ea4921beff80e610ebf67cff4add312.raw,0.968911917098'
p471
asS'X-c2233f22f22be5c802d20e637b3c3e63'
p472
(lp473
S'22.3.2-7ea4921beff80e610ebf67cff4add312.raw,0.941666666667'
p474
asS'X-45af7ce010414b1ef67a4b264f4574e9'
p475
(lp476
S'22.3.2-7ea4921beff80e610ebf67cff4add312.raw,0.91975308642'
p477
asS'X-5f658874733479ffd09b9a37b489be0e'
p478
(lp479
S'22.3.2-7ea4921beff80e610ebf67cff4add312.raw,0.968911917098'
p480
asS'X-588d76e9999dda09d6ececc0df99b7ef'
p481
(lp482
S'22.3.2-7ea4921beff80e610ebf67cff4add312.raw,0.911764705882'
p483
asS'X-95cc9608193f7cb0b2d43649da16827a'
p484
(lp485
S'22.3.2-7ea4921beff80e610ebf67cff4add312.raw,0.977391304348'
p486
asS'X-b310cb8e18d28b6d04f2fdbcda14e32c'
p487
(lp488
S'22.3.2-7ea4921beff80e610ebf67cff4add312.raw,0.999435984208'
p489
asS'X-661e2f43801e5a1c703ef834ad07c4e5'
p490
(lp491
S'22.3.2-7ea4921beff80e610ebf67cff4add312.raw,0.924083769634'
p492
asS'X-1a83f02d7e4f2e5ba60c06948cc43a63'
p493
(lp494
S'22.3.2-7ea4921beff80e610ebf67cff4add312.raw,0.949109414758'
p495
asS'X-47406dc1a17fef6dbd7e04a23009aea2'
p496
(lp497
S'22.3.2-7ea4921beff80e610ebf67cff4add312.raw,0.877118644068'
p498
asS'X-6b8b20fa199e299c2eba3c0f28961f58'
p499
(lp500
S'22.3.2-7ea4921beff80e610ebf67cff4add312.raw,0.978984238179'
p501
asS'X-9be7ffebba72896b72be3f5c1a631a39'
p502
(lp503
S'22.3.2-7ea4921beff80e610ebf67cff4add312.raw,0.951156812339'
p504
asS'X-41e5bfeeb9be9915aa2ad14a6ca5df38'
p505
(lp506
S'22.3.2-7ea4921beff80e610ebf67cff4add312.raw,0.99052432091'
p507
asS'X-c2d6aadb57d869b3b3c1ab3910c4ce32'
p508
(lp509
S'22.3.2-7ea4921beff80e610ebf67cff4add312.raw,0.95165394402'
p510
asS'X-8db965db06833272e2f08ea56bdc4893'
p511
(lp512
S'22.3.2-7ea4921beff80e610ebf67cff4add312.raw,0.968965517241'
p513
asS'X-803c286da581ce3ea862dd9f0c965c58'
p514
(lp515
S'22.3.2-7ea4921beff80e610ebf67cff4add312.raw,0.930521091811'
p516
asS'X-376df8e2890be345644c9eb21edcc0c2'
p517
(lp518
S'22.3.2-7ea4921beff80e610ebf67cff4add312.raw,0.913253012048'
p519
asS'X-bf53ce97192b98082041861d94c1c66d'
p520
(lp521
S'22.3.2-7ea4921beff80e610ebf67cff4add312.raw,0.907317073171'
p522
asS'X-4ea9a106f3ceb9f8e41e3971372a5b80'
p523
(lp524
S'22.3.2-7ea4921beff80e610ebf67cff4add312.raw,0.953125'
p525
asS'X-d8cc6c5d266cc0f819ada1e7e3b408de'
p526
(lp527
S'22.3.2-7ea4921beff80e610ebf67cff4add312.raw,0.991023339318'
p528
asS'X-c075b645f0c2db87a71fbe96145da01e'
p529
(lp530
S'22.3.2-7ea4921beff80e610ebf67cff4add312.raw,0.948586118252'
p531
asS'X-27b47fa9bca4e0a5103987535deb0e95'
p532
(lp533
S'22.3.2-7ea4921beff80e610ebf67cff4add312.raw,0.99053030303'
p534
asS'X-1696a515869561fefa5b974e4ded409f'
p535
(lp536
S'22.3.2-7ea4921beff80e610ebf67cff4add312.raw,0.955357142857'
p537
asS'X-f9391bbac69bb0c2a71533c953ebf953'
p538
(lp539
S'22.3.2-7ea4921beff80e610ebf67cff4add312.raw,0.999685175711'
p540
asS'X-7533831c525db83711d8a5e5b17c4494'
p541
(lp542
S'22.3.2-7ea4921beff80e610ebf67cff4add312.raw,0.948979591837'
p543
asS'X-b560b7064f14a5ab7d4e7cfbf8e3895d'
p544
(lp545
S'22.3.2-7ea4921beff80e610ebf67cff4add312.raw,0.891891891892'
p546
asS'X-ba62ae5fc2dee33a8bfe1567fd29258d'
p547
(lp548
S'22.3.2-7ea4921beff80e610ebf67cff4add312.raw,0.923456790123'
p549
asS'X-b85f89ede73fdadf29291908a8b78c32'
p550
(lp551
S'22.3.2-7ea4921beff80e610ebf67cff4add312.raw,0.925110132159'
p552
asS'X-f1a66faba79d22784d42dc5ba0783eca'
p553
(lp554
S'22.3.2-7ea4921beff80e610ebf67cff4add312.raw,0.963893249608'
p555
asS'X-2dbdb4494298bf26d847e92d81e14bd0'
p556
(lp557
S'22.3.2-7ea4921beff80e610ebf67cff4add312.raw,0.93654822335'
p558
asS'X-1f9d84c763a062a5bd0f715556924ead'
p559
(lp560
S'22.3.2-7ea4921beff80e610ebf67cff4add312.raw,0.99649859944'
p561
asS'X-c719752082a284eb6fa4d8d813969c5f'
p562
(lp563
S'22.3.2-7ea4921beff80e610ebf67cff4add312.raw,0.891891891892'
p564
asS'X-fa787e3a1030c3191bc0be3186058076'
p565
(lp566
S'22.3.2-7ea4921beff80e610ebf67cff4add312.raw,0.901639344262'
p567
asS'X-2e5cc7caf3fb217c4958dc3da6aef71f'
p568
(lp569
S'22.3.2-7ea4921beff80e610ebf67cff4add312.raw,0.987644787645'
p570
asS'X-e7e2c77eb9c779bbbaf41a64136fc3a7'
p571
(lp572
S'22.3.2-7ea4921beff80e610ebf67cff4add312.raw,0.891891891892'
p573
asS'X-3e6b558dfe6bd1022cd8795f03d588c2'
p574
(lp575
S'22.3.2-7ea4921beff80e610ebf67cff4add312.raw,0.969178082192'
p576
asS'X-35b4ed967a8f4ed7b5edb54889ccb2d0'
p577
(lp578
S'22.3.2-7ea4921beff80e610ebf67cff4add312.raw,0.990723562152'
p579
asS'X-5016bd99870c1450959c74d45aa70a57'
p580
(lp581
S'22.3.2-7ea4921beff80e610ebf67cff4add312.raw,0.797297297297'
p582
asS'X-daef1845872f11c5321c8e34e148c161'
p583
(lp584
S'22.3.2-7ea4921beff80e610ebf67cff4add312.raw,0.97027027027'
p585
asS'X-d14c57e8b3622307af61355b15d15258'
p586
(lp587
S'22.3.2-7ea4921beff80e610ebf67cff4add312.raw,0.929061784897'
p588
asS'X-c754d4a71cc78223123a7d97a73eb21e'
p589
(lp590
S'22.3.2-7ea4921beff80e610ebf67cff4add312.raw,0.96335078534'
p591
asS'X-554565ca4477203b0bf2705cb9030145'
p592
(lp593
S'22.3.2-7ea4921beff80e610ebf67cff4add312.raw,0.948402948403'
p594
asS'X-6ff5ffe481b61b20daecf8426ed3a644'
p595
(lp596
S'22.3.2-7ea4921beff80e610ebf67cff4add312.raw,0.841346153846'
p597
asS'X-d0cf0c080368e88cf248b3d7b76e23ef'
p598
(lp599
S'22.3.2-7ea4921beff80e610ebf67cff4add312.raw,0.999691387333'
p600
asS'X-4505ff46edb384e57c86ee315ab557f3'
p601
(lp602
S'22.3.2-7ea4921beff80e610ebf67cff4add312.raw,0.972014925373'
p603
asS'X-26c87974f706349ff1d9ca7d5aac6046'
p604
(lp605
S'22.3.2-7ea4921beff80e610ebf67cff4add312.raw,0.844559585492'
p606
asS'X-1b5ea81705803dab62458f545ac54d10'
p607
(lp608
S'22.3.2-7ea4921beff80e610ebf67cff4add312.raw,0.953488372093'
p609
asS'X-8e43e737d6b80310b2bcaedf408de2f5'
p610
(lp611
S'22.3.2-7ea4921beff80e610ebf67cff4add312.raw,0.905405405405'
p612
asS'X-fcd21cbc517045aae57a3625c8acdf08'
p613
(lp614
S'22.3.2-7ea4921beff80e610ebf67cff4add312.raw,0.961773700306'
p615
asS'X-f64fa28f2b2fc512ffbb9941ef80d7c2'
p616
(lp617
S'22.3.2-7ea4921beff80e610ebf67cff4add312.raw,0.998427947598'
p618
asS'X-99d39aaeaac93936c8d0906fc719dca7'
p619
(lp620
S'22.3.2-7ea4921beff80e610ebf67cff4add312.raw,0.960591133005'
p621
asS'X-0fc9d5b05493f2272da182f9a8dbe58e'
p622
(lp623
S'22.3.2-7ea4921beff80e610ebf67cff4add312.raw,0.931972789116'
p624
asS'X-230837a58db4a6e182b73873cea7d551'
p625
(lp626
S'22.3.2-7ea4921beff80e610ebf67cff4add312.raw,0.914841849148'
p627
asS'X-0c5c0cfc6e7d9297c8b594729dc212ed'
p628
(lp629
S'22.3.2-7ea4921beff80e610ebf67cff4add312.raw,0.948979591837'
p630
asS'X-cfa7996d8717efe7ef7c9d1a91ad8b8a'
p631
(lp632
S'22.3.2-7ea4921beff80e610ebf67cff4add312.raw,0.755813953488'
p633
asS'X-07074fc3ba5bca376543e0f154e87526'
p634
(lp635
S'22.3.2-7ea4921beff80e610ebf67cff4add312.raw,0.795180722892'
p636
asS'X-407466c22d7d00365895a066cb5d83d0'
p637
(lp638
S'22.3.2-7ea4921beff80e610ebf67cff4add312.raw,0.978102189781'
p639
asS'X-7872d6c9941c63499ccef99cff958ab7'
p640
(lp641
S'22.3.2-7ea4921beff80e610ebf67cff4add312.raw,0.968965517241'
p642
asS'X-d6613c2282b3f3016bb7da88d3ae5380'
p643
(lp644
S'22.3.2-7ea4921beff80e610ebf67cff4add312.raw,0.963779527559'
p645
asS'X-031fbcd9e9b46fb6ed7b2cec0ad28e0f'
p646
(lp647
S'22.3.2-7ea4921beff80e610ebf67cff4add312.raw,0.972627737226'
p648
asS'X-e330f62b02f4e7aff56461f1165d9613'
p649
(lp650
S'22.3.2-7ea4921beff80e610ebf67cff4add312.raw,0.857142857143'
p651
asS'X-875a53693d0ab98164b108a1a53f8f8a'
p652
(lp653
S'22.3.2-7ea4921beff80e610ebf67cff4add312.raw,0.919315403423'
p654
asS'X-aa2f7a64a0ac2fca4637c0dc94ab9408'
p655
(lp656
S'22.3.2-7ea4921beff80e610ebf67cff4add312.raw,0.946291560102'
p657
asS'X-599758ddca3951ba71e9fdb911591669'
p658
(lp659
S'22.3.2-7ea4921beff80e610ebf67cff4add312.raw,0.9475'
p660
asS'X-a6d5309f48cbb3db10668f62f95f984d'
p661
(lp662
S'22.3.2-7ea4921beff80e610ebf67cff4add312.raw,0.948979591837'
p663
asS'X-866d547d34cb11fd54aa8d92e0540af8'
p664
(lp665
S'22.3.2-7ea4921beff80e610ebf67cff4add312.raw,0.948979591837'
p666
asS'X-0ce5ad09fa7f4ac9eac8b2d767d2d12e'
p667
(lp668
S'22.3.2-7ea4921beff80e610ebf67cff4add312.raw,0.997975708502'
p669
asS'X-6bcde0e2089cdaf3321f0a1b341917fa'
p670
(lp671
S'22.3.2-7ea4921beff80e610ebf67cff4add312.raw,0.997483413407'
p672
asS'X-e40864ec00cd03e88b2164479a48441a'
p673
(lp674
S'22.3.2-7ea4921beff80e610ebf67cff4add312.raw,0.991028708134'
p675
asS'X-2654827c0652cd24ab9a80b8b5cdc780'
p676
(lp677
S'22.3.2-7ea4921beff80e610ebf67cff4add312.raw,0.94262295082'
p678
asS'X-64306b5b4abdf68385c4ba4aa585dd82'
p679
(lp680
S'22.3.2-7ea4921beff80e610ebf67cff4add312.raw,0.940828402367'
p681
asS'X-a8c3b4890d3962101315a229ca78f15b'
p682
(lp683
S'22.3.2-7ea4921beff80e610ebf67cff4add312.raw,0.99877921172'
p684
asS'X-6bafcbc2a20a61bb7840fb37c50f10be'
p685
(lp686
S'22.3.2-7ea4921beff80e610ebf67cff4add312.raw,0.928571428571'
p687
asS'X-5cc1b3239a5f40087ee3561ad3d15c86'
p688
(lp689
S'22.3.2-7ea4921beff80e610ebf67cff4add312.raw,0.905405405405'
p690
asS'X-f8b526be4149e79f4589c737d940e5fe'
p691
(lp692
S'22.3.2-7ea4921beff80e610ebf67cff4add312.raw,0.930715935335'
p693
asS'X-6db8b64509fac22da28539e8a3579aed'
p694
(lp695
S'22.3.2-7ea4921beff80e610ebf67cff4add312.raw,0.944444444444'
p696
asS'X-51499c0de97fce0689e3a7f06f1d9c15'
p697
(lp698
S'22.3.2-7ea4921beff80e610ebf67cff4add312.raw,0.999786265416'
p699
asS'X-cb40b648fa9f42167f135b8a8bcd94e7'
p700
(lp701
S'22.3.2-7ea4921beff80e610ebf67cff4add312.raw,0.864864864865'
p702
asS'X-8d1faafcc86e55af084b699f9c0794dc'
p703
(lp704
S'22.3.2-7ea4921beff80e610ebf67cff4add312.raw,0.960655737705'
p705
asS'X-b2fe357d87bf419c9edabdb522eef578'
p706
(lp707
S'22.3.2-7ea4921beff80e610ebf67cff4add312.raw,0.909535452323'
p708
asS'X-25a02db7969500d643ec11054ba3a0a9'
p709
(lp710
S'22.3.2-7ea4921beff80e610ebf67cff4add312.raw,0.974405850091'
p711
asS'X-bb7f423913987741658bcf3160f5b57f'
p712
(lp713
S'22.3.2-7ea4921beff80e610ebf67cff4add312.raw,0.928571428571'
p714
asS'X-1c46d11a2ce6b7597e4b854d726fc93e'
p715
(lp716
S'22.3.2-7ea4921beff80e610ebf67cff4add312.raw,0.989873417722'
p717
asS'X-14fa1ec66bfda56b45f41eec4cb519cf'
p718
(lp719
S'22.3.2-7ea4921beff80e610ebf67cff4add312.raw,0.934560327198'
p720
asS'X-e19daae7d8a8b8a2f4609f9fc55e0333'
p721
(lp722
S'22.3.2-7ea4921beff80e610ebf67cff4add312.raw,0.919117647059'
p723
asS'X-4d72f046932120ad390bb471e78bb9cc'
p724
(lp725
S'22.3.2-7ea4921beff80e610ebf67cff4add312.raw,0.932790224033'
p726
asS'X-e8e6f0d40e0e315832b8b56198ee26c9'
p727
(lp728
S'22.3.2-7ea4921beff80e610ebf67cff4add312.raw,0.909535452323'
p729
asS'X-703a5e83770f79fcb286272961746579'
p730
(lp731
S'22.3.2-7ea4921beff80e610ebf67cff4add312.raw,0.985494106981'
p732
asS'X-57a640987da22c02af6f495067bff0f4'
p733
(lp734
S'22.3.2-7ea4921beff80e610ebf67cff4add312.raw,0.927884615385'
p735
asS'X-b32f24aec90f394a081c5b2871676248'
p736
(lp737
S'22.3.2-7ea4921beff80e610ebf67cff4add312.raw,0.958057395143'
p738
asS'X-deeef748a4ab9e5466ab06d8b9a4c772'
p739
(lp740
S'22.3.2-7ea4921beff80e610ebf67cff4add312.raw,0.991596638655'
p741
asS'X-c02b88168fc8529ab7e0b129bc65fbf2'
p742
(lp743
S'22.3.2-7ea4921beff80e610ebf67cff4add312.raw,0.905405405405'
p744
asS'X-1e0306779f2b2d4b2b860cbf7af634e8'
p745
(lp746
S'22.3.2-7ea4921beff80e610ebf67cff4add312.raw,0.873417721519'
p747
asS'X-66e0339fc12309e46f9c81db9c7f40c5'
p748
(lp749
S'22.3.2-7ea4921beff80e610ebf67cff4add312.raw,0.78125'
p750
asS'X-d40b89ce9837f1077fbb253d1e7336bd'
p751
(lp752
S'22.3.2-7ea4921beff80e610ebf67cff4add312.raw,0.991097922849'
p753
asS'X-12f2a65c61399f07f2b0f9fb4bb26e5f'
p754
(lp755
S'22.3.2-7ea4921beff80e610ebf67cff4add312.raw,0.972170686456'
p756
asS'X-1988094280083fca5ba92a8ccb127a53'
p757
(lp758
S'22.3.2-7ea4921beff80e610ebf67cff4add312.raw,0.942065491184'
p759
asS'X-49194b863c915bce033cdd0e03c65101'
p760
(lp761
S'22.3.2-7ea4921beff80e610ebf67cff4add312.raw,0.999783385682'
p762
asS'X-6a6693cdd7b7280c84803147bd9b00bd'
p763
(lp764
S'22.3.2-7ea4921beff80e610ebf67cff4add312.raw,0.939698492462'
p765
asS'X-8bc2fe08966a34b63a286464a6611dd4'
p766
(lp767
S'22.3.2-7ea4921beff80e610ebf67cff4add312.raw,0.982109227872'
p768
asS'X-e5bb7fb55243e5e45d170a7ae35e4cd5'
p769
(lp770
S'22.3.2-7ea4921beff80e610ebf67cff4add312.raw,0.783439490446'
p771
asS'X-23125da52401bdff58894813a4e6debc'
p772
(lp773
S'22.3.2-7ea4921beff80e610ebf67cff4add312.raw,0.984725965858'
p774
asS'X-d23274a65c55e09d724aca9cafbb0fd5'
p775
(lp776
S'22.3.2-7ea4921beff80e610ebf67cff4add312.raw,0.919512195122'
p777
asS'X-9b9cb7c4923f077d02cb74da84ae5be2'
p778
(lp779
S'22.3.2-7ea4921beff80e610ebf67cff4add312.raw,0.974421437272'
p780
asS'X-c81b7cc6fc22f8cc6c84b4d78e5b30e3'
p781
(lp782
S'22.3.2-7ea4921beff80e610ebf67cff4add312.raw,0.960451977401'
p783
asS'X-ef82c21b7e08021ad802af84ba9c53ed'
p784
(lp785
S'22.3.2-7ea4921beff80e610ebf67cff4add312.raw,0.995931858632'
p786
asS'X-9ddd7121d34a2aad92337481a56feb2e'
p787
(lp788
S'22.3.2-7ea4921beff80e610ebf67cff4add312.raw,0.991150442478'
p789
asS'X-eb94c335b2f8eef4c8b2be0de5629aef'
p790
(lp791
S'22.3.2-7ea4921beff80e610ebf67cff4add312.raw,0.990518331226'
p792
asS'X-823ed990cf1ab272735164bf33dfba21'
p793
(lp794
S'22.3.2-7ea4921beff80e610ebf67cff4add312.raw,0.935146443515'
p795
asS'X-45f1624fd43e3eacbe38655d3fb168c6'
p796
(lp797
S'22.3.2-7ea4921beff80e610ebf67cff4add312.raw,0.999827348066'
p798
asS'X-0659d86e3c338efac9ee1811f968008b'
p799
(lp800
S'22.3.2-7ea4921beff80e610ebf67cff4add312.raw,0.999826633438'
p801
asS'X-0b38c4210dcf50fb80b7e58759f615d9'
p802
(lp803
S'22.3.2-7ea4921beff80e610ebf67cff4add312.raw,0.977150537634'
p804
asS'X-18fa5eb6071a1ad07277d918a85952a4'
p805
(lp806
S'22.3.2-7ea4921beff80e610ebf67cff4add312.raw,0.993039443155'
p807
asS'X-404012028d685a13e583a12834b4dd44'
p808
(lp809
S'22.3.2-7ea4921beff80e610ebf67cff4add312.raw,0.971804511278'
p810
asS'X-69378af0f5473a560099fe6a7dce9f15'
p811
(lp812
S'22.3.2-7ea4921beff80e610ebf67cff4add312.raw,0.933333333333'
p813
asS'X-bf303029a4cc191ae92a3739848f7346'
p814
(lp815
S'22.3.2-7ea4921beff80e610ebf67cff4add312.raw,0.973913043478'
p816
asS'X-1f3b70f3b93f160ebcf9611a7586dff6'
p817
(lp818
S'22.3.2-7ea4921beff80e610ebf67cff4add312.raw,0.853982300885'
p819
asS'X-f3b2515c0d59d3bc0e1c1f111e6c0bf6'
p820
(lp821
S'22.3.2-7ea4921beff80e610ebf67cff4add312.raw,0.95165394402'
p822
asS'X-ada7e0f8cfce83049b6c0cfdc6303032'
p823
(lp824
S'22.3.2-7ea4921beff80e610ebf67cff4add312.raw,0.950276243094'
p825
asS'X-6eb6eb12ed8465ae49895e1c660b998a'
p826
(lp827
S'22.3.2-7ea4921beff80e610ebf67cff4add312.raw,0.947712418301'
p828
asS'X-f71f8e6119578397389a1fab24573ee5'
p829
(lp830
S'22.3.2-7ea4921beff80e610ebf67cff4add312.raw,0.944584382872'
p831
asS'X-d09bb64671e4469c76af5b19294a9d3d'
p832
(lp833
S'22.3.2-7ea4921beff80e610ebf67cff4add312.raw,0.996855345912'
p834
asS'X-86de1c57d39d2dd1327c593cbfd217de'
p835
(lp836
S'22.3.2-7ea4921beff80e610ebf67cff4add312.raw,0.951156812339'
p837
asS'X-c6090eb1bfe98c7697bd41d43e750f3b'
p838
(lp839
S'22.3.2-7ea4921beff80e610ebf67cff4add312.raw,0.953608247423'
p840
asS'X-a71d7fdfb3334cdbc594b917e487050a'
p841
(lp842
S'22.3.2-7ea4921beff80e610ebf67cff4add312.raw,0.942720763723'
p843
asS'X-4c3061078b6b48f0f4ca616f77c5f6b7'
p844
(lp845
S'22.3.2-7ea4921beff80e610ebf67cff4add312.raw,0.965134706815'
p846
asS'X-238031ef4ea596dc1ef4fd7476cff082'
p847
(lp848
S'22.3.2-7ea4921beff80e610ebf67cff4add312.raw,0.999690910388'
p849
asS'X-69b043b4b64342cae7e0245c74a57fbe'
p850
(lp851
S'22.3.2-7ea4921beff80e610ebf67cff4add312.raw,0.953727506427'
p852
asS'X-1a44528b12c6073b1286334edc1dde53'
p853
(lp854
S'22.3.2-7ea4921beff80e610ebf67cff4add312.raw,0.962540716612'
p855
asS'X-b48e8b8512153f9af9f79a5d64f0f697'
p856
(lp857
S'22.3.2-7ea4921beff80e610ebf67cff4add312.raw,0.908212560386'
p858
asS'X-3bf4d445940f6df9f8fc0ef0d4b43d1d'
p859
(lp860
S'22.3.2-7ea4921beff80e610ebf67cff4add312.raw,0.950649350649'
p861
asS'X-dcbc01f6cec0bac5b6f1720f8e39f5cf'
p862
(lp863
S'22.3.2-7ea4921beff80e610ebf67cff4add312.raw,0.853773584906'
p864
asS'X-04ce1c798bc8aaa170e64af3b57579e3'
p865
(lp866
S'22.3.2-7ea4921beff80e610ebf67cff4add312.raw,0.971014492754'
p867
asS'X-c7972dac9bd34b800ff6cf7b6a818b2a'
p868
(lp869
S'22.3.2-7ea4921beff80e610ebf67cff4add312.raw,0.878378378378'
p870
asS'X-b71aef3a65f3d42268867dd6680f23cd'
p871
(lp872
S'22.3.2-7ea4921beff80e610ebf67cff4add312.raw,0.991671624033'
p873
asS'X-ea7a99addeaac81cb0bd513d0fe13e8b'
p874
(lp875
S'22.3.2-7ea4921beff80e610ebf67cff4add312.raw,0.992520897492'
p876
asS'X-4be3fc3f9768da33010107cb66d17779'
p877
(lp878
S'22.3.2-7ea4921beff80e610ebf67cff4add312.raw,0.941011235955'
p879
asS'X-97b8c4f03ba90f8d7b8ada1f1f7df26b'
p880
(lp881
S'22.3.2-7ea4921beff80e610ebf67cff4add312.raw,0.941624365482'
p882
asS'X-2ac83135fd8b18a8a28e8b85550c8a98'
p883
(lp884
S'22.3.2-7ea4921beff80e610ebf67cff4add312.raw,0.948320413437'
p885
asS'X-48b2f605aa6084ffaacf29352e12175c'
p886
(lp887
S'22.3.2-7ea4921beff80e610ebf67cff4add312.raw,0.919786096257'
p888
asS'X-1a8c7b56bf2b8c8789f3da7d7918abe9'
p889
(lp890
S'22.3.2-7ea4921beff80e610ebf67cff4add312.raw,0.951530612245'
p891
asS'X-db93f66aa4530c8169c3f28021eced31'
p892
(lp893
S'22.3.2-7ea4921beff80e610ebf67cff4add312.raw,0.972273567468'
p894
asS'X-bdc4e5ff4b299ca08424d87aa204c33b'
p895
(lp896
S'22.3.2-7ea4921beff80e610ebf67cff4add312.raw,0.952182952183'
p897
asS'X-f271bb54edeeb717899708cf762dce3e'
p898
(lp899
S'22.3.2-7ea4921beff80e610ebf67cff4add312.raw,0.951530612245'
p900
asS'X-85ab0ed75fd4fb1fff8907c5a31da57c'
p901
(lp902
S'22.3.2-7ea4921beff80e610ebf67cff4add312.raw,0.968695652174'
p903
asS'X-435d9e2d9388d45f497ca8f7b8700ef2'
p904
(lp905
S'22.3.2-7ea4921beff80e610ebf67cff4add312.raw,0.998249027237'
p906
asS'X-fef80002c4b4efc8abfb4df71b885f5f'
p907
(lp908
S'22.3.2-7ea4921beff80e610ebf67cff4add312.raw,0.983175604627'
p909
asS'X-d2ab2bb875413bb0102d62252e13ef10'
p910
(lp911
S'22.3.2-7ea4921beff80e610ebf67cff4add312.raw,0.99972458294'
p912
asS'X-00b03655fe38c76483b81db6f160430e'
p913
(lp914
S'22.3.2-7ea4921beff80e610ebf67cff4add312.raw,0.989886219975'
p915
asS'X-9e6cbadb858e4cc505fc9d2a5dd5fe2f'
p916
(lp917
S'22.3.2-7ea4921beff80e610ebf67cff4add312.raw,0.948717948718'
p918
asS'X-3eaa617b5e7e1015f48e9b593b8e99e5'
p919
(lp920
S'22.3.2-7ea4921beff80e610ebf67cff4add312.raw,0.891891891892'
p921
asS'X-6f62d2dbbfcb10f1e065af4148f96193'
p922
(lp923
S'22.3.2-7ea4921beff80e610ebf67cff4add312.raw,0.847161572052'
p924
asS'X-77c28e280896e2c806fc0ad592658ab4'
p925
(lp926
S'22.3.2-7ea4921beff80e610ebf67cff4add312.raw,0.917874396135'
p927
asS'X-855a4a2cc498e82b2057ff97611216e4'
p928
(lp929
S'22.3.2-7ea4921beff80e610ebf67cff4add312.raw,0.975438596491'
p930
asS'X-7e50d647ab9a4fdf2198d8587ae3c785'
p931
(lp932
S'22.3.2-7ea4921beff80e610ebf67cff4add312.raw,0.99982891726'
p933
asS'X-bbc1dfbd88771c9703f2121339a182c1'
p934
(lp935
S'22.3.2-7ea4921beff80e610ebf67cff4add312.raw,0.978935698448'
p936
asS'X-e50cc0fec71d2dc3b56fda7fee7bb29d'
p937
(lp938
S'22.3.2-7ea4921beff80e610ebf67cff4add312.raw,0.951030927835'
p939
asS'X-112e0a6efe58a67ed5eae9fd748b927f'
p940
(lp941
S'22.3.2-7ea4921beff80e610ebf67cff4add312.raw,0.941919191919'
p942
asS'X-d5415f4ae4395794e01e4c3d04d40d05'
p943
(lp944
S'22.3.2-7ea4921beff80e610ebf67cff4add312.raw,0.970425138632'
p945
asS'X-bd8dee50439ccc5265397a15146ff945'
p946
(lp947
S'22.3.2-7ea4921beff80e610ebf67cff4add312.raw,0.971014492754'
p948
asS'X-23670b5682430a7e3542dd3a41c144a8'
p949
(lp950
S'22.3.2-7ea4921beff80e610ebf67cff4add312.raw,0.953727506427'
p951
asS'X-b440543b3e2ddafc589256988548502e'
p952
(lp953
S'22.3.2-7ea4921beff80e610ebf67cff4add312.raw,0.950276243094'
p954
asS'X-57e6f1be2790d09312f938007fdcc179'
p955
(lp956
S'22.3.2-7ea4921beff80e610ebf67cff4add312.raw,0.96223316913'
p957
asS'X-cc2036e2196257696127c12f24b01633'
p958
(lp959
S'22.3.2-7ea4921beff80e610ebf67cff4add312.raw,0.919117647059'
p960
asS'X-33036bf2dc964faa08a8c742f7264992'
p961
(lp962
S'22.3.2-7ea4921beff80e610ebf67cff4add312.raw,0.970849176172'
p963
asS'X-8b64c00402cd87a0a39256233c2d726b'
p964
(lp965
S'22.3.2-7ea4921beff80e610ebf67cff4add312.raw,0.932352941176'
p966
asS'X-379aa36bd2e90b9a3f3b61c3489540d1'
p967
(lp968
S'22.3.2-7ea4921beff80e610ebf67cff4add312.raw,0.990694789082'
p969
asS'X-bb79f348f01531c850f0784255672114'
p970
(lp971
S'22.3.2-7ea4921beff80e610ebf67cff4add312.raw,0.854545454545'
p972
asS'X-18c0a5ffc80e1aa225b16a7695730abd'
p973
(lp974
S'22.3.2-7ea4921beff80e610ebf67cff4add312.raw,0.997322348095'
p975
asS'X-2bfa2f4d5d7e3d27bc08088ba7eac599'
p976
(lp977
S'22.3.2-7ea4921beff80e610ebf67cff4add312.raw,0.96992481203'
p978
asS'X-6d0f7f9e5eb2bcd9d40ae9a139809718'
p979
(lp980
S'22.3.2-7ea4921beff80e610ebf67cff4add312.raw,0.972170686456'
p981
asS'X-3cb8446d3719ae4a0b8861b295f6d553'
p982
(lp983
S'22.3.2-7ea4921beff80e610ebf67cff4add312.raw,0.998037505451'
p984
asS'X-a862bf05729f0d62b5ab2b646d3b68d1'
p985
(lp986
S'22.3.2-7ea4921beff80e610ebf67cff4add312.raw,0.832061068702'
p987
asS'X-77fef859c5d5dafeb76e306990bb0852'
p988
(lp989
S'22.3.2-7ea4921beff80e610ebf67cff4add312.raw,0.976470588235'
p990
asS'X-a50847fb743786c2f420393b6719df91'
p991
(lp992
S'22.3.2-7ea4921beff80e610ebf67cff4add312.raw,0.991621783363'
p993
asS'X-31c488404a19547a4ab673d84e248e51'
p994
(lp995
S'22.3.2-7ea4921beff80e610ebf67cff4add312.raw,0.9099756691'
p996
asS'X-578a7c7128219dd1d33b9cf6fc4ccf39'
p997
(lp998
S'22.3.2-7ea4921beff80e610ebf67cff4add312.raw,0.947368421053'
p999
asS'X-b17dbf1532c6164a3c1935e12c979f02'
p1000
(lp1001
S'22.3.2-7ea4921beff80e610ebf67cff4add312.raw,0.946153846154'
p1002
asS'X-f8228b6cee9e192f0db051e8f4c179d1'
p1003
(lp1004
S'22.3.2-7ea4921beff80e610ebf67cff4add312.raw,0.948717948718'
p1005
asS'X-ece40f817df00388d686f58ec0aec525'
p1006
(lp1007
S'22.3.2-7ea4921beff80e610ebf67cff4add312.raw,0.999457148673'
p1008
asS'X-9ad590566f74ff16a63ae0ed7eac56e7'
p1009
(lp1010
S'22.3.2-7ea4921beff80e610ebf67cff4add312.raw,0.918918918919'
p1011
asS'X-d8236c7023e60cf9ea2986c0026d3799'
p1012
(lp1013
S'22.3.2-7ea4921beff80e610ebf67cff4add312.raw,0.961009174312'
p1014
asS'X-0dbf7330dc71c440c51d621e010a8d54'
p1015
(lp1016
S'22.3.2-7ea4921beff80e610ebf67cff4add312.raw,0.951282051282'
p1017
asS'X-1c1d94c4c22bfe30ad79fd64cc602dc6'
p1018
(lp1019
S'22.3.2-7ea4921beff80e610ebf67cff4add312.raw,0.970486111111'
p1020
asS'X-4c77d4dad5115562c55473da01de2502'
p1021
(lp1022
S'22.3.2-7ea4921beff80e610ebf67cff4add312.raw,0.946428571429'
p1023
asS'X-5ba3386a2ab85d84b8e90c7b53bb8431'
p1024
(lp1025
S'22.3.2-7ea4921beff80e610ebf67cff4add312.raw,0.95165394402'
p1026
asS'X-f8b9a03fd229f1fd20dfffe7969e7ac7'
p1027
(lp1028
S'22.3.2-7ea4921beff80e610ebf67cff4add312.raw,0.891891891892'
p1029
asS'X-5c40e601c5c6c22a519e526852287d04'
p1030
(lp1031
S'22.3.2-7ea4921beff80e610ebf67cff4add312.raw,0.97027972028'
p1032
asS'X-42d276923ace89c7fa6b609a94fce16b'
p1033
(lp1034
S'22.3.2-7ea4921beff80e610ebf67cff4add312.raw,0.991028708134'
p1035
asS'X-7ac395497b94343ac9f348e021ee83c0'
p1036
(lp1037
S'22.3.2-7ea4921beff80e610ebf67cff4add312.raw,0.929095354523'
p1038
asS'X-2516ae0dcf9302d81b42274aab9ff09c'
p1039
(lp1040
S'22.3.2-7ea4921beff80e610ebf67cff4add312.raw,0.946291560102'
p1041
asS'X-9cbfc065b4d21dffdf2950e8126c074d'
p1042
(lp1043
S'22.3.2-7ea4921beff80e610ebf67cff4add312.raw,0.973451327434'
p1044
asS'X-ebfe55ce3731f77edb472413ec44e039'
p1045
(lp1046
S'22.3.2-7ea4921beff80e610ebf67cff4add312.raw,0.966956521739'
p1047
asS'X-3ceac11c77381893c70f34c27eec682b'
p1048
(lp1049
S'22.3.2-7ea4921beff80e610ebf67cff4add312.raw,0.921375921376'
p1050
asS'X-bf71be54541670bd5813eb9d380690f9'
p1051
(lp1052
S'22.3.2-7ea4921beff80e610ebf67cff4add312.raw,0.936507936508'
p1053
asS'X-6348d145957d04a88cc254b3212b8a10'
p1054
(lp1055
S'22.3.2-7ea4921beff80e610ebf67cff4add312.raw,0.972265023112'
p1056
asS'X-6ccd3dd92c739e253bcd303850e85261'
p1057
(lp1058
S'22.3.2-7ea4921beff80e610ebf67cff4add312.raw,0.836206896552'
p1059
asS'X-5f9c0b329bee6397d8364012d80b8093'
p1060
(lp1061
S'22.3.2-7ea4921beff80e610ebf67cff4add312.raw,0.963386727689'
p1062
asS'X-79c46167deb47710b92ae372551f66d5'
p1063
(lp1064
S'22.3.2-7ea4921beff80e610ebf67cff4add312.raw,0.779141104294'
p1065
asS'X-ff295258e823553e155c3a362e4164e8'
p1066
(lp1067
S'22.3.2-7ea4921beff80e610ebf67cff4add312.raw,0.951156812339'
p1068
asS'X-d7f1e834490ed3aa4ff24c813f9482c2'
p1069
(lp1070
S'22.3.2-7ea4921beff80e610ebf67cff4add312.raw,0.978910369069'
p1071
asS'X-4f8d00298f40a45826a395644fa05504'
p1072
(lp1073
S'22.3.2-7ea4921beff80e610ebf67cff4add312.raw,0.999890553889'
p1074
asS'X-ebebc32af8bf659c0777719dcbfd0da2'
p1075
(lp1076
S'22.3.2-7ea4921beff80e610ebf67cff4add312.raw,0.991869918699'
p1077
asS'X-8777ca78e06ec2b02424dab8baa5feb7'
p1078
(lp1079
S'22.3.2-7ea4921beff80e610ebf67cff4add312.raw,0.948849104859'
p1080
asS'X-eefcee0cdab9f83bf27497315288e03a'
p1081
(lp1082
S'22.3.2-7ea4921beff80e610ebf67cff4add312.raw,0.921686746988'
p1083
asS'X-aa168a4feaec84466622f9bfaa8fef45'
p1084
(lp1085
S'22.3.2-7ea4921beff80e610ebf67cff4add312.raw,0.971804511278'
p1086
asS'X-9dfb74f96a2b4b17e132e5a59c11cf1e'
p1087
(lp1088
S'22.3.2-7ea4921beff80e610ebf67cff4add312.raw,0.938650306748'
p1089
asS'X-df3fa77f90fbbff7ba10ec828529d962'
p1090
(lp1091
S'22.3.2-7ea4921beff80e610ebf67cff4add312.raw,0.851351351351'
p1092
asS'X-6759f59bb822ecd2f88e8467677e3b85'
p1093
(lp1094
S'22.3.2-7ea4921beff80e610ebf67cff4add312.raw,0.950904392765'
p1095
asS'X-c887f1b611e70f7c93d8d7dead0501b1'
p1096
(lp1097
S'22.3.2-7ea4921beff80e610ebf67cff4add312.raw,0.951530612245'
p1098
asS'X-3e3b01d4eaf761e3346a0908b77fb215'
p1099
(lp1100
S'22.3.2-7ea4921beff80e610ebf67cff4add312.raw,0.873949579832'
p1101
asS'X-e39c89a3353f0fbd56d777be47648536'
p1102
(lp1103
S'22.3.2-7ea4921beff80e610ebf67cff4add312.raw,0.99041342121'
p1104
asS'X-1e0eee03eee1a95b87308c45ce6da56b'
p1105
(lp1106
S'22.3.2-7ea4921beff80e610ebf67cff4add312.raw,0.989815404201'
p1107
asS'X-422cda89284b25bd36980276ad1d36f5'
p1108
(lp1109
S'22.3.2-7ea4921beff80e610ebf67cff4add312.raw,0.928571428571'
p1110
asS'X-14098176eb3ca788f16dbc5128c33828'
p1111
(lp1112
S'22.3.2-7ea4921beff80e610ebf67cff4add312.raw,0.909090909091'
p1113
asS'X-740b70f3418312d9866d3db4f9f7097d'
p1114
(lp1115
S'22.3.2-7ea4921beff80e610ebf67cff4add312.raw,0.946700507614'
p1116
asS'X-f408b6f1b57e532817824f8e327dc272'
p1117
(lp1118
S'22.3.2-7ea4921beff80e610ebf67cff4add312.raw,0.948586118252'
p1119
asS'X-3ab202525fe2a66f6cb993218c253771'
p1120
(lp1121
S'22.3.2-7ea4921beff80e610ebf67cff4add312.raw,0.972527472527'
p1122
asS'X-428669a4c3511ea0a2be8527e784a868'
p1123
(lp1124
S'22.3.2-7ea4921beff80e610ebf67cff4add312.raw,0.991631799163'
p1125
asS'X-29073a0ea61d05f696d73fd66fe42cab'
p1126
(lp1127
S'22.3.2-7ea4921beff80e610ebf67cff4add312.raw,0.962662337662'
p1128
asS'X-a09b2ad1ba79f10b7bca22e4e1a06854'
p1129
(lp1130
S'22.3.2-7ea4921beff80e610ebf67cff4add312.raw,0.991636798088'
p1131
asS'X-e2cb16020ed3fbbc0eaa08a3e763ccc0'
p1132
(lp1133
S'22.3.2-7ea4921beff80e610ebf67cff4add312.raw,0.950777202073'
p1134
asS'X-f5fb963f7bdcdb47d2565a05b913b2d0'
p1135
(lp1136
S'22.3.2-7ea4921beff80e610ebf67cff4add312.raw,0.96949602122'
p1137
asS'X-cbd273f22dbc02f06bb4920913dc92ee'
p1138
(lp1139
S'22.3.2-7ea4921beff80e610ebf67cff4add312.raw,0.891891891892'
p1140
asS'X-8869c12ccdcb79473485e1658c2754df'
p1141
(lp1142
S'22.3.2-7ea4921beff80e610ebf67cff4add312.raw,0.977707006369'
p1143
asS'X-a1d671b2c438adc4287d84be708f732e'
p1144
(lp1145
S'22.3.2-7ea4921beff80e610ebf67cff4add312.raw,0.878378378378'
p1146
asS'X-fc657124ce5c6a9f1341f23d8fc26c71'
p1147
(lp1148
S'22.3.2-7ea4921beff80e610ebf67cff4add312.raw,0.94923857868'
p1149
asS'X-a131dc04600bc005dc5b0d034b981535'
p1150
(lp1151
S'22.3.2-7ea4921beff80e610ebf67cff4add312.raw,0.928746928747'
p1152
asS'X-f501956416e2aa9d892e894760381cdc'
p1153
(lp1154
S'22.3.2-7ea4921beff80e610ebf67cff4add312.raw,0.918238993711'
p1155
asS'X-f804ca8e3e6426dcfb410690a1401257'
p1156
(lp1157
S'22.3.2-7ea4921beff80e610ebf67cff4add312.raw,0.949860724234'
p1158
asS'X-f5172fad3fc9146830cf0a6fed3221ea'
p1159
(lp1160
S'22.3.2-7ea4921beff80e610ebf67cff4add312.raw,0.974169741697'
p1161
asS'X-4ff976937d133a23722daef42b309a18'
p1162
(lp1163
S'22.3.2-7ea4921beff80e610ebf67cff4add312.raw,0.922746781116'
p1164
asS'X-b453c45648199db3e1826be922369e97'
p1165
(lp1166
S'22.3.2-7ea4921beff80e610ebf67cff4add312.raw,0.912195121951'
p1167
asS'X-a5047a18ecb0f416760209e48385cc74'
p1168
(lp1169
S'22.3.2-7ea4921beff80e610ebf67cff4add312.raw,0.929223744292'
p1170
asS'X-21be55ec00bdef7959f1c63f918b7e7a'
p1171
(lp1172
S'22.3.2-7ea4921beff80e610ebf67cff4add312.raw,0.948979591837'
p1173
asS'X-f7422637ed428e197adf57661a7c6aa2'
p1174
(lp1175
S'22.3.2-7ea4921beff80e610ebf67cff4add312.raw,0.991007194245'
p1176
asS'X-0430d25dc6abbf793faacf6bc7ce82fd'
p1177
(lp1178
S'22.3.2-7ea4921beff80e610ebf67cff4add312.raw,0.939698492462'
p1179
asS'X-b8d511296f556227e872cbb17fb45149'
p1180
(lp1181
S'22.3.2-7ea4921beff80e610ebf67cff4add312.raw,0.914634146341'
p1182
asS'X-1de96b93acdd910525b7604df09ae2b0'
p1183
(lp1184
S'22.3.2-7ea4921beff80e610ebf67cff4add312.raw,0.991028708134'
p1185
asS'X-bd9b8b3adec224ff408edcf560be762d'
p1186
(lp1187
S'22.3.2-7ea4921beff80e610ebf67cff4add312.raw,0.783783783784'
p1188
asS'X-9e3d569d8f15326e03657262bea31fe6'
p1189
(lp1190
S'22.3.2-7ea4921beff80e610ebf67cff4add312.raw,0.850877192982'
p1191
asS'X-605519ed8c1eac68ce67b00b6359b9cb'
p1192
(lp1193
S'22.3.2-7ea4921beff80e610ebf67cff4add312.raw,0.96204620462'
p1194
asS'X-117c236bf5b34a55ad9249afaa9afae1'
p1195
(lp1196
S'22.3.2-7ea4921beff80e610ebf67cff4add312.raw,0.96828358209'
p1197
asS'X-c960fe50d9bb80b8aad7df0c7bfe0c8c'
p1198
(lp1199
S'22.3.2-7ea4921beff80e610ebf67cff4add312.raw,0.891891891892'
p1200
asS'X-7ae1a3b09ec67c3cd24adbfed395406d'
p1201
(lp1202
S'22.3.2-7ea4921beff80e610ebf67cff4add312.raw,0.946428571429'
p1203
asS'X-cdbf35b8f37ae17516de6613f994f202'
p1204
(lp1205
S'22.3.2-7ea4921beff80e610ebf67cff4add312.raw,0.978181818182'
p1206
asS'X-4b372d690959968dcdf3c1dfb1c27e37'
p1207
(lp1208
S'22.3.2-7ea4921beff80e610ebf67cff4add312.raw,0.921375921376'
p1209
asS'X-3afe07a82d8cacde47dd888facdac08a'
p1210
(lp1211
S'22.3.2-7ea4921beff80e610ebf67cff4add312.raw,0.972413793103'
p1212
asS'X-9fe65dbb2e7a83af22c021b3885e3bb5'
p1213
(lp1214
S'22.3.2-7ea4921beff80e610ebf67cff4add312.raw,0.942065491184'
p1215
asS'X-936d4b65a8f22bb9452b0f7df9afb400'
p1216
(lp1217
S'22.3.2-7ea4921beff80e610ebf67cff4add312.raw,0.922141119221'
p1218
asS'X-0e3143b9db092f8a77dd836a4983f049'
p1219
(lp1220
S'22.3.2-7ea4921beff80e610ebf67cff4add312.raw,0.948849104859'
p1221
asS'X-977437be5f454f4dbbce874dd2e2bd76'
p1222
(lp1223
S'22.3.2-7ea4921beff80e610ebf67cff4add312.raw,0.873949579832'
p1224
asS'X-f593354eb6026417b5fae30ac8e3914e'
p1225
(lp1226
S'22.3.2-7ea4921beff80e610ebf67cff4add312.raw,0.991065730696'
p1227
asS'X-7f5c20a2926a7901c27fffdc5dac7cb7'
p1228
(lp1229
S'22.3.2-7ea4921beff80e610ebf67cff4add312.raw,0.923076923077'
p1230
asS'X-24307a3e09b6dfd5d99a9a87879604ac'
p1231
(lp1232
S'22.3.2-7ea4921beff80e610ebf67cff4add312.raw,0.9765625'
p1233
asS'X-d9496f31b414eaaa06a2fc9b635008f8'
p1234
(lp1235
S'22.3.2-7ea4921beff80e610ebf67cff4add312.raw,0.873417721519'
p1236
asS'X-90005152c7c9e5faabf475b6b729372a'
p1237
(lp1238
S'22.3.2-7ea4921beff80e610ebf67cff4add312.raw,0.968586387435'
p1239
asS'X-cfcc9ac0366685209c29f9a52608ee04'
p1240
(lp1241
S'22.3.2-7ea4921beff80e610ebf67cff4add312.raw,0.998363095238'
p1242
asS'X-4ac0a0c5f83d64df79f0a2032d031558'
p1243
(lp1244
S'22.3.2-7ea4921beff80e610ebf67cff4add312.raw,0.953917050691'
p1245
asS'X-55dde3e0d29d4e8c48602fbb11b454fb'
p1246
(lp1247
S'22.3.2-7ea4921beff80e610ebf67cff4add312.raw,0.999447399323'
p1248
asS'X-7ba19cd152074d81712aa7601a7bfc31'
p1249
(lp1250
S'22.3.2-7ea4921beff80e610ebf67cff4add312.raw,0.791139240506'
p1251
asS'X-0d7c1667542f2a8dc1b7d387ef00f733'
p1252
(lp1253
S'22.3.2-7ea4921beff80e610ebf67cff4add312.raw,0.915048543689'
p1254
asS'X-6b6cf4559b66783def1a65781dd9ae9b'
p1255
(lp1256
S'22.3.2-7ea4921beff80e610ebf67cff4add312.raw,0.993668023519'
p1257
asS'X-f9620cbc808412c59527b3f2ac963e87'
p1258
(lp1259
S'22.3.2-7ea4921beff80e610ebf67cff4add312.raw,0.999764937174'
p1260
asS'X-104c4b984cec1b269d44aae1fd84ea4e'
p1261
(lp1262
S'22.3.2-7ea4921beff80e610ebf67cff4add312.raw,0.928571428571'
p1263
asS'X-b0b1ae54205a7d74f4243e5ac0b02d8e'
p1264
(lp1265
S'22.3.2-7ea4921beff80e610ebf67cff4add312.raw,0.915458937198'
p1266
asS'X-df487a4ea70259dec8c95bb9632efcdc'
p1267
(lp1268
S'22.3.2-7ea4921beff80e610ebf67cff4add312.raw,0.960848287113'
p1269
asS'X-ffb59785d30c8815a9e584560dba6041'
p1270
(lp1271
S'22.3.2-7ea4921beff80e610ebf67cff4add312.raw,0.914841849148'
p1272
asS'X-c862d4943d74dc1c359c42f6747c2ab6'
p1273
(lp1274
S'22.3.2-7ea4921beff80e610ebf67cff4add312.raw,0.92380952381'
p1275
asS'X-03f50758a67dc3912699e6dc77bd71c4'
p1276
(lp1277
S'22.3.2-7ea4921beff80e610ebf67cff4add312.raw,0.944625407166'
p1278
asS'X-fc09a10891175724933e1af1f5563935'
p1279
(lp1280
S'22.3.2-7ea4921beff80e610ebf67cff4add312.raw,0.928406466513'
p1281
asS'X-27f5975048c9c8da17d59cde9cdaf490'
p1282
(lp1283
S'22.3.2-7ea4921beff80e610ebf67cff4add312.raw,0.944444444444'
p1284
asS'X-9b928e971d6e996e78274472c8f058cc'
p1285
(lp1286
S'22.3.2-7ea4921beff80e610ebf67cff4add312.raw,0.922857142857'
p1287
asS'X-65a633ddfc0d19b293c1935908a7fcd3'
p1288
(lp1289
S'22.3.2-7ea4921beff80e610ebf67cff4add312.raw,0.972060535506'
p1290
asS'X-a1001e2404422366c1b59639a73a680f'
p1291
(lp1292
S'22.3.2-7ea4921beff80e610ebf67cff4add312.raw,0.978142076503'
p1293
asS'X-dda54de8a711b370b8bf550b562e46b3'
p1294
(lp1295
S'22.3.2-7ea4921beff80e610ebf67cff4add312.raw,0.991676575505'
p1296
asS'X-575065f73f2ceb0c898636ed15b3f491'
p1297
(lp1298
S'22.3.2-7ea4921beff80e610ebf67cff4add312.raw,0.848888888889'
p1299
asS'X-898fc447422a8bbf1d6e06fac8305352'
p1300
(lp1301
S'22.3.2-7ea4921beff80e610ebf67cff4add312.raw,0.997267759563'
p1302
asS'X-c71b6e5f897a0c845e39148c4795bdd2'
p1303
(lp1304
S'22.3.2-7ea4921beff80e610ebf67cff4add312.raw,0.785714285714'
p1305
asS'X-d41d8cd98f00b204e9800998ecf8427e'
p1306
(lp1307
S'22.3.2-7ea4921beff80e610ebf67cff4add312.raw,0.891891891892'
p1308
asS'X-938a189f7d17dfb9d69fc50da2647489'
p1309
(lp1310
S'22.3.2-7ea4921beff80e610ebf67cff4add312.raw,0.946291560102'
p1311
asS'X-0d7f9f890e2ea03fb434d4f486b16c96'
p1312
(lp1313
S'22.3.2-7ea4921beff80e610ebf67cff4add312.raw,0.970639032815'
p1314
asS'X-2513d6fb6f6fb455153d00bbc7ddc108'
p1315
(lp1316
S'22.3.2-7ea4921beff80e610ebf67cff4add312.raw,0.915048543689'
p1317
asS'X-5c4e37cd0d161164ce37954185942817'
p1318
(lp1319
S'22.3.2-7ea4921beff80e610ebf67cff4add312.raw,0.84649122807'
p1320
asS'X-636b369a012262b7c2f0e32394378a5e'
p1321
(lp1322
S'22.3.2-7ea4921beff80e610ebf67cff4add312.raw,0.920987654321'
p1323
asS'X-177d0b42a08b10752285b9dbfd300a7a'
p1324
(lp1325
S'22.3.2-7ea4921beff80e610ebf67cff4add312.raw,0.915254237288'
p1326
asS'X-ac3f1931f1322b75b34df813e549a28f'
p1327
(lp1328
S'22.3.2-7ea4921beff80e610ebf67cff4add312.raw,0.911214953271'
p1329
asS'X-fd588a2988d7a4442a8314ab1248faef'
p1330
(lp1331
S'22.3.2-7ea4921beff80e610ebf67cff4add312.raw,0.918719211823'
p1332
asS'X-6e832730fccb9f7cd588a300ecc89d7f'
p1333
(lp1334
S'22.3.2-7ea4921beff80e610ebf67cff4add312.raw,0.972324723247'
p1335
asS'X-106b5e99d313c3fd4972531aa577768c'
p1336
(lp1337
S'22.3.2-7ea4921beff80e610ebf67cff4add312.raw,0.951156812339'
p1338
asS'X-4ba3ee567497b5d33bb6c488c13ffa2b'
p1339
(lp1340
S'22.3.2-7ea4921beff80e610ebf67cff4add312.raw,0.953608247423'
p1341
asS'X-9539305af12320c6e181e7b642922d6c'
p1342
(lp1343
S'22.3.2-7ea4921beff80e610ebf67cff4add312.raw,0.976320582878'
p1344
asS'X-98b356d3a0ad86b84380f55f5aaa3b15'
p1345
(lp1346
S'22.3.2-7ea4921beff80e610ebf67cff4add312.raw,0.957683741648'
p1347
asS'X-8bc60754acc61ce1f5bc5853952805f8'
p1348
(lp1349
S'22.3.2-7ea4921beff80e610ebf67cff4add312.raw,0.999496918627'
p1350
asS'X-73f174f3debeba8dc7a3aef062f2e6e3'
p1351
(lp1352
S'22.3.2-7ea4921beff80e610ebf67cff4add312.raw,0.835820895522'
p1353
asS'X-87a85a3638278ea8a4cd27ddd6426e8c'
p1354
(lp1355
S'22.3.2-7ea4921beff80e610ebf67cff4add312.raw,0.877637130802'
p1356
asS'X-368bf264623c99aca9adaf0043aee401'
p1357
(lp1358
S'22.3.2-7ea4921beff80e610ebf67cff4add312.raw,0.972627737226'
p1359
asS'X'
p1360
(lp1361
g28
aS'X-2334b83b4bdae74e1e1d939cb225b0d3'
p1362
ag982
ag91
ag1195
aS'X-7c5ae8630511f4317f8954e6a0d33570'
p1363
ag718
ag364
ag277
ag232
ag1345
ag829
aS'X-4425be0317d906c010d1f1e175bfe014'
p1364
aS'X-3daf0aeab5ed654a37c35a1bf8625ff7'
p1365
aS'X-e72b235aff5a15507d7f8bdeb014ec6f'
p1366
ag979
ag382
aS'X-a5d23b3156c03cda7370876b485fac29'
p1367
ag1213
ag856
aS'X-f5eaef52d6cdbb0fee7402c392848e8f'
p1368
ag676
aS'X-1a17929c3ba0a53e9222ae4ff5bef432'
p1369
aS'X-9723fb2077b8b2d67d41d08583053072'
p1370
aS'X-1a2c46739c3da42fa423d304c682b898'
p1371
ag289
ag82
ag1279
ag1351
aS'X-8f4cf2467c482904bb5dacc7554262e5'
p1372
aS'X-1537b133dadde311708cbe6f3b29cf58'
p1373
ag571
ag961
aS'X-c416dd74817beeff14da7a2b4829dc32'
p1374
ag169
aS'X-86f3df13f77d431da4f9d5d437ff8e2b'
p1375
ag253
ag946
aS'X-1a4816e5557541697af187cc19694cf6'
p1376
aS'X-94e97598adfb060aee6db784f0ae1492'
p1377
ag211
ag1075
aS'X-d1de8ea4462608525a933de55bbedaa0'
p1378
aS'X-b8b05010bee1950090a14d5c07e17519'
p1379
aS'X-7d51057f3116c316594017d42e24da28'
p1380
ag1189
aS'X-ed51433518829a1a1b11c990eddbf1b6'
p1381
aS'X-a4b59f1d4b049be7d4d93cb72b2e8279'
p1382
ag1231
ag739
ag187
ag1318
ag319
ag877
ag898
ag562
ag970
aS'X-c0b0799ace14aa367ec176419d54eb56'
p1383
ag1342
aS'X-b2394bddc493a3464a1d647aa75d6041'
p1384
ag943
aS'X-0f3a26cfd099b760e91fced42569c5a7'
p1385
aS'X-9927e7a1a641fe32c0d935b9578cee94'
p1386
aS'X-9c47c78d3470c4d39f435a3d7acb0f50'
p1387
ag73
aS'X-2849ea92cc85647db70dc5d1cf61249e'
p1388
aS'X-ad967ce17762183b2797ef15353c7c2e'
p1389
aS'X-bb69ec58fed81b1f37565d88572e191a'
p1390
aS'X-778272839381b919cf0ce357954ff26b'
p1391
ag799
ag256
aS'X-a8db618eee10da2b9a8b390e77c4ee1d'
p1392
ag1333
ag916
ag1300
aS'X-201ea277ddbac2f1b56d3ac53b4b25f8'
p1393
ag307
ag325
aS'X-4a72f9ea3b690f049ce5b5e17fd273fb'
p1394
aS'X-e5f13b64377d2b1fa9f1114405eb224f'
p1395
aS'X-4d1e8b318acaf4e6ed3c85b4ed20c32d'
p1396
aS'X-936bfd007e46b52ddc98ee2669879dd2'
p1397
aS'X-ee45573e3ef9d9a7b88b84ef5128407f'
p1398
ag1093
ag1045
ag805
ag193
ag625
aS'X-b6d66cf7d3096b1166f55aa5074e58c7'
p1399
aS'X-7005f5bd33d659e5b2183b13da43e39d'
p1400
aS'X-23f60bf8c2553c7ec513d0b5a1b30fed'
p1401
ag403
ag832
ag1240
aS'X-1724d27a5beff5eeb546dfccf1696a17'
p1402
aS'X-5d70e47036bdbc2db55ee3e5a634da30'
p1403
ag1105
ag511
ag1051
aS'X-4fc82ce8eb76510cd0dd33d99add53fd'
p1404
ag418
ag343
ag604
ag652
ag349
ag226
ag46
aS'X-91f4d15920f1ff62d3d96756a0c0bc30'
p1405
aS'X-694eaac2cb2656e65437992c5cb849f3'
p1406
ag184
aS'X-58cd29b159a5d406fe294e3b76496016'
p1407
ag379
ag1306
ag1129
ag385
ag67
aS'X-ff110c761d5e5d3beadba70d4f910f5e'
p1408
ag853
ag847
aS'X-e87035d52aab02af199d3df9d68fd9a5'
p1409
aS'X-880a8afb040159496e6d84f61a95661d'
p1410
ag202
aS'X-ca1a42b2af748d6eb775111b5df8a101'
p1411
ag742
ag1186
aS'X-21ac7afb7f4c7ce9fd18b56d73352bdc'
p1412
aS'X-8253246bff4a601a5381a91d05823026'
p1413
aS'X-e949a39e1547d1262ba666cf73693124'
p1414
ag745
ag859
ag451
ag1237
aS'X-3e3fbfddbdff76459922589991afead6'
p1415
aS'X-bab5088a36d65bc30339afc6f3e841fd'
p1416
aS'X-cb5df9413d2ae3a22984e1fac24394ad'
p1417
ag124
aS'X-a4bb497f819acdef78a8f8e972be337d'
p1418
ag136
aS'X-6bc43098985e409e098ffdb788dafa7c'
p1419
aS'X-c08e70df13029fc766b28609e97c2b08'
p1420
ag568
aS'X-8dd7dd9e6b6fa14a9df138ff80b45bb9'
p1421
ag751
ag250
ag622
ag976
aS'X-dd08e7362c941de1a56c0fcded0f80d1'
p1422
aS'X-a4cbfe3f7d4023b5f96d41eebc0a8b72'
p1423
ag151
ag400
ag673
aS'X-90d51dc418140c268ac3d1dc9e75d149'
p1424
aS'X-dbafa1a8d427f576b7474fd2bf525cce'
p1425
aS'X-44673a5a6f6bb56a66a383389dbe3014'
p1426
ag658
aS'X-3c6fe5f38f365b5f5260604e24f3183e'
p1427
ag733
ag1348
aS'X-7566bfce62d62788b8ef751301c587ea'
p1428
aS'X-373f5c3ded640f13720921b718fb51b2'
p1429
ag340
aS'X-02b05b5d1070d9175ddba593d00cab6a'
p1430
ag781
aS'X-ccbcb391b89423239ca07fa29b44b697'
p1431
ag49
aS'X-b7bcf03ab8212e896c3278a17df4d7a1'
p1432
ag748
ag1030
ag247
aS'X-6f7814b274f2619ce285fcc30370d3f5'
p1433
ag58
aS'X-25e477bfc42f78ccf65593d4483b3e34'
p1434
ag1330
ag1294
aS'X-a38a3f25a21569c0fac6bacd1ca37bec'
p1435
aS'X-5dd9e508e5579062af2aa3a4af3377f9'
p1436
ag352
ag682
ag1108
aS'X-66a9f4984d2c11c09bdbc159acfdcbe5'
p1437
ag304
ag907
ag703
ag910
aS'X-0eb192ae296c877821afdf73aca0839f'
p1438
ag301
aS'X-60a19e58ed913378b86be0903207a3ba'
p1439
ag730
aS'X-883ef35f36fb039d520e497e12add0e5'
p1440
ag469
ag607
ag790
aS'X-59c3f0e955740791ddcf3b148f8164d7'
p1441
aS'X-e3182c34467883ee5e68ac21552c18a1'
p1442
ag919
aS'X-2e27bef39409c79032685bd2269881d5'
p1443
aS'X-1d995fad77f0582b768541bd1e750541'
p1444
aS'X-6ec3988036dde29e697f741b2c007f9e'
p1445
aS'X-e671daa20bdeecd50bb04fe6c53a9f92'
p1446
aS'X-dfc674f7e473adab52859599b5830c38'
p1447
ag985
ag337
aS'X-473a712d976e6e647c52cbee33e2e6b2'
p1448
aS'X-24741b648c6d98131375fc49d56028d3'
p1449
aS'X-602f174051796a53e5dcddd7b5010875'
p1450
aS'X-0b90446920adebc22f0bd0a4c1294e2f'
p1451
ag394
ag715
ag31
ag1249
aS'X-134af6cef8c59af1d0e9b8498f7aa27e'
p1452
ag223
ag457
ag892
aS'X-6dd471c401252cd319c307f88196c8f8'
p1453
aS'X-fb9a93d9f36f521479f5edd4b4fbe2a6'
p1454
ag1171
ag508
ag700
aS'X-c368e296b17a53d8d8b01909f929019e'
p1455
aS'X-a3a6b1f42c42e7abd026e04de01260f7'
p1456
ag421
ag109
aS'X-40e9661008a731bc52dfa4201c00ad43'
p1457
aS'X-b8a80c2373b8b1fb972c5b946953750f'
p1458
ag1111
ag172
aS'X-3bc9765c87ca2fee2765d86d77a3bc9d'
p1459
ag1147
aS'X-ffe0965a73e39034a89574773523e018'
p1460
ag1018
ag661
ag19
ag112
ag436
ag649
ag1036
aS'X-739f570706e66e6298b2459517ab3342'
p1461
ag1102
aS'X-ec62ca524dbea80c1af99a1c9c9757bf'
p1462
ag838
ag1135
aS'X-b3355d1f712fb36945bd4c68e8bee8ec'
p1463
aS'X-72801b533587f9ea9ce9eb0a6374550f'
p1464
aS'X-8c5fa449227d238e4802f77af0e02ba4'
p1465
ag1297
aS'X-4a063ae0b6d9d8f060689c5fda19fef5'
p1466
ag697
ag43
ag1264
aS'X-c3dfd30d306123bfff9742080fa0e403'
p1467
aS'X-ed386320fae96b9b63ede5877bb9f46b'
p1468
ag406
aS'X-164b9f75968ac1ac854876701c6f0607'
p1469
ag235
ag85
aS'X-75c2dad8bb18d76f8e366ee3890af1ea'
p1470
ag763
ag1207
ag268
ag817
aS'X-3cb2fef87e555537abc036271d5a57c7'
p1471
ag259
aS'X-2fb043d81011fa284c48f295f6613c10'
p1472
ag736
aS'X-57f4a6b1bcd69c283e081ee8d3eca606'
p1473
ag1000
aS'X-b5debf133bccd2eb4e3996aeb286c4cc'
p1474
aS'X-05fecb3dc41776acbe813fee7bd5b6da'
p1475
aS'X-df1d2b7d5115db81c12ac739542df9ac'
p1476
aS'X-880e6e33e342d8bd8eae8a5e793414ee'
p1477
ag430
ag1210
ag118
ag22
aS'X-bbdf6c1f58a60b7c0639d1dd550d2bbd'
p1478
aS'X-d71836cc0ae7392a5e13d81b442ecb39'
p1479
ag127
ag1315
ag1096
ag244
ag727
aS'X-f589d6fa7119c7645867c9775e884182'
p1480
ag463
ag460
ag934
aS'X-d5c9cf5b2e2df4abb0e54dc65dc6a6bb'
p1481
aS'X-174310f23deabc3fd68f6009f3a7593b'
p1482
aS'X-06958adb480391bb02d7c8e9707c6eba'
p1483
aS'X-7f6275475899500417b20a1bcfbb5445'
p1484
ag1225
ag835
ag517
aS'X-39e75ebdb634c31aa1c5b1c034fe5acf'
p1485
ag64
ag541
aS'X-f18529af4d1b66a361e317c0cf8a5f2e'
p1486
ag958
ag1141
aS'X-b6c5a728b0e613ca6805bc11e30bad3f'
p1487
ag1285
ag931
aS'X-406ed8b80fa48332defac38574ae51a2'
p1488
ag802
ag265
ag634
ag610
aS'X-c0514e8c5b8aaa15c585b9163b182eab'
p1489
aS'X-d2018a9ade19172896b42689c7a24180'
p1490
aS'X-9d505c7ab1bb8d6b3bd754fe5f46f642'
p1491
ag1198
ag433
ag940
ag358
aS'X-233faa439cd355b6e914e3fc39550c93'
p1492
aS'X-e2fcf3685575951c8a2042b6b5a07b56'
p1493
ag376
aS'X-703e744eb335463c4f5a485a76e1948c'
p1494
ag586
aS'X-1ff5585dc733822df054ba3d90cdb142'
p1495
ag10
ag52
aS'X-8bfe9a5a147670824492433821949ea9'
p1496
ag286
ag283
aS'X-b47879e086bdbe2a51fe367111ce3167'
p1497
aS'X-7fd4472b28fc20361d41e00b6f77dcb6'
p1498
aS'X-a50b5a26f983446a4f5edb376da1fc3e'
p1499
aS'X-2cc5b2917db6686f71672c4254c83eff'
p1500
ag274
ag949
ag904
ag205
aS'X-c309a262c23a776a8fe9031dee4f77f1'
p1501
ag841
ag655
ag217
aS'X-ecb944b9137f3489b9532c6089ad2110'
p1502
aS'X-897f780560cc1402a61889922156b6ff'
p1503
aS'X-77d967b925407a36f08e0c821455b911'
p1504
aS'X-edbbb9ad8e465635a44f997d8a05bada'
p1505
ag685
aS'X-6227a5255c6780371fe61d91182b74ad'
p1506
ag565
ag1162
aS'X-65695f27cd15310ed0d374586d36966c'
p1507
ag1174
ag868
ag103
ag1120
ag520
aS'X-c2079190560531d0afddef3fc75e66a4'
p1508
ag1219
ag139
ag691
aS'X-f45880a86296cb87279d3fc063dea59a'
p1509
aS'X-b97b3838ef8e985b72beeee0fe9e4a2f'
p1510
aS'X-8e121bc51b2c6ed29bbe237796d064b4'
p1511
ag466
ag295
ag1327
aS'X-70eca091f362f4efeeb5ebe7562c32f1'
p1512
aS'X-2ada78e2663addeb5cc4c8f8fe323f4e'
p1513
aS'X-e40ce90c93d4d42a9c4ecdb48d5084c7'
p1514
aS'X-de3742f6b6673e0d7ae25120ab210edb'
p1515
aS'X-431b184370ee6ddbfc022588fe780c8a'
p1516
ag175
aS'X-92d2a7eeacdb235776b2d6ca142b66fa'
p1517
ag667
ag583
aS'X-6c6c1866c1ab4b691adf231dd07de914'
p1518
aS'X-132dffa5d08581bf7e2760b0aac8b42f'
p1519
aS'X-2d33a39ffd3304b8812cd7d9dafdff5a'
p1520
ag679
aS'X-32e14c28a2d6c2ab1482ed33e8a0ceda'
p1521
aS'X-df91dc5602de04be789135d06fd61516'
p1522
ag1252
ag76
ag1126
aS'X-cbe2db314179bbc8888865b36aa32944'
p1523
aS'X-4265765a479a1b26fcce5c6ae1a2c083'
p1524
ag535
aS'X-0050c8da74cdf445d09534d8b4fe1177'
p1525
aS'X-dd71a9a4cd54cd369686fcd336e22ea1'
p1526
aS'X-49ca450a9dd162c20f83df2fb35a5781'
p1527
ag1183
aS'X-4f9721af082d3bbd92d2f3f0716c17ed'
p1528
ag199
aS'X-728bf40df2df77fd9abae5a9ab0291c8'
p1529
ag7
aS'X-c4e4df3accc9ff3ba13a12235c9be8f8'
p1530
aS'X-a7fa2fc93c39015b41dbb5a79a98f90e'
p1531
ag706
aS'X-b74a6dc89d1b644aac268196639095c9'
p1532
ag397
aS'X-51f35520817035ededb070d933bd1d1b'
p1533
aS'X-364bf6c0325ed52becc4f75ddc6b8c15'
p1534
ag1012
ag1261
aS'X-9a513183dff86d25b5cc78c4cb092dc6'
p1535
aS'X-28c4b52ee56552285355249a8175458e'
p1536
ag355
ag865
ag1309
aS'X-affbdecaa3e8e29776fa457299f98bb9'
p1537
ag925
ag502
ag559
ag1291
aS'X-3b652ab7508f7253093b700ab9eb44ad'
p1538
aS'X-3074fd0b77fbe055eb91ae8289e2e4a2'
p1539
ag643
ag784
ag754
ag1234
ag454
aS'X-c0ca8e43f40cd238481ed758d606663a'
p1540
aS'X-8ffc2ead9ac00ebbf615e712d24f18d9'
p1541
aS'X-8f938e1d95ce383d35dfe58bfd321232'
p1542
aS'X-3e8b5fbc7c23c07e470090988ab31fb8'
p1543
ag331
aS'X-f7285d478d61b5a515a58b1e046634c3'
p1544
ag322
ag1267
aS'X-3454689a1802bd552493f5b2c84fb7e6'
p1545
ag640
aS'X-e581ef8942b3fd7b11987618636df804'
p1546
aS'X-07a70db5b798abe9e679438521327701'
p1547
ag346
aS'X-42fd87ea18b065f64757a21e682422ce'
p1548
aS'X-63fedbeb06ec0964b44e0448df31a061'
p1549
aS'X-bcdd5f2ffc136455f98e052db10088ef'
p1550
ag793
aS'X-6b6fcb4fc78b2b07e0fe7536f4ccfa57'
p1551
aS'X-b7dd4009adb25375c6a78f7f587859aa'
p1552
aS'X-b428ac47b854875008fe59bc511638fd'
p1553
aS'X-cf334b173a28cbeaf4f8211078183452'
p1554
ag577
aS'X-45f662ca5cad5d740056a3a8eb5774e3'
p1555
ag1228
aS'X-394a2e7bee03acb78d6ae2f80ecc878b'
p1556
ag280
ag955
ag61
aS'X-5167e7cbfa4a53d1450139d9daa35826'
p1557
aS'X-62ffb53000685c8fc9e1a5d5253db7bd'
p1558
aS'X-c411c03d7c935200e79f7490cc58bcb5'
p1559
ag883
aS'X-b36e14291c083fe15f133fb517818543'
p1560
aS'X-8931d58101209bb9a079a8d7b55078de'
p1561
ag922
ag154
ag121
aS'X-65ec3863b249a003778d05985de8cb6f'
p1562
aS'X-a2779d5a88dedec09f8a0f4ab33878b6'
p1563
aS'X-2a5d388159e503d500b7f5d487b15ac4'
p1564
ag1150
ag1192
aS'X-87bde63ca47092b3123b8abcd74790f2'
p1565
aS'X-03fe2b480eb38ee80c4a65ef2095b7fd'
p1566
ag412
ag1168
ag1087
ag796
aS'X-57ca079dad9c9ae2ee539607472947d4'
p1567
ag481
aS'X-e30c61285dea039699b6f41361b27387'
p1568
ag409
ag823
aS'X-3ff1f0c7090a7ce7d65bd5fb4998a2d4'
p1569
aS'X-e4ff3341fdde4f847394697bcf60fa15'
p1570
aS'X-de88b59803f59da162f9e15534079261'
p1571
aS'X-067ced5f6ea1e505d9b4879f7cf1691a'
p1572
aS'X-1a87ee1ccd89f3e1244662c4b9ff604a'
p1573
ag1057
ag598
aS'X-f4fd9c80e8c7f831afa21cfe71a9e0f5'
p1574
ag1099
ag928
ag391
ag1039
aS'X-6aee81a7fc1c812ccf31a6f7e5aba630'
p1575
ag367
aS'X-b4787c16cab8f91153c1c48b1c2cb687'
p1576
aS'X-8f44dc879512bdc05480015c7b5c69ad'
p1577
aS'X-52cbc71a7cc13602a7208147eabeadb8'
p1578
ag886
aS'X-573afcd8078a05d417278bb19772ca53'
p1579
aS'X-924c855ae25aec7ec943b6b7c814e74a'
p1580
aS'X-5a02123ba048d83aab5da8b2097faff7'
p1581
aS'X-668001d94b7fe58f3583fb3d7b09aea9'
p1582
ag505
ag115
aS'X-c18c4ff51099761e9221542c8a108b79'
p1583
aS'X-eec3f381b7ec04af856241af6d64e678'
p1584
aS'X-c6b3f1a2bc3199eb94880cba1dcee3e8'
p1585
ag1339
ag1063
aS'X-ec1231c474ddb25fda665274aa3bf5da'
p1586
aS'X-946d1325fef3fd130d26d71f564a02b6'
p1587
ag94
ag937
ag79
ag478
aS'X-3c35803f952324b0a07a8e4a85d6ba75'
p1588
ag1177
aS'X-6fbd3317ea54fc66bb5195e885d67e7f'
p1589
ag1138
aS'X-c13854f7241aefa5c772cf28e62575b9'
p1590
ag862
aS'X-db0789021b1691d41f08abd126c121d5'
p1591
ag16
ag442
ag220
aS'X-77079891c0f91fe6544fc36146dee90e'
p1592
aS'X-a8481609e731b2df1f8240f1fb0cfd1d'
p1593
ag34
aS'X-4477f40621d857b70ce4dd65e1f3536c'
p1594
aS'X-2f2161fc1498ef52380c246e7451aa25'
p1595
ag1024
ag814
ag850
aS'X-449ff178850cd95260b015321ac26a9c'
p1596
aS'X-19dc2f857a2674f23a93280746240f01'
p1597
ag1060
ag160
ag241
ag631
ag778
ag424
aS'X-2113f4a95bb6a7cb4d82ceb6f1a8a9e8'
p1598
ag1081
ag166
aS'X-f5a3428d089e40fdd0305d804a54ff2d'
p1599
ag1270
aS'X-c4b5f1656b2cc34e69ecaa30c3952ab5'
p1600
ag871
ag145
aS'X-025401587e9a7d1b3202a9cabded8669'
p1601
aS'X-502b9a8cbe53b8f794c90428f60e5485'
p1602
ag772
aS'X-9047c0dec2a9de4e79a60a4bd74ac258'
p1603
ag271
ag1054
aS'X-91c1039136e1610a7ca1f43377848b12'
p1604
aS'X-f3eb63c410414f7c61e56df51af235cd'
p1605
ag1354
ag1084
ag439
aS'X-6a638e02b1e61015416707c5dfb38242'
p1606
aS'X-1b2c92752de2ce63302293da4ed1896c'
p1607
ag1288
ag1180
ag1357
ag964
aS'X-85d24586d674cdab42a26e82ff4cb958'
p1608
aS'X-f1749424cb7373e7f9e947fc51a02e1e'
p1609
aS'X-7ce4ddbfa8f2defe240c83b3457acaa0'
p1610
aS'X-66ed8a6c309da54efbace96bbc2e2dda'
p1611
ag688
aS'X-36d2e56ceb8f0535ded0a80c78224f93'
p1612
aS'X-3ff4631a3a2afe8f185a5877afc6b28d'
p1613
aS'X-006cd73a8621d61dd6e030bb44130186'
p1614
aS'X-c1bed95fbd3a8b399b7bccea128cae05'
p1615
aS'X-fc5fae1a276099d7c6d0f65d9511ebbf'
p1616
aS'X-1bdb029e952ad50e1acb10d02f921d8c'
p1617
ag523
ag787
aS'X-56b1340e7460b613080b23eedcf17475'
p1618
aS'X-249110cdbfb7bf73951ed16393778386'
p1619
aS'X-15d1f7bc7dc1c5cbc5a5dace0de6011f'
p1620
aS'X-c5240c1c88b91b98d1be5acd77e4e80a'
p1621
aS'X-6527ec859fa6f861d8c60fbde951f43f'
p1622
ag1114
aS'X-5d629a33863c5157bc5a067c907f1af1'
p1623
aS'X-7c7743b2cc5363f57df86b0d34d4220b'
p1624
ag628
ag592
ag811
aS'X-c173110631943498c68199ca46c302f3'
p1625
aS'X-71793e0d4eecbcf19c55eecb4b87cdec'
p1626
aS'X-3311d49a5f28cc7d9e278bf87a88bce8'
p1627
ag1066
aS'X-b36b4da8e08d60ba8811c68b75e514a8'
p1628
ag499
ag973
ag574
aS'X-7786cece340d40c7857e1717ee11e8ba'
p1629
aS'X-ca00034c0e364114c96c50ecedb3e5db'
p1630
aS'X-100b6eb8edbd3f1f17ea778536f0efa7'
p1631
aS'X-e430798dceb10a1f5b0831636d5c71fe'
p1632
aS'X-fef7535ad813b0c8ee00eb1a190bf62f'
p1633
ag547
ag1312
aS'X-edc745643105eb6cf0799cc4ad969c42'
p1634
aS'X-9e67a704c46164312c35fe8b71ce7555'
p1635
aS'X-989766779ff23aa2710b0d66d505184f'
p1636
ag106
ag262
aS'X-caad1edb7eb195147739f581d74f34df'
p1637
aS'X-0858563ddb2362590c63a285990312df'
p1638
ag721
ag589
aS'X-de9263e48b03436fceac062bb1ae9b67'
p1639
ag820
aS'X-5c8f299670733d1e929db16bae11b031'
p1640
aS'X-2d1e09453d109a285651aa209e720105'
p1641
ag334
ag4
aS'X-9ffc5cc542bd90b0d45fad286a5c5e23'
p1642
aS'X-957278d39a21b696a828e1af081ead85'
p1643
aS'X-b32fe52f4beea05155ef2cb605c0b29c'
p1644
ag1144
aS'X-d3963102f3f74f9bc428784f986d1ed4'
p1645
aS'X-d2d5456b1e00b093182fc7b14fcc50a2'
p1646
aS'X-f8d0a97527333e7c433beacb4dfa0664'
p1647
aS'X-a165d6efa741205bd00cd565a9052bef'
p1648
ag1072
ag889
ag1165
ag1258
ag1
ag298
ag1117
ag142
ag1276
ag55
ag208
ag637
aS'X-d8dd251eb5c4b54a1b01d14d6f6a2634'
p1649
ag1159
aS'X-c2b3e1cd9241d135d5898702f8777043'
p1650
ag1321
aS'X-4e2f7ff76329c746c81791dfaf96e498'
p1651
ag148
ag313
ag190
aS'X-f4edceb1e09f947ca03c8fd681ed70df'
p1652
ag664
ag619
aS'X-2cbbba26c7f34ba5e762ac533df57ac4'
p1653
aS'X-4fa35e15b36ea43f224eee8591efc3c3'
p1654
ag550
ag133
ag1042
ag895
aS'X-7a4510c7bfda00c380b5c232c19bfbd8'
p1655
ag844
ag214
aS'X-da1ff99a6f0bab893784741e5e77af10'
p1656
aS'X-e89b52427b5f883589ff9ae82e5c2164'
p1657
ag1255
aS'X-940957128b051da27ce34ce502a4f761'
p1658
aS'X-c88bed0c55d0bb31b6a8baa7e42f5552'
p1659
aS'X-6ea198398c5c3dd9c9f035d4b9f36a37'
p1660
ag1216
aS'X-40e73a02768352cf48e639eb9fe77769'
p1661
aS'X-43afc34dee11bbf52a3a29133c74070b'
p1662
ag967
aS'X-5041d1ac04606ffb0e9a4e049d663652'
p1663
ag613
ag712
ag952
aS'X-5ba14dc6d7e624e259ba57e4fa7489c8'
p1664
aS'X-7b4efc3d57d7c1f0161661eb7d9af5d3'
p1665
aS'X-f177ec30efd2eeee0864c55c76f1a1a9'
p1666
ag1078
ag1009
ag328
aS'X-41e4a517a70af1ccf22717e35f31d5c0'
p1667
ag775
ag157
aS'X-c16e49a329fcc5eec963a959616d2181'
p1668
aS'X-a448e8d8d17ca463a4d0f5a8a291d7ff'
p1669
aS'X-73165e2460df429628cf960515c09ee2'
p1670
ag880
ag100
aS'X-248b7c0ead447ee25b10bdc1768578e7'
p1671
ag238
ag538
aS'X-7bb376e4ffa121ef7c7da9a8d162b00b'
p1672
ag361
ag1273
aS'X-1b991af2074d1ad2d7df40f4f977f887'
p1673
ag1033
ag709
aS'X-eff41b2978e49695ace7ab85885d21f6'
p1674
ag580
ag553
aS'X-cd0a0f3fc2114683a54c0df856f5272a'
p1675
aS'X-f23a9ae7055c4c9a51f4193faccd1885'
p1676
ag1006
ag1243
ag991
aS'X-4a3aef37f5685bc06cfdf768a2dac782'
p1677
aS'X-19d7f4916e7c9a80d89d4153b81832b7'
p1678
aS'X-c1a515ff4c28ba74a46c2d0d2d1af999'
p1679
aS'X-ee2a3a6d10746528e0a291dd3e489179'
p1680
aS'X-9bb3174972b6b78e385c3c781dcc441f'
p1681
aS'X-3407936e5628e3c691d3f29bc297db83'
p1682
ag316
aS'X-33b9d10912b1a48dfda82e9d1e9738d0'
p1683
aS'X-0505833837198124f188b763e7b129a5'
p1684
aS'X-891081e2408486a5c5bf7b09045069f4'
p1685
ag490
ag808
ag448
ag988
ag1123
aS'X-8dac208059c17e5d2ca91a5475ee0823'
p1686
aS'X-2a8b7351dae8da3781ffe07b5f05f2b6'
p1687
aS'X-8554888cedb8252849fbb58fc1f7e465'
p1688
ag13
ag1336
aS'X-a3d963589e827bb9df2e05de49466fca'
p1689
ag514
ag163
ag994
ag526
ag544
ag388
aS'X-92cf73d54c451db420987adf83303ebe'
p1690
ag1246
aS'X-f891579091e7edce0ce8eb4b897eca76'
p1691
aS'X-b9ce53e1be4263364df1484b58801138'
p1692
aS'X-6ee39b1b9b300bb01537f49e23233f6f'
p1693
ag616
aS'X-5d5cc882c1349694f906d728354662d6'
p1694
aS'X-2ff9deca2a4c748cf7f464910bfe3e55'
p1695
ag178
ag826
ag25
aS'X-d41febeb39876ab945f9f433b73eab35'
p1696
aS'X-dd246fd5e8787a22b2f7de4137e2ba3a'
p1697
ag694
ag601
ag532
ag472
ag1090
ag196
aS'X-02277b866d87b11a76d550de854e1c5c'
p1698
aS'X-83c3c69e4e334d76f010a22525738809'
p1699
aS'X-84e7421c6063cc78ed77f378863b1b7d'
p1700
ag1204
ag427
aS'X-64f2d6d79925b793221b024ed3b5e639'
p1701
ag646
ag370
aS'X-b57c0e5801b1e93e13b45321b2c1808c'
p1702
aS'X-06cdc3f65fa68fd0474940c92af85ff1'
p1703
ag487
aS'X-d52e71fd026bc2c4391bfbec191e1199'
p1704
aS'X-b6defd7be3e9b276c3b58a165c29bbdb'
p1705
ag97
aS'X-c58fca96429829c9e560f7c4dc514429'
p1706
aS'X-8b041ece9a75566290e89d0ed238da19'
p1707
ag1303
aS'X-5755d4dfaba710036b362323d2f63988'
p1708
ag475
ag484
ag757
ag70
ag760
ag1027
ag40
aS'X-94e9f6bee4db4ff9712080735d400363'
p1709
aS'X-4534e1730e970ef2c98a6f34a85ac689'
p1710
aS'X-3150707935c34e0a5232ac0d53bb79e2'
p1711
aS'X-201116ac5861a58e2f4749c249ec166b'
p1712
ag373
ag493
ag556
ag1015
ag1048
aS'X-405a7977e0c9911309118ec7e2a87ced'
p1713
ag130
ag1222
ag1003
ag496
ag769
ag724
aS'X-c1be590f2d1950c000840d9ab93c4a51'
p1714
ag901
ag874
ag997
aS'X-473cb6b2da0fe26a3c70a9bf381cf149'
p1715
aS'X-b1382b54fac74dfed37a0d09d4f26ceb'
p1716
aS'X-92352e069ad96130a5cde3193b3f92a3'
p1717
ag310
ag1201
ag181
ag1282
ag1069
aS'X-00e7847b21449f70b3710566f855feea'
p1718
aS'X-9ac4821c60368433214e705c336b7c9f'
p1719
aS'X-5adb4d842d574dd48fd549c1d92ea5ca'
p1720
ag766
aS'X-25d910552f97a7281c72f7fcb2d1e033'
p1721
aS'X-9a3a6c41b6f46a752407c9588c9005e8'
p1722
ag1021
ag445
ag229
aS'X-f54616b235d1bd862c7df42f824ac6d8'
p1723
aS'X-50a0fc1bd499a6f435226098ecc04657'
p1724
ag88
ag913
ag1156
aS'X-e09fbe7aa140e64a4eb2858ab9b12742'
p1725
aS'X-98ff08a05ef744672947ec6a0ddca718'
p1726
ag529
ag1324
ag670
ag415
ag1132
ag37
ag292
ag595
aS'X-bdefc6d29270a7f6e69ca5eb6f8e6e59'
p1727
ag1153
aS'X-283a5c19fc3689d0f42df6649fa4ce04'
p1728
asg1666
(lp1729
S'22.3.2-7ea4921beff80e610ebf67cff4add312.raw,0.950749464668'
p1730
asg1622
(lp1731
S'22.3.2-7ea4921beff80e610ebf67cff4add312.raw,0.915254237288'
p1732
asg1573
(lp1733
S'22.3.2-7ea4921beff80e610ebf67cff4add312.raw,0.990554156171'
p1734
asg1686
(lp1735
S'22.3.2-7ea4921beff80e610ebf67cff4add312.raw,0.955414012739'
p1736
asg1494
(lp1737
S'22.3.2-7ea4921beff80e610ebf67cff4add312.raw,0.905405405405'
p1738
asg1665
(lp1739
S'22.3.2-7ea4921beff80e610ebf67cff4add312.raw,0.759036144578'
p1740
asg1575
(lp1741
S'22.3.2-7ea4921beff80e610ebf67cff4add312.raw,0.998340707965'
p1742
asg1525
(lp1743
S'22.3.2-7ea4921beff80e610ebf67cff4add312.raw,0.960655737705'
p1744
asg1642
(lp1745
S'22.3.2-7ea4921beff80e610ebf67cff4add312.raw,0.754491017964'
p1746
asg1579
(lp1747
S'22.3.2-7ea4921beff80e610ebf67cff4add312.raw,0.978647686833'
p1748
asg1455
(lp1749
S'22.3.2-7ea4921beff80e610ebf67cff4add312.raw,0.948979591837'
p1750
asg1477
(lp1751
S'22.3.2-7ea4921beff80e610ebf67cff4add312.raw,0.90873015873'
p1752
asg1670
(lp1753
S'22.3.2-7ea4921beff80e610ebf67cff4add312.raw,0.913793103448'
p1754
asg1427
(lp1755
S'22.3.2-7ea4921beff80e610ebf67cff4add312.raw,0.951030927835'
p1756
asg1634
(lp1757
S'22.3.2-7ea4921beff80e610ebf67cff4add312.raw,0.933168316832'
p1758
asg1480
(lp1759
S'22.3.2-7ea4921beff80e610ebf67cff4add312.raw,0.974637681159'
p1760
asg1640
(lp1761
S'22.3.2-7ea4921beff80e610ebf67cff4add312.raw,0.916870415648'
p1762
asg1675
(lp1763
S'22.3.2-7ea4921beff80e610ebf67cff4add312.raw,0.891891891892'
p1764
asg1661
(lp1765
S'22.3.2-7ea4921beff80e610ebf67cff4add312.raw,0.951030927835'
p1766
asg1437
(lp1767
S'22.3.2-7ea4921beff80e610ebf67cff4add312.raw,0.953367875648'
p1768
asg1602
(lp1769
S'22.3.2-7ea4921beff80e610ebf67cff4add312.raw,0.960975609756'
p1770
asg1392
(lp1771
S'22.3.2-7ea4921beff80e610ebf67cff4add312.raw,0.981661272923'
p1772
asg1375
(lp1773
S'22.3.2-7ea4921beff80e610ebf67cff4add312.raw,0.873417721519'
p1774
asg1636
(lp1775
S'22.3.2-7ea4921beff80e610ebf67cff4add312.raw,0.914285714286'
p1776
asg1508
(lp1777
S'22.3.2-7ea4921beff80e610ebf67cff4add312.raw,0.914004914005'
p1778
asg1594
(lp1779
S'22.3.2-7ea4921beff80e610ebf67cff4add312.raw,0.946291560102'
p1780
asg1402
(lp1781
S'22.3.2-7ea4921beff80e610ebf67cff4add312.raw,0.913793103448'
p1782
asg1551
(lp1783
S'22.3.2-7ea4921beff80e610ebf67cff4add312.raw,0.990967741935'
p1784
asg1414
(lp1785
S'22.3.2-7ea4921beff80e610ebf67cff4add312.raw,0.93023255814'
p1786
asg1505
(lp1787
S'22.3.2-7ea4921beff80e610ebf67cff4add312.raw,0.939698492462'
p1788
asg1401
(lp1789
S'22.3.2-7ea4921beff80e610ebf67cff4add312.raw,0.999779278683'
p1790
asg1362
(lp1791
S'22.3.2-7ea4921beff80e610ebf67cff4add312.raw,0.933660933661'
p1792
asg1599
(lp1793
S'22.3.2-7ea4921beff80e610ebf67cff4add312.raw,0.783783783784'
p1794
asg1617
(lp1795
S'22.3.2-7ea4921beff80e610ebf67cff4add312.raw,0.936'
p1796
asg1562
(lp1797
S'22.3.2-7ea4921beff80e610ebf67cff4add312.raw,0.779141104294'
p1798
asg1649
(lp1799
S'22.3.2-7ea4921beff80e610ebf67cff4add312.raw,0.999088838269'
p1800
asg1702
(lp1801
S'22.3.2-7ea4921beff80e610ebf67cff4add312.raw,0.931350114416'
p1802
asg1725
(lp1803
S'22.3.2-7ea4921beff80e610ebf67cff4add312.raw,0.991468616697'
p1804
asg1370
(lp1805
S'22.3.2-7ea4921beff80e610ebf67cff4add312.raw,0.922352941176'
p1806
asg1601
(lp1807
S'22.3.2-7ea4921beff80e610ebf67cff4add312.raw,0.837837837838'
p1808
asg1614
(lp1809
S'22.3.2-7ea4921beff80e610ebf67cff4add312.raw,0.997903563941'
p1810
asg1447
(lp1811
S'22.3.2-7ea4921beff80e610ebf67cff4add312.raw,0.979963570128'
p1812
asg1420
(lp1813
S'22.3.2-7ea4921beff80e610ebf67cff4add312.raw,0.951156812339'
p1814
asg1365
(lp1815
S'22.3.2-7ea4921beff80e610ebf67cff4add312.raw,0.941624365482'
p1816
asg1524
(lp1817
S'22.3.2-7ea4921beff80e610ebf67cff4add312.raw,0.941666666667'
p1818
asg1663
(lp1819
S'22.3.2-7ea4921beff80e610ebf67cff4add312.raw,0.990975747321'
p1820
asg1488
(lp1821
S'22.3.2-7ea4921beff80e610ebf67cff4add312.raw,0.914634146341'
p1822
asg1652
(lp1823
S'22.3.2-7ea4921beff80e610ebf67cff4add312.raw,0.896296296296'
p1824
asg1400
(lp1825
S'22.3.2-7ea4921beff80e610ebf67cff4add312.raw,0.976485148515'
p1826
asg1556
(lp1827
S'22.3.2-7ea4921beff80e610ebf67cff4add312.raw,0.951156812339'
p1828
asg1469
(lp1829
S'22.3.2-7ea4921beff80e610ebf67cff4add312.raw,0.932773109244'
p1830
asg1444
(lp1831
S'22.3.2-7ea4921beff80e610ebf67cff4add312.raw,0.891891891892'
p1832
asg1496
(lp1833
S'22.3.2-7ea4921beff80e610ebf67cff4add312.raw,0.999440653317'
p1834
asg1631
(lp1835
S'22.3.2-7ea4921beff80e610ebf67cff4add312.raw,0.918495297806'
p1836
asg1709
(lp1837
S'22.3.2-7ea4921beff80e610ebf67cff4add312.raw,0.991576413959'
p1838
asg1440
(lp1839
S'22.3.2-7ea4921beff80e610ebf67cff4add312.raw,0.989802421925'
p1840
asg1388
(lp1841
S'22.3.2-7ea4921beff80e610ebf67cff4add312.raw,0.999784077905'
p1842
asg1430
(lp1843
S'22.3.2-7ea4921beff80e610ebf67cff4add312.raw,0.914215686275'
p1844
asg1571
(lp1845
S'22.3.2-7ea4921beff80e610ebf67cff4add312.raw,0.914841849148'
p1846
asg1581
(lp1847
S'22.3.2-7ea4921beff80e610ebf67cff4add312.raw,0.878378378378'
p1848
asg1489
(lp1849
S'22.3.2-7ea4921beff80e610ebf67cff4add312.raw,0.999682841738'
p1850
asg1700
(lp1851
S'22.3.2-7ea4921beff80e610ebf67cff4add312.raw,0.918719211823'
p1852
asg1502
(lp1853
S'22.3.2-7ea4921beff80e610ebf67cff4add312.raw,0.92118226601'
p1854
asg1616
(lp1855
S'22.3.2-7ea4921beff80e610ebf67cff4add312.raw,0.993603411514'
p1856
asg1425
(lp1857
S'22.3.2-7ea4921beff80e610ebf67cff4add312.raw,0.948849104859'
p1858
asg1476
(lp1859
S'22.3.2-7ea4921beff80e610ebf67cff4add312.raw,0.958'
p1860
asg1711
(lp1861
S'22.3.2-7ea4921beff80e610ebf67cff4add312.raw,0.999393816933'
p1862
asg1713
(lp1863
S'22.3.2-7ea4921beff80e610ebf67cff4add312.raw,0.990214067278'
p1864
asg1723
(lp1865
S'22.3.2-7ea4921beff80e610ebf67cff4add312.raw,0.961254612546'
p1866
asg1668
(lp1867
S'22.3.2-7ea4921beff80e610ebf67cff4add312.raw,0.954081632653'
p1868
asg1467
(lp1869
S'22.3.2-7ea4921beff80e610ebf67cff4add312.raw,0.972185430464'
p1870
asg1376
(lp1871
S'22.3.2-7ea4921beff80e610ebf67cff4add312.raw,0.919315403423'
p1872
asg1703
(lp1873
S'22.3.2-7ea4921beff80e610ebf67cff4add312.raw,0.914841849148'
p1874
asg1443
(lp1875
S'22.3.2-7ea4921beff80e610ebf67cff4add312.raw,0.919315403423'
p1876
asg1386
(lp1877
S'22.3.2-7ea4921beff80e610ebf67cff4add312.raw,0.990675990676'
p1878
asg1647
(lp1879
S'22.3.2-7ea4921beff80e610ebf67cff4add312.raw,0.916256157635'
p1880
asg1643
(lp1881
S'22.3.2-7ea4921beff80e610ebf67cff4add312.raw,0.965457685665'
p1882
asg1391
(lp1883
S'22.3.2-7ea4921beff80e610ebf67cff4add312.raw,0.79375'
p1884
asg1612
(lp1885
S'22.3.2-7ea4921beff80e610ebf67cff4add312.raw,0.990751445087'
p1886
asg1577
(lp1887
S'22.3.2-7ea4921beff80e610ebf67cff4add312.raw,0.999505995419'
p1888
asg1672
(lp1889
S'22.3.2-7ea4921beff80e610ebf67cff4add312.raw,0.951530612245'
p1890
asg1660
(lp1891
S'22.3.2-7ea4921beff80e610ebf67cff4add312.raw,0.94696969697'
p1892
asg1520
(lp1893
S'22.3.2-7ea4921beff80e610ebf67cff4add312.raw,0.940677966102'
p1894
asg1678
(lp1895
S'22.3.2-7ea4921beff80e610ebf67cff4add312.raw,0.905882352941'
p1896
asg1648
(lp1897
S'22.3.2-7ea4921beff80e610ebf67cff4add312.raw,0.999724658774'
p1898
asg1369
(lp1899
S'22.3.2-7ea4921beff80e610ebf67cff4add312.raw,0.970639032815'
p1900
asg1546
(lp1901
S'22.3.2-7ea4921beff80e610ebf67cff4add312.raw,0.851351351351'
p1902
asg1408
(lp1903
S'22.3.2-7ea4921beff80e610ebf67cff4add312.raw,0.951530612245'
p1904
asg1679
(lp1905
S'22.3.2-7ea4921beff80e610ebf67cff4add312.raw,0.999529411765'
p1906
asg1459
(lp1907
S'22.3.2-7ea4921beff80e610ebf67cff4add312.raw,0.991266375546'
p1908
asg1521
(lp1909
S'22.3.2-7ea4921beff80e610ebf67cff4add312.raw,0.951406649616'
p1910
asg1695
(lp1911
S'22.3.2-7ea4921beff80e610ebf67cff4add312.raw,0.999668041922'
p1912
asg1580
(lp1913
S'22.3.2-7ea4921beff80e610ebf67cff4add312.raw,0.969696969697'
p1914
asg1657
(lp1915
S'22.3.2-7ea4921beff80e610ebf67cff4add312.raw,0.754491017964'
p1916
asg1498
(lp1917
S'22.3.2-7ea4921beff80e610ebf67cff4add312.raw,0.793939393939'
p1918
asg1706
(lp1919
S'22.3.2-7ea4921beff80e610ebf67cff4add312.raw,0.896551724138'
p1920
asg1438
(lp1921
S'22.3.2-7ea4921beff80e610ebf67cff4add312.raw,0.991017964072'
p1922
asg1527
(lp1923
S'22.3.2-7ea4921beff80e610ebf67cff4add312.raw,0.946902654867'
p1924
asg1693
(lp1925
S'22.3.2-7ea4921beff80e610ebf67cff4add312.raw,0.950649350649'
p1926
asg1446
(lp1927
S'22.3.2-7ea4921beff80e610ebf67cff4add312.raw,0.853333333333'
p1928
asg1585
(lp1929
S'22.3.2-7ea4921beff80e610ebf67cff4add312.raw,0.951030927835'
p1930
asg1561
(lp1931
S'22.3.2-7ea4921beff80e610ebf67cff4add312.raw,0.974226804124'
p1932
asg1721
(lp1933
S'22.3.2-7ea4921beff80e610ebf67cff4add312.raw,0.992988133765'
p1934
asg1626
(lp1935
S'22.3.2-7ea4921beff80e610ebf67cff4add312.raw,0.999764085187'
p1936
asg1658
(lp1937
S'22.3.2-7ea4921beff80e610ebf67cff4add312.raw,0.995857497929'
p1938
asg1377
(lp1939
S'22.3.2-7ea4921beff80e610ebf67cff4add312.raw,0.977192982456'
p1940
asg1548
(lp1941
S'22.3.2-7ea4921beff80e610ebf67cff4add312.raw,0.754491017964'
p1942
asg1367
(lp1943
S'22.3.2-7ea4921beff80e610ebf67cff4add312.raw,0.999833055092'
p1944
asg1630
(lp1945
S'22.3.2-7ea4921beff80e610ebf67cff4add312.raw,0.897540983607'
p1946
asg1540
(lp1947
S'22.3.2-7ea4921beff80e610ebf67cff4add312.raw,0.754385964912'
p1948
asg1491
(lp1949
S'22.3.2-7ea4921beff80e610ebf67cff4add312.raw,0.905325443787'
p1950
asg1635
(lp1951
S'22.3.2-7ea4921beff80e610ebf67cff4add312.raw,0.995037220844'
p1952
asg1651
(lp1953
S'22.3.2-7ea4921beff80e610ebf67cff4add312.raw,0.85201793722'
p1954
asg1422
(lp1955
S'22.3.2-7ea4921beff80e610ebf67cff4add312.raw,0.950904392765'
p1956
asg1589
(lp1957
S'22.3.2-7ea4921beff80e610ebf67cff4add312.raw,0.951530612245'
p1958
asg1490
(lp1959
S'22.3.2-7ea4921beff80e610ebf67cff4add312.raw,0.948320413437'
p1960
asg1416
(lp1961
S'22.3.2-7ea4921beff80e610ebf67cff4add312.raw,0.997816064062'
p1962
asg1645
(lp1963
S'22.3.2-7ea4921beff80e610ebf67cff4add312.raw,0.918918918919'
p1964
asg1378
(lp1965
S'22.3.2-7ea4921beff80e610ebf67cff4add312.raw,0.934604904632'
p1966
asg1542
(lp1967
S'22.3.2-7ea4921beff80e610ebf67cff4add312.raw,0.933774834437'
p1968
asg1509
(lp1969
S'22.3.2-7ea4921beff80e610ebf67cff4add312.raw,0.978910369069'
p1970
asg1428
(lp1971
S'22.3.2-7ea4921beff80e610ebf67cff4add312.raw,0.972273567468'
p1972
asg1442
(lp1973
S'22.3.2-7ea4921beff80e610ebf67cff4add312.raw,0.991171277222'
p1974
asg1609
(lp1975
S'22.3.2-7ea4921beff80e610ebf67cff4add312.raw,0.748502994012'
p1976
asg1590
(lp1977
S'22.3.2-7ea4921beff80e610ebf67cff4add312.raw,0.960848287113'
p1978
asg1526
(lp1979
S'22.3.2-7ea4921beff80e610ebf67cff4add312.raw,0.999800730654'
p1980
asg1415
(lp1981
S'22.3.2-7ea4921beff80e610ebf67cff4add312.raw,0.779141104294'
p1982
asg1522
(lp1983
S'22.3.2-7ea4921beff80e610ebf67cff4add312.raw,0.999937892056'
p1984
asg1500
(lp1985
S'22.3.2-7ea4921beff80e610ebf67cff4add312.raw,0.990441176471'
p1986
asg1445
(lp1987
S'22.3.2-7ea4921beff80e610ebf67cff4add312.raw,0.941025641026'
p1988
asg1726
(lp1989
S'22.3.2-7ea4921beff80e610ebf67cff4add312.raw,0.852216748768'
p1990
asg1387
(lp1991
S'22.3.2-7ea4921beff80e610ebf67cff4add312.raw,0.951406649616'
p1992
asg1384
(lp1993
S'22.3.2-7ea4921beff80e610ebf67cff4add312.raw,0.999716553288'
p1994
asg1407
(lp1995
S'22.3.2-7ea4921beff80e610ebf67cff4add312.raw,0.999764891957'
p1996
asg1691
(lp1997
S'22.3.2-7ea4921beff80e610ebf67cff4add312.raw,0.970479704797'
p1998
asg1597
(lp1999
S'22.3.2-7ea4921beff80e610ebf67cff4add312.raw,0.980836236934'
p2000
asg1534
(lp2001
S'22.3.2-7ea4921beff80e610ebf67cff4add312.raw,0.972118959108'
p2002
asg1515
(lp2003
S'22.3.2-7ea4921beff80e610ebf67cff4add312.raw,0.948849104859'
p2004
asg1464
(lp2005
S'22.3.2-7ea4921beff80e610ebf67cff4add312.raw,0.908653846154'
p2006
asg1409
(lp2007
S'22.3.2-7ea4921beff80e610ebf67cff4add312.raw,0.93984962406'
p2008
asg1593
(lp2009
S'22.3.2-7ea4921beff80e610ebf67cff4add312.raw,0.948717948718'
p2010
asg1620
(lp2011
S'22.3.2-7ea4921beff80e610ebf67cff4add312.raw,0.999786160294'
p2012
asg1717
(lp2013
S'22.3.2-7ea4921beff80e610ebf67cff4add312.raw,0.86'
p2014
asg1497
(lp2015
S'22.3.2-7ea4921beff80e610ebf67cff4add312.raw,0.905569007264'
p2016
asg1568
(lp2017
S'22.3.2-7ea4921beff80e610ebf67cff4add312.raw,0.914634146341'
p2018
asg1492
(lp2019
S'22.3.2-7ea4921beff80e610ebf67cff4add312.raw,0.942211055276'
p2020
asg1461
(lp2021
S'22.3.2-7ea4921beff80e610ebf67cff4add312.raw,0.902280130293'
p2022
asg1374
(lp2023
S'22.3.2-7ea4921beff80e610ebf67cff4add312.raw,0.939546599496'
p2024
asg1681
(lp2025
S'22.3.2-7ea4921beff80e610ebf67cff4add312.raw,0.992112676056'
p2026
asg1441
(lp2027
S'22.3.2-7ea4921beff80e610ebf67cff4add312.raw,0.765060240964'
p2028
asg1557
(lp2029
S'22.3.2-7ea4921beff80e610ebf67cff4add312.raw,0.948717948718'
p2030
asg1364
(lp2031
S'22.3.2-7ea4921beff80e610ebf67cff4add312.raw,0.931129476584'
p2032
asg1639
(lp2033
S'22.3.2-7ea4921beff80e610ebf67cff4add312.raw,0.92817679558'
p2034
asg1554
(lp2035
S'22.3.2-7ea4921beff80e610ebf67cff4add312.raw,0.851351351351'
p2036
asg1605
(lp2037
S'22.3.2-7ea4921beff80e610ebf67cff4add312.raw,0.75'
p2038
asg1537
(lp2039
S'22.3.2-7ea4921beff80e610ebf67cff4add312.raw,0.971506105834'
p2040
asg1412
(lp2041
S'22.3.2-7ea4921beff80e610ebf67cff4add312.raw,0.999331178241'
p2042
asg1393
(lp2043
S'22.3.2-7ea4921beff80e610ebf67cff4add312.raw,0.772151898734'
p2044
asg1479
(lp2045
S'22.3.2-7ea4921beff80e610ebf67cff4add312.raw,0.859728506787'
p2046
asg1473
(lp2047
S'22.3.2-7ea4921beff80e610ebf67cff4add312.raw,0.864628820961'
p2048
asg1698
(lp2049
S'22.3.2-7ea4921beff80e610ebf67cff4add312.raw,0.990990990991'
p2050
asg1715
(lp2051
S'22.3.2-7ea4921beff80e610ebf67cff4add312.raw,0.974169741697'
p2052
asg1457
(lp2053
S'22.3.2-7ea4921beff80e610ebf67cff4add312.raw,0.922518159806'
p2054
asg1615
(lp2055
S'22.3.2-7ea4921beff80e610ebf67cff4add312.raw,0.970802919708'
p2056
asg1481
(lp2057
S'22.3.2-7ea4921beff80e610ebf67cff4add312.raw,0.921760391198'
p2058
asg1471
(lp2059
S'22.3.2-7ea4921beff80e610ebf67cff4add312.raw,0.95641025641'
p2060
asg1530
(lp2061
S'22.3.2-7ea4921beff80e610ebf67cff4add312.raw,0.938369781312'
p2062
asg1727
(lp2063
S'22.3.2-7ea4921beff80e610ebf67cff4add312.raw,0.755813953488'
p2064
asg1495
(lp2065
S'22.3.2-7ea4921beff80e610ebf67cff4add312.raw,0.770186335404'
p2066
asg1385
(lp2067
S'22.3.2-7ea4921beff80e610ebf67cff4add312.raw,0.974025974026'
p2068
asg1435
(lp2069
S'22.3.2-7ea4921beff80e610ebf67cff4add312.raw,0.78125'
p2070
asg1419
(lp2071
S'22.3.2-7ea4921beff80e610ebf67cff4add312.raw,0.99971580144'
p2072
asg1453
(lp2073
S'22.3.2-7ea4921beff80e610ebf67cff4add312.raw,0.759036144578'
p2074
asg1389
(lp2075
S'22.3.2-7ea4921beff80e610ebf67cff4add312.raw,0.965573770492'
p2076
asg1669
(lp2077
S'22.3.2-7ea4921beff80e610ebf67cff4add312.raw,0.919117647059'
p2078
asg1411
(lp2079
S'22.3.2-7ea4921beff80e610ebf67cff4add312.raw,0.990518331226'
p2080
asg1472
(lp2081
S'22.3.2-7ea4921beff80e610ebf67cff4add312.raw,0.941326530612'
p2082
asg1465
(lp2083
S'22.3.2-7ea4921beff80e610ebf67cff4add312.raw,0.930715935335'
p2084
asg1598
(lp2085
S'22.3.2-7ea4921beff80e610ebf67cff4add312.raw,0.972426470588'
p2086
asg1705
(lp2087
S'22.3.2-7ea4921beff80e610ebf67cff4add312.raw,0.998939295039'
p2088
asg1539
(lp2089
S'22.3.2-7ea4921beff80e610ebf67cff4add312.raw,0.935622317597'
p2090
asg1674
(lp2091
S'22.3.2-7ea4921beff80e610ebf67cff4add312.raw,0.999643764695'
p2092
asg1676
(lp2093
S'22.3.2-7ea4921beff80e610ebf67cff4add312.raw,0.953488372093'
p2094
asg1586
(lp2095
S'22.3.2-7ea4921beff80e610ebf67cff4add312.raw,0.941176470588'
p2096
asg1424
(lp2097
S'22.3.2-7ea4921beff80e610ebf67cff4add312.raw,0.948586118252'
p2098
asg1451
(lp2099
S'22.3.2-7ea4921beff80e610ebf67cff4add312.raw,0.941919191919'
p2100
asg1671
(lp2101
S'22.3.2-7ea4921beff80e610ebf67cff4add312.raw,0.861607142857'
p2102
asg1553
(lp2103
S'22.3.2-7ea4921beff80e610ebf67cff4add312.raw,0.85308056872'
p2104
asg1485
(lp2105
S'22.3.2-7ea4921beff80e610ebf67cff4add312.raw,0.891891891892'
p2106
asg1405
(lp2107
S'22.3.2-7ea4921beff80e610ebf67cff4add312.raw,0.971962616822'
p2108
asg1403
(lp2109
S'22.3.2-7ea4921beff80e610ebf67cff4add312.raw,0.848484848485'
p2110
asg1450
(lp2111
S'22.3.2-7ea4921beff80e610ebf67cff4add312.raw,0.969904240766'
p2112
asg1519
(lp2113
S'22.3.2-7ea4921beff80e610ebf67cff4add312.raw,0.966292134831'
p2114
asg1468
(lp2115
S'22.3.2-7ea4921beff80e610ebf67cff4add312.raw,0.962356792144'
p2116
asg1463
(lp2117
S'22.3.2-7ea4921beff80e610ebf67cff4add312.raw,0.99980738775'
p2118
asg1518
(lp2119
S'22.3.2-7ea4921beff80e610ebf67cff4add312.raw,0.784810126582'
p2120
asg1501
(lp2121
S'22.3.2-7ea4921beff80e610ebf67cff4add312.raw,0.930803571429'
p2122
asg1536
(lp2123
S'22.3.2-7ea4921beff80e610ebf67cff4add312.raw,0.991078066914'
p2124
asg1572
(lp2125
S'22.3.2-7ea4921beff80e610ebf67cff4add312.raw,0.991601679664'
p2126
asg1529
(lp2127
S'22.3.2-7ea4921beff80e610ebf67cff4add312.raw,0.932773109244'
p2128
asg1719
(lp2129
S'22.3.2-7ea4921beff80e610ebf67cff4add312.raw,0.99306518724'
p2130
asg1483
(lp2131
S'22.3.2-7ea4921beff80e610ebf67cff4add312.raw,0.972527472527'
p2132
asg1432
(lp2133
S'22.3.2-7ea4921beff80e610ebf67cff4add312.raw,0.971731448763'
p2134
asg1462
(lp2135
S'22.3.2-7ea4921beff80e610ebf67cff4add312.raw,0.999875187219'
p2136
asg1363
(lp2137
S'22.3.2-7ea4921beff80e610ebf67cff4add312.raw,0.755813953488'
p2138
asg1478
(lp2139
S'22.3.2-7ea4921beff80e610ebf67cff4add312.raw,0.977586206897'
p2140
asg1390
(lp2141
S'22.3.2-7ea4921beff80e610ebf67cff4add312.raw,0.975481611208'
p2142
asg1688
(lp2143
S'22.3.2-7ea4921beff80e610ebf67cff4add312.raw,0.759259259259'
p2144
asg1452
(lp2145
S'22.3.2-7ea4921beff80e610ebf67cff4add312.raw,0.917073170732'
p2146
asg1627
(lp2147
S'22.3.2-7ea4921beff80e610ebf67cff4add312.raw,0.975438596491'
p2148
asg1607
(lp2149
S'22.3.2-7ea4921beff80e610ebf67cff4add312.raw,0.95165394402'
p2150
asg1664
(lp2151
S'22.3.2-7ea4921beff80e610ebf67cff4add312.raw,0.987558320373'
p2152
asg1448
(lp2153
S'22.3.2-7ea4921beff80e610ebf67cff4add312.raw,0.986206896552'
p2154
asg1510
(lp2155
S'22.3.2-7ea4921beff80e610ebf67cff4add312.raw,0.996986006459'
p2156
asg1368
(lp2157
S'22.3.2-7ea4921beff80e610ebf67cff4add312.raw,0.934693877551'
p2158
asg1654
(lp2159
S'22.3.2-7ea4921beff80e610ebf67cff4add312.raw,0.928039702233'
p2160
asg1523
(lp2161
S'22.3.2-7ea4921beff80e610ebf67cff4add312.raw,0.991982896847'
p2162
asg1707
(lp2163
S'22.3.2-7ea4921beff80e610ebf67cff4add312.raw,0.934010152284'
p2164
asg1449
(lp2165
S'22.3.2-7ea4921beff80e610ebf67cff4add312.raw,0.868995633188'
p2166
asg1592
(lp2167
S'22.3.2-7ea4921beff80e610ebf67cff4add312.raw,0.92039800995'
p2168
asg1410
(lp2169
S'22.3.2-7ea4921beff80e610ebf67cff4add312.raw,0.877637130802'
p2170
asg1558
(lp2171
S'22.3.2-7ea4921beff80e610ebf67cff4add312.raw,0.939688715953'
p2172
asg1552
(lp2173
S'22.3.2-7ea4921beff80e610ebf67cff4add312.raw,0.946428571429'
p2174
asg1504
(lp2175
S'22.3.2-7ea4921beff80e610ebf67cff4add312.raw,0.954081632653'
p2176
asg1613
(lp2177
S'22.3.2-7ea4921beff80e610ebf67cff4add312.raw,0.944584382872'
p2178
asg1641
(lp2179
S'22.3.2-7ea4921beff80e610ebf67cff4add312.raw,0.996249062266'
p2180
asg1624
(lp2181
S'22.3.2-7ea4921beff80e610ebf67cff4add312.raw,0.75'
p2182
asg1458
(lp2183
S'22.3.2-7ea4921beff80e610ebf67cff4add312.raw,0.971428571429'
p2184
asg1493
(lp2185
S'22.3.2-7ea4921beff80e610ebf67cff4add312.raw,0.999810600082'
p2186
asg1555
(lp2187
S'22.3.2-7ea4921beff80e610ebf67cff4add312.raw,0.944751381215'
p2188
asg1611
(lp2189
S'22.3.2-7ea4921beff80e610ebf67cff4add312.raw,0.939240506329'
p2190
asg1517
(lp2191
S'22.3.2-7ea4921beff80e610ebf67cff4add312.raw,0.999710228919'
p2192
asg1397
(lp2193
S'22.3.2-7ea4921beff80e610ebf67cff4add312.raw,0.984400656814'
p2194
asg1673
(lp2195
S'22.3.2-7ea4921beff80e610ebf67cff4add312.raw,0.999502959649'
p2196
asg1656
(lp2197
S'22.3.2-7ea4921beff80e610ebf67cff4add312.raw,0.928251121076'
p2198
asg1439
(lp2199
S'22.3.2-7ea4921beff80e610ebf67cff4add312.raw,0.990415335463'
p2200
asg1486
(lp2201
S'22.3.2-7ea4921beff80e610ebf67cff4add312.raw,0.914215686275'
p2202
asg1653
(lp2203
S'22.3.2-7ea4921beff80e610ebf67cff4add312.raw,0.748502994012'
p2204
asg1535
(lp2205
S'22.3.2-7ea4921beff80e610ebf67cff4add312.raw,0.932065217391'
p2206
asg1694
(lp2207
S'22.3.2-7ea4921beff80e610ebf67cff4add312.raw,0.99294221438'
p2208
asg1436
(lp2209
S'22.3.2-7ea4921beff80e610ebf67cff4add312.raw,0.946835443038'
p2210
asg1404
(lp2211
S'22.3.2-7ea4921beff80e610ebf67cff4add312.raw,0.988372093023'
p2212
asg1633
(lp2213
S'22.3.2-7ea4921beff80e610ebf67cff4add312.raw,0.845771144279'
p2214
asg1383
(lp2215
S'22.3.2-7ea4921beff80e610ebf67cff4add312.raw,0.917675544794'
p2216
asg1696
(lp2217
S'22.3.2-7ea4921beff80e610ebf67cff4add312.raw,0.918502202643'
p2218
asg1569
(lp2219
S'22.3.2-7ea4921beff80e610ebf67cff4add312.raw,0.949109414758'
p2220
asg1685
(lp2221
S'22.3.2-7ea4921beff80e610ebf67cff4add312.raw,0.99721307322'
p2222
asg1704
(lp2223
S'22.3.2-7ea4921beff80e610ebf67cff4add312.raw,0.909535452323'
p2224
asg1689
(lp2225
S'22.3.2-7ea4921beff80e610ebf67cff4add312.raw,0.991077119184'
p2226
asg1482
(lp2227
S'22.3.2-7ea4921beff80e610ebf67cff4add312.raw,0.972173913043'
p2228
asg1516
(lp2229
S'22.3.2-7ea4921beff80e610ebf67cff4add312.raw,0.953246753247'
p2230
asg1475
(lp2231
S'22.3.2-7ea4921beff80e610ebf67cff4add312.raw,0.891891891892'
p2232
asg1718
(lp2233
S'22.3.2-7ea4921beff80e610ebf67cff4add312.raw,0.931111111111'
p2234
asg1600
(lp2235
S'22.3.2-7ea4921beff80e610ebf67cff4add312.raw,0.837719298246'
p2236
asg1687
(lp2237
S'22.3.2-7ea4921beff80e610ebf67cff4add312.raw,0.918518518519'
p2238
asg1503
(lp2239
S'22.3.2-7ea4921beff80e610ebf67cff4add312.raw,0.991442542787'
p2240
asg1512
(lp2241
S'22.3.2-7ea4921beff80e610ebf67cff4add312.raw,0.944174757282'
p2242
asg1582
(lp2243
S'22.3.2-7ea4921beff80e610ebf67cff4add312.raw,0.973634651601'
p2244
asg1596
(lp2245
S'22.3.2-7ea4921beff80e610ebf67cff4add312.raw,0.857142857143'
p2246
asg1610
(lp2247
S'22.3.2-7ea4921beff80e610ebf67cff4add312.raw,0.991082045184'
p2248
asg1684
(lp2249
S'22.3.2-7ea4921beff80e610ebf67cff4add312.raw,0.904458598726'
p2250
asg1528
(lp2251
S'22.3.2-7ea4921beff80e610ebf67cff4add312.raw,0.779141104294'
p2252
asg1371
(lp2253
S'22.3.2-7ea4921beff80e610ebf67cff4add312.raw,0.991325898389'
p2254
asg1644
(lp2255
S'22.3.2-7ea4921beff80e610ebf67cff4add312.raw,0.993642143506'
p2256
asg1531
(lp2257
S'22.3.2-7ea4921beff80e610ebf67cff4add312.raw,0.921568627451'
p2258
asg1667
(lp2259
S'22.3.2-7ea4921beff80e610ebf67cff4add312.raw,0.873949579832'
p2260
asg1545
(lp2261
S'22.3.2-7ea4921beff80e610ebf67cff4add312.raw,0.992112676056'
p2262
asg1650
(lp2263
S'22.3.2-7ea4921beff80e610ebf67cff4add312.raw,0.951156812339'
p2264
asg1584
(lp2265
S'22.3.2-7ea4921beff80e610ebf67cff4add312.raw,0.999869687032'
p2266
asg1417
(lp2267
S'22.3.2-7ea4921beff80e610ebf67cff4add312.raw,0.953246753247'
p2268
asg1565
(lp2269
S'22.3.2-7ea4921beff80e610ebf67cff4add312.raw,0.996515679443'
p2270
asg1395
(lp2271
S'22.3.2-7ea4921beff80e610ebf67cff4add312.raw,0.96875'
p2272
asg1429
(lp2273
S'22.3.2-7ea4921beff80e610ebf67cff4add312.raw,0.822784810127'
p2274
asg1595
(lp2275
S'22.3.2-7ea4921beff80e610ebf67cff4add312.raw,0.967966573816'
p2276
asg1608
(lp2277
S'22.3.2-7ea4921beff80e610ebf67cff4add312.raw,0.934210526316'
p2278
asg1587
(lp2279
S'22.3.2-7ea4921beff80e610ebf67cff4add312.raw,0.939688715953'
p2280
asg1662
(lp2281
S'22.3.2-7ea4921beff80e610ebf67cff4add312.raw,0.891891891892'
p2282
asg1431
(lp2283
S'22.3.2-7ea4921beff80e610ebf67cff4add312.raw,0.967921896792'
p2284
asg1716
(lp2285
S'22.3.2-7ea4921beff80e610ebf67cff4add312.raw,0.916870415648'
p2286
asg1567
(lp2287
S'22.3.2-7ea4921beff80e610ebf67cff4add312.raw,0.951282051282'
p2288
asg1372
(lp2289
S'22.3.2-7ea4921beff80e610ebf67cff4add312.raw,0.979202772964'
p2290
asg1366
(lp2291
S'22.3.2-7ea4921beff80e610ebf67cff4add312.raw,0.866666666667'
p2292
asg1728
(lp2293
S'22.3.2-7ea4921beff80e610ebf67cff4add312.raw,0.963386727689'
p2294
asg1454
(lp2295
S'22.3.2-7ea4921beff80e610ebf67cff4add312.raw,0.942263279446'
p2296
asg1692
(lp2297
S'22.3.2-7ea4921beff80e610ebf67cff4add312.raw,0.82'
p2298
asg1418
(lp2299
S'22.3.2-7ea4921beff80e610ebf67cff4add312.raw,0.829931972789'
p2300
asg1470
(lp2301
S'22.3.2-7ea4921beff80e610ebf67cff4add312.raw,0.972014925373'
p2302
asg1583
(lp2303
S'22.3.2-7ea4921beff80e610ebf67cff4add312.raw,0.998058252427'
p2304
asg1655
(lp2305
S'22.3.2-7ea4921beff80e610ebf67cff4add312.raw,0.999268318177'
p2306
asg1701
(lp2307
S'22.3.2-7ea4921beff80e610ebf67cff4add312.raw,0.999764640435'
p2308
asg1638
(lp2309
S'22.3.2-7ea4921beff80e610ebf67cff4add312.raw,0.961538461538'
p2310
asg1570
(lp2311
S'22.3.2-7ea4921beff80e610ebf67cff4add312.raw,0.929319371728'
p2312
asg1380
(lp2313
S'22.3.2-7ea4921beff80e610ebf67cff4add312.raw,0.986666666667'
p2314
asg1513
(lp2315
S'22.3.2-7ea4921beff80e610ebf67cff4add312.raw,0.948148148148'
p2316
asg1632
(lp2317
S'22.3.2-7ea4921beff80e610ebf67cff4add312.raw,0.948849104859'
p2318
asg1543
(lp2319
S'22.3.2-7ea4921beff80e610ebf67cff4add312.raw,0.951406649616'
p2320
asg1559
(lp2321
S'22.3.2-7ea4921beff80e610ebf67cff4add312.raw,0.797297297297'
p2322
asg1532
(lp2323
S'22.3.2-7ea4921beff80e610ebf67cff4add312.raw,0.898916967509'
p2324
asg1621
(lp2325
S'22.3.2-7ea4921beff80e610ebf67cff4add312.raw,0.999905873494'
p2326
asg1619
(lp2327
S'22.3.2-7ea4921beff80e610ebf67cff4add312.raw,0.937254901961'
p2328
asg1549
(lp2329
S'22.3.2-7ea4921beff80e610ebf67cff4add312.raw,0.849246231156'
p2330
asg1499
(lp2331
S'22.3.2-7ea4921beff80e610ebf67cff4add312.raw,0.930337078652'
p2332
asg1629
(lp2333
S'22.3.2-7ea4921beff80e610ebf67cff4add312.raw,0.976702508961'
p2334
asg1623
(lp2335
S'22.3.2-7ea4921beff80e610ebf67cff4add312.raw,0.915048543689'
p2336
asg1722
(lp2337
S'22.3.2-7ea4921beff80e610ebf67cff4add312.raw,0.919117647059'
p2338
asg1625
(lp2339
S'22.3.2-7ea4921beff80e610ebf67cff4add312.raw,0.855140186916'
p2340
asg1538
(lp2341
S'22.3.2-7ea4921beff80e610ebf67cff4add312.raw,0.975567190227'
p2342
asg1379
(lp2343
S'22.3.2-7ea4921beff80e610ebf67cff4add312.raw,0.977025392987'
p2344
asg1456
(lp2345
S'22.3.2-7ea4921beff80e610ebf67cff4add312.raw,0.941624365482'
p2346
asg1514
(lp2347
S'22.3.2-7ea4921beff80e610ebf67cff4add312.raw,0.950520833333'
p2348
asg1484
(lp2349
S'22.3.2-7ea4921beff80e610ebf67cff4add312.raw,0.912621359223'
p2350
asg1720
(lp2351
S'22.3.2-7ea4921beff80e610ebf67cff4add312.raw,0.956435643564'
p2352
asg1460
(lp2353
S'22.3.2-7ea4921beff80e610ebf67cff4add312.raw,0.95045045045'
p2354
asg1381
(lp2355
S'22.3.2-7ea4921beff80e610ebf67cff4add312.raw,0.878378378378'
p2356
asg1724
(lp2357
S'22.3.2-7ea4921beff80e610ebf67cff4add312.raw,0.999735961979'
p2358
asg1659
(lp2359
S'22.3.2-7ea4921beff80e610ebf67cff4add312.raw,0.972413793103'
p2360
asg1566
(lp2361
S'22.3.2-7ea4921beff80e610ebf67cff4add312.raw,0.972067039106'
p2362
asg1564
(lp2363
S'22.3.2-7ea4921beff80e610ebf67cff4add312.raw,0.920987654321'
p2364
asg1563
(lp2365
S'22.3.2-7ea4921beff80e610ebf67cff4add312.raw,0.888030888031'
p2366
asg1423
(lp2367
S'22.3.2-7ea4921beff80e610ebf67cff4add312.raw,0.914425427873'
p2368
asg1560
(lp2369
S'22.3.2-7ea4921beff80e610ebf67cff4add312.raw,0.941919191919'
p2370
asg1506
(lp2371
S'22.3.2-7ea4921beff80e610ebf67cff4add312.raw,0.953246753247'
p2372
asg1714
(lp2373
S'22.3.2-7ea4921beff80e610ebf67cff4add312.raw,0.905405405405'
p2374
asg1637
(lp2375
S'22.3.2-7ea4921beff80e610ebf67cff4add312.raw,0.925301204819'
p2376
asg1544
(lp2377
S'22.3.2-7ea4921beff80e610ebf67cff4add312.raw,0.915662650602'
p2378
asg1550
(lp2379
S'22.3.2-7ea4921beff80e610ebf67cff4add312.raw,0.990985576923'
p2380
asg1699
(lp2381
S'22.3.2-7ea4921beff80e610ebf67cff4add312.raw,0.765432098765'
p2382
asg1426
(lp2383
S'22.3.2-7ea4921beff80e610ebf67cff4add312.raw,0.922518159806'
p2384
asg1466
(lp2385
S'22.3.2-7ea4921beff80e610ebf67cff4add312.raw,0.972270363951'
p2386
asg1382
(lp2387
S'22.3.2-7ea4921beff80e610ebf67cff4add312.raw,0.948849104859'
p2388
asg1398
(lp2389
S'22.3.2-7ea4921beff80e610ebf67cff4add312.raw,0.929223744292'
p2390
asg1628
(lp2391
S'22.3.2-7ea4921beff80e610ebf67cff4add312.raw,0.855'
p2392
asg1373
(lp2393
S'22.3.2-7ea4921beff80e610ebf67cff4add312.raw,0.909756097561'
p2394
asg1574
(lp2395
S'22.3.2-7ea4921beff80e610ebf67cff4add312.raw,0.783439490446'
p2396
asg1547
(lp2397
S'22.3.2-7ea4921beff80e610ebf67cff4add312.raw,0.972014925373'
p2398
asg1474
(lp2399
S'22.3.2-7ea4921beff80e610ebf67cff4add312.raw,0.914425427873'
p2400
asg1618
(lp2401
S'22.3.2-7ea4921beff80e610ebf67cff4add312.raw,0.909465020576'
p2402
asg1433
(lp2403
S'22.3.2-7ea4921beff80e610ebf67cff4add312.raw,0.999503027017'
p2404
asg1680
(lp2405
S'22.3.2-7ea4921beff80e610ebf67cff4add312.raw,0.918719211823'
p2406
asg1712
(lp2407
S'22.3.2-7ea4921beff80e610ebf67cff4add312.raw,0.951030927835'
p2408
asg1541
(lp2409
S'22.3.2-7ea4921beff80e610ebf67cff4add312.raw,0.972627737226'
p2410
asg1413
(lp2411
S'22.3.2-7ea4921beff80e610ebf67cff4add312.raw,0.999598474202'
p2412
asg1677
(lp2413
S'22.3.2-7ea4921beff80e610ebf67cff4add312.raw,0.856459330144'
p2414
asg1399
(lp2415
S'22.3.2-7ea4921beff80e610ebf67cff4add312.raw,0.990349819059'
p2416
asg1578
(lp2417
S'22.3.2-7ea4921beff80e610ebf67cff4add312.raw,0.9670781893'
p2418
asg1683
(lp2419
S'22.3.2-7ea4921beff80e610ebf67cff4add312.raw,0.928746928747'
p2420
asg1421
(lp2421
S'22.3.2-7ea4921beff80e610ebf67cff4add312.raw,0.999691511829'
p2422
asg1603
(lp2423
S'22.3.2-7ea4921beff80e610ebf67cff4add312.raw,0.982046678636'
p2424
asg1533
(lp2425
S'22.3.2-7ea4921beff80e610ebf67cff4add312.raw,0.77027027027'
p2426
asg1588
(lp2427
S'22.3.2-7ea4921beff80e610ebf67cff4add312.raw,0.953608247423'
p2428
asg1708
(lp2429
S'22.3.2-7ea4921beff80e610ebf67cff4add312.raw,0.951030927835'
p2430
asg1591
(lp2431
S'22.3.2-7ea4921beff80e610ebf67cff4add312.raw,0.990215264188'
p2432
asg1396
(lp2433
S'22.3.2-7ea4921beff80e610ebf67cff4add312.raw,0.922077922078'
p2434
asg1507
(lp2435
S'22.3.2-7ea4921beff80e610ebf67cff4add312.raw,0.914215686275'
p2436
asg1487
(lp2437
S'22.3.2-7ea4921beff80e610ebf67cff4add312.raw,0.905882352941'
p2438
asg1710
(lp2439
S'22.3.2-7ea4921beff80e610ebf67cff4add312.raw,0.972627737226'
p2440
asg1606
(lp2441
S'22.3.2-7ea4921beff80e610ebf67cff4add312.raw,0.869565217391'
p2442
asg1511
(lp2443
S'22.3.2-7ea4921beff80e610ebf67cff4add312.raw,0.951776649746'
p2444
asg1646
(lp2445
S'22.3.2-7ea4921beff80e610ebf67cff4add312.raw,0.95165394402'
p2446
asg1576
(lp2447
S'22.3.2-7ea4921beff80e610ebf67cff4add312.raw,0.801204819277'
p2448
asg1697
(lp2449
S'22.3.2-7ea4921beff80e610ebf67cff4add312.raw,0.919117647059'
p2450
asg1690
(lp2451
S'22.3.2-7ea4921beff80e610ebf67cff4add312.raw,0.912408759124'
p2452
asg1604
(lp2453
S'22.3.2-7ea4921beff80e610ebf67cff4add312.raw,0.928240740741'
p2454
asg1682
(lp2455
S'22.3.2-7ea4921beff80e610ebf67cff4add312.raw,0.951406649616'
p2456
asg1394
(lp2457
S'22.3.2-7ea4921beff80e610ebf67cff4add312.raw,0.973880597015'
p2458
asg1434
(lp2459
S'22.3.2-7ea4921beff80e610ebf67cff4add312.raw,0.922155688623'
p2460
asg1406
(lp2461
S'22.3.2-7ea4921beff80e610ebf67cff4add312.raw,0.990080595164'
p2462
as.