(dp0
S'18-fe5e8c1bd8291d61eaeb791821a20885.raw'
p1
(lp2
S'18-9d484817327e5204821c4e6f1443325f.raw,1.81725888325'
p3
asS'5.2-5a63cd881fbb0e8e949435af162f66a1.raw'
p4
(lp5
S'5.3-718a9b08a38c979146cece8ff674ecd2.raw,1.99609375'
p6
asS'18-4e3bcaa89a686ce1506cad15213ca37f.raw'
p7
(lp8
S'18-9d484817327e5204821c4e6f1443325f.raw,1.82487309645'
p9
asS'18-ad82c7ae9ac6e8fe687bd1564874c72c.raw'
p10
(lp11
S'18-9d484817327e5204821c4e6f1443325f.raw,1.81518987342'
p12
asS'14.1.2-29303771b81258c99d79d852ad1bb56d.raw'
p13
(lp14
S'14.6-afb3a89e813e29b90a1ed791577a3100.raw,1.84950926936'
p15
asS'18-ec9d093dcc76aa1b0e7fc85fe1d4908a.raw'
p16
(lp17
S'18-9d484817327e5204821c4e6f1443325f.raw,1.81233243968'
p18
asS'14.6-76e8f6f9bd06d43aaccfbe7177742f76.raw'
p19
(lp20
S'14.1.2-883516c63f6ca421f208f02e0a53dfda.raw,1.85542168675'
p21
asS'18-a007919d3b6c2269a0ac5ec40c270c3b.raw'
p22
(lp23
S'18-9d484817327e5204821c4e6f1443325f.raw,1.82278481013'
p24
asS'11-78ef0a12b949f2cbac528610ceb59f14.raw'
p25
(lp26
S'11-1e5efe8964d4ff3255f415e51a8781e8.raw,1.6'
p27
asS'29'
p28
(lp29
S'29-8d216fb284c55725d577c8506418dff4.raw'
p30
aS'29-7e1342bba879767880aaf65d9e6859c9.raw'
p31
aS'29-50eba7c78b50c61d5e964c3bccad2ec4.raw'
p32
aS'29-20cfefbca05c2faa7fe643cd0fe6487c.raw'
p33
aS'29-15af40c347a16f4206b564d4d5e58be2.raw'
p34
aS'29-28689bc4d451c05931e7903d0ee17d2f.raw'
p35
aS'29-55bd961af45636738c7c5e1891bc53a9.raw'
p36
aS'29-31dc126226fbefdc012bee8dce22539d.raw'
p37
aS'29-8da56c9d1ed977fc2aec41e085241b4c.raw'
p38
aS'29.1-257cc578a26560b7ae9ec7888f54a1ad.raw'
p39
aS'29-7d153ea9f08017d5b539621d88792597.raw'
p40
asS'18-e8946c832dce383383ef8f8556a0830e.raw'
p41
(lp42
S'18-9d484817327e5204821c4e6f1443325f.raw,1.82323232323'
p43
asS'18-7f361fd51036a64ba60fb9d71d270966.raw'
p44
(lp45
S'18-9d484817327e5204821c4e6f1443325f.raw,1.82278481013'
p46
asS'8'
p47
(lp48
S'8-6c5b9065372dddec27eb4fb49fe160d8.raw'
p49
aS'8-0b7d99c126630c338d6dc51fc387d0b8.raw'
p50
aS'8-6bf6cb9da054e0d5b22b0f4c5f54f59a.raw'
p51
aS'8-2a83e7f5b96d7e36e1512fef88bc0de6.raw'
p52
aS'8-5d1055fe2e8bc8697474fc261336b476.raw'
p53
aS'8-4ec0c06a0e1c517206431c8b8e173fd5.raw'
p54
aS'8-ddc13f738bfde488e90a7ef5a71a6db1.raw'
p55
aS'8-0b24deaba05f352d96b58df0ffac475a.raw'
p56
aS'8-2868ff07e1bc760488962955a850a7be.raw'
p57
aS'8-2f949a63fccdb4458a081aa33172b0a0.raw'
p58
aS'8-4a549a6dbcf2ee4c2bc220b644278cf5.raw'
p59
asS'18-6179da1735dbe728081cc9777e34a943.raw'
p60
(lp61
S'18-9d484817327e5204821c4e6f1443325f.raw,1.82278481013'
p62
asS'11-1e5efe8964d4ff3255f415e51a8781e8.raw'
p63
(lp64
S'11-6c1bc1614d57c66fe536d3c31a05cafd.raw,1.6'
p65
asg36
(lp66
S'29.1-257cc578a26560b7ae9ec7888f54a1ad.raw,1.96083550914'
p67
asS'18-97866e8a5c0b4b40263850ec909ab410.raw'
p68
(lp69
S'18-9d484817327e5204821c4e6f1443325f.raw,1.82487309645'
p70
asg49
(lp71
S'8-6bf6cb9da054e0d5b22b0f4c5f54f59a.raw,1.8624535316'
p72
asS'14.6-10ba8d0e754458237fb50442d3c2ca42.raw'
p73
(lp74
S'14.1.2-883516c63f6ca421f208f02e0a53dfda.raw,1.85423365488'
p75
asS'18-07fe449397be518966075d35851d910e.raw'
p76
(lp77
S'18-9d484817327e5204821c4e6f1443325f.raw,1.82278481013'
p78
asg52
(lp79
S'8-6bf6cb9da054e0d5b22b0f4c5f54f59a.raw,1.843866171'
p80
asS'18-e8e976b95b6372bea0cd186bbe4e7a08.raw'
p81
(lp82
S'18-9d484817327e5204821c4e6f1443325f.raw,1.82278481013'
p83
asS'14.1.2-c3b69b7940ffab4f7ab1c6776621c174.raw'
p84
(lp85
S'14.6-afb3a89e813e29b90a1ed791577a3100.raw,1.85278080698'
p86
asS'18-f762208ebf755a34e3b2c66c7d66f4e0.raw'
p87
(lp88
S'18-9d484817327e5204821c4e6f1443325f.raw,1.82487309645'
p89
asS'18-1e736444770b6d0133bd4c6172e7452f.raw'
p90
(lp91
S'18-9d484817327e5204821c4e6f1443325f.raw,1.82323232323'
p92
asS'18-00c8670e9b3dcb9cdb85537c244dda5e.raw'
p93
(lp94
S'18-9d484817327e5204821c4e6f1443325f.raw,1.82233502538'
p95
asS'18-d54518652204bf0176d138f7e13d2620.raw'
p96
(lp97
S'18-9d484817327e5204821c4e6f1443325f.raw,1.82323232323'
p98
asS'18-09bacec6a7af20f8eac8d241a6b782cf.raw'
p99
(lp100
S'18-9d484817327e5204821c4e6f1443325f.raw,1.82487309645'
p101
asS'14.5-392b618c7ab897ccfe8cbdad9a1531db.raw'
p102
(lp103
S'14.1.2-883516c63f6ca421f208f02e0a53dfda.raw,1.86913357401'
p104
asS'18-1cac979a552ce0ede9994ed05c42210d.raw'
p105
(lp106
S'18-9d484817327e5204821c4e6f1443325f.raw,1.82278481013'
p107
asS'18-738b03b782750f86b5ab5397a3bf5191.raw'
p108
(lp109
S'18-9d484817327e5204821c4e6f1443325f.raw,1.82442748092'
p110
asS'14'
p111
(lp112
S'14.1.2-883516c63f6ca421f208f02e0a53dfda.raw'
p113
aS'14.6-afb3a89e813e29b90a1ed791577a3100.raw'
p114
aS'14.6-727db1fdb8bb6e9b18cf2cace89dbd74.raw'
p115
aS'14.1.2-a83d8b396c494895f572bc3988952a7c.raw'
p116
aS'14.6-0af88469d89e56e428a2cd0c70fdf905.raw'
p117
ag84
aS'14.1.2-ae4652b546a10c092c22036bbc0db641.raw'
p118
aS'14.6-0c7de3e28d712110b9693c97e55cda73.raw'
p119
aS'14.5-47248b4882fdd25c8ffbdec4401233ff.raw'
p120
aS'14.1.2-bb50eab41b5b5da6811b498ba787ebd0.raw'
p121
aS'14.1.2-ad85fd04665793ec30b30cd2c7952ce0.raw'
p122
aS'14.5-7f7e973fe844fa162f3025843cf4782e.raw'
p123
aS'14.1.2-ab5267f5c1bd6b8ec1b52aabccb083a7.raw'
p124
aS'14.1.2-c2ebd8e7c451ee66d3be2c0d4bc8fa3a.raw'
p125
aS'14.5-0f142c762c2ee6a43998a9b1eab39bf9.raw'
p126
aS'14.6-18e21d0add83d0452212a39cc4f30cc3.raw'
p127
aS'14.5-035d206e2b3b4810e7f12f8fffd903d4.raw'
p128
aS'14.5-0f02ed7e077d741b8e93c5f1084c055a.raw'
p129
aS'14.5-c0e600b27a7de6714e7d75c66967151f.raw'
p130
ag102
aS'14.6-5c8c0cf8755b027234eb50717723113e.raw'
p131
aS'14.1.2-545358c4de6b0f3b7a4ae540ccf16732.raw'
p132
aS'14.5-821e9c215d84e3db9f8bd1fc0fecb3dc.raw'
p133
ag13
aS'14.6-60edf812cf3e97b888713d6b695e5e1b.raw'
p134
aS'14.6-35d864d008ed3f859bc0152e399b7cf7.raw'
p135
ag73
ag19
aS'14.6-95ae2769884f19218ea4e2983c69d6d7.raw'
p136
aS'14.5-b5c50b8bd0b9db915fdfed483f87f3fc.raw'
p137
aS'14.5-561bd3c9ec7acc959e13d005efe759c1.raw'
p138
asS'18-4ac46cfee13e9bb90c17a46fe3cc725c.raw'
p139
(lp140
S'18-9d484817327e5204821c4e6f1443325f.raw,1.8253164557'
p141
asS'18-0a1a36f2686601e1686fcb8b216781b1.raw'
p142
(lp143
S'18-9d484817327e5204821c4e6f1443325f.raw,1.82278481013'
p144
asg137
(lp145
S'14.1.2-883516c63f6ca421f208f02e0a53dfda.raw,1.89032258065'
p146
asS'18-21ae24a37ec25b92cd724f298b8cf957.raw'
p147
(lp148
S'18-9d484817327e5204821c4e6f1443325f.raw,1.82278481013'
p149
asS'11-3a28452fc0b7572a345514aa66a5e628.raw'
p150
(lp151
S'11-1e5efe8964d4ff3255f415e51a8781e8.raw,1.6015037594'
p152
asS'18-03b01a356aa089eac02cb26579ed4636.raw'
p153
(lp154
S'18-9d484817327e5204821c4e6f1443325f.raw,1.82278481013'
p155
asg129
(lp156
S'14.1.2-883516c63f6ca421f208f02e0a53dfda.raw,1.87643424537'
p157
asS'18-536283fa71e99605b7e9342464c49577.raw'
p158
(lp159
S'18-9d484817327e5204821c4e6f1443325f.raw,1.82697201018'
p160
asS'5.2-4cd886b30d0e401c15e6e77f84ec82ff.raw'
p161
(lp162
S'5.3-718a9b08a38c979146cece8ff674ecd2.raw,2.0'
p163
asS'18-9d484817327e5204821c4e6f1443325f.raw'
p164
(lp165
S'18-a007919d3b6c2269a0ac5ec40c270c3b.raw,1.8253164557'
p166
asS'18-2778ea0fff795b00a7e53651bd0d0918.raw'
p167
(lp168
S'18-9d484817327e5204821c4e6f1443325f.raw,1.81081081081'
p169
asg115
(lp170
S'14.1.2-883516c63f6ca421f208f02e0a53dfda.raw,1.86414708887'
p171
asS'18-c9d74bcde672cf1d40b04d8ee0e1c42f.raw'
p172
(lp173
S'18-9d484817327e5204821c4e6f1443325f.raw,1.82278481013'
p174
asg31
(lp175
S'29.1-257cc578a26560b7ae9ec7888f54a1ad.raw,1.96083550914'
p176
asg54
(lp177
S'8-6bf6cb9da054e0d5b22b0f4c5f54f59a.raw,1.86617100372'
p178
asg132
(lp179
S'14.6-afb3a89e813e29b90a1ed791577a3100.raw,1.8505997819'
p180
asg119
(lp181
S'14.1.2-883516c63f6ca421f208f02e0a53dfda.raw,1.85542168675'
p182
asg117
(lp183
S'14.1.2-883516c63f6ca421f208f02e0a53dfda.raw,1.852248394'
p184
asg33
(lp185
S'29.1-257cc578a26560b7ae9ec7888f54a1ad.raw,1.96083550914'
p186
asS'18-e2b1b4e0bf4b90990a40f7a34ae948b1.raw'
p187
(lp188
S'18-9d484817327e5204821c4e6f1443325f.raw,1.82487309645'
p189
asS'18-44215390c24722a1f3312ff6c971ed5d.raw'
p190
(lp191
S'18-9d484817327e5204821c4e6f1443325f.raw,1.8253164557'
p192
asS'18-ac2043756687ae5c577a9c5536b1be4f.raw'
p193
(lp194
S'18-9d484817327e5204821c4e6f1443325f.raw,1.82278481013'
p195
asg37
(lp196
S'29.1-257cc578a26560b7ae9ec7888f54a1ad.raw,1.96083550914'
p197
asS'18-0970d69bb15e898b21f7ad1f0eed40d0.raw'
p198
(lp199
S'18-9d484817327e5204821c4e6f1443325f.raw,1.82487309645'
p200
asS'18-3bff94f44da43a07f352bda4d18221a3.raw'
p201
(lp202
S'18-9d484817327e5204821c4e6f1443325f.raw,1.82278481013'
p203
asS'18-b041a0875916f3a813c68a6e18016a99.raw'
p204
(lp205
S'18-9d484817327e5204821c4e6f1443325f.raw,1.82278481013'
p206
asg40
(lp207
S'29.1-257cc578a26560b7ae9ec7888f54a1ad.raw,1.96083550914'
p208
asg130
(lp209
S'14.1.2-883516c63f6ca421f208f02e0a53dfda.raw,1.87137681159'
p210
asS'18-8792bfc7820a187d423af9845722ec8c.raw'
p211
(lp212
S'18-9d484817327e5204821c4e6f1443325f.raw,1.82025316456'
p213
asS'18-95d81076c2728cef687f3bb7e2b06d50.raw'
p214
(lp215
S'18-9d484817327e5204821c4e6f1443325f.raw,1.82487309645'
p216
asS'18-041f233ce21cec16c886fd890d9e192b.raw'
p217
(lp218
S'18-9d484817327e5204821c4e6f1443325f.raw,1.82278481013'
p219
asS'18-47cc34218b9eea15774c07d3b5c3503b.raw'
p220
(lp221
S'18-9d484817327e5204821c4e6f1443325f.raw,1.82233502538'
p222
asg125
(lp223
S'14.6-afb3a89e813e29b90a1ed791577a3100.raw,1.85169029444'
p224
asS'18-b77a92b99fc1b9901b025a88f2f53223.raw'
p225
(lp226
S'18-9d484817327e5204821c4e6f1443325f.raw,1.8253164557'
p227
asS'18-b94fa95baf38c5ef2fd86c3cb0a4df80.raw'
p228
(lp229
S'18-9d484817327e5204821c4e6f1443325f.raw,1.82442748092'
p230
asS'5.2-6c46afb635caee9a2a0507755f9d3bf5.raw'
p231
(lp232
S'5.3-718a9b08a38c979146cece8ff674ecd2.raw,2.0'
p233
asS'18-52869b2b96962f9595d3be817f197f56.raw'
p234
(lp235
S'18-9d484817327e5204821c4e6f1443325f.raw,1.81772151899'
p236
asg135
(lp237
S'14.1.2-883516c63f6ca421f208f02e0a53dfda.raw,1.85745614035'
p238
asg127
(lp239
S'14.1.2-883516c63f6ca421f208f02e0a53dfda.raw,1.85360602799'
p240
asS'18-5042199e2f891cfe8098cbcde37d8ae4.raw'
p241
(lp242
S'18-9d484817327e5204821c4e6f1443325f.raw,1.8253164557'
p243
asS'18-f7258187cb15af382820a8e1934659b7.raw'
p244
(lp245
S'18-9d484817327e5204821c4e6f1443325f.raw,1.8253164557'
p246
asS'18-0a5c969937b9cd958b52af8983a249ec.raw'
p247
(lp248
S'18-9d484817327e5204821c4e6f1443325f.raw,1.82487309645'
p249
asS'11-8d3ab9604c4b711df7a62725e00d200f.raw'
p250
(lp251
S'11-1e5efe8964d4ff3255f415e51a8781e8.raw,1.65432098765'
p252
asg34
(lp253
S'29.1-257cc578a26560b7ae9ec7888f54a1ad.raw,1.96083550914'
p254
asg126
(lp255
S'14.1.2-883516c63f6ca421f208f02e0a53dfda.raw,1.88826815642'
p256
asg121
(lp257
S'14.6-afb3a89e813e29b90a1ed791577a3100.raw,1.84841875682'
p258
asS'5.3-718a9b08a38c979146cece8ff674ecd2.raw'
p259
(lp260
S'5.2-5a63cd881fbb0e8e949435af162f66a1.raw,1.98828125'
p261
asg124
(lp262
S'14.6-afb3a89e813e29b90a1ed791577a3100.raw,1.85169029444'
p263
asg128
(lp264
S'14.1.2-883516c63f6ca421f208f02e0a53dfda.raw,1.87174887892'
p265
asS'18-d253f8cfb2aaa5ebc66c5acc8a7ab44d.raw'
p266
(lp267
S'18-9d484817327e5204821c4e6f1443325f.raw,1.82278481013'
p268
asS'18-1f0137d6a8c3cf2f146c74730cf6403c.raw'
p269
(lp270
S'18-9d484817327e5204821c4e6f1443325f.raw,1.8253164557'
p271
asS'18-c71bbef5badcc5ce2a5cc81992caf45e.raw'
p272
(lp273
S'18-9d484817327e5204821c4e6f1443325f.raw,1.82278481013'
p274
asS'18-b3a5751f62c1bd25d9f09425534c711e.raw'
p275
(lp276
S'18-9d484817327e5204821c4e6f1443325f.raw,1.8253164557'
p277
asS'11-6c1bc1614d57c66fe536d3c31a05cafd.raw'
p278
(lp279
S'11-1e5efe8964d4ff3255f415e51a8781e8.raw,1.60571428571'
p280
asS'18-c3f19c50d945f9c54c93656e971d5c56.raw'
p281
(lp282
S'18-9d484817327e5204821c4e6f1443325f.raw,1.82278481013'
p283
asg134
(lp284
S'14.1.2-883516c63f6ca421f208f02e0a53dfda.raw,1.85483870968'
p285
asS'18-28ef904d3cec7b4b374eb978b9b7acc3.raw'
p286
(lp287
S'18-9d484817327e5204821c4e6f1443325f.raw,1.82487309645'
p288
asS'18-62680d51f0eed9d5b30da59624433951.raw'
p289
(lp290
S'18-9d484817327e5204821c4e6f1443325f.raw,1.82278481013'
p291
asS'18-bbdc4e5c0717432a13573f2491c1e3a8.raw'
p292
(lp293
S'18-9d484817327e5204821c4e6f1443325f.raw,1.82278481013'
p294
asS'18-0a2e7517f212cfdb07e53fb40ca88a3b.raw'
p295
(lp296
S'18-9d484817327e5204821c4e6f1443325f.raw,1.82233502538'
p297
asg131
(lp298
S'14.1.2-883516c63f6ca421f208f02e0a53dfda.raw,1.85284640172'
p299
asS'2-07102bc47086fd712224bb9f153ebfcc.raw'
p300
(lp301
S'2-0914a08287845112141cf3563170b8c0.raw,1.77142857143'
p302
asS'5.2-4e062f22fb165a7dafbd4f3aaea7a3e9.raw'
p303
(lp304
S'5.3-718a9b08a38c979146cece8ff674ecd2.raw,1.98828125'
p305
asS'18-c81009dff546a60518b8ec0e2ae585ef.raw'
p306
(lp307
S'18-9d484817327e5204821c4e6f1443325f.raw,1.82278481013'
p308
asS'18-2e4a3fd553eb340bac869bf2e128bdde.raw'
p309
(lp310
S'18-9d484817327e5204821c4e6f1443325f.raw,1.82025316456'
p311
asS'18-88577f56a2e4eda6fbc80f4b10cc93e0.raw'
p312
(lp313
S'18-9d484817327e5204821c4e6f1443325f.raw,1.8253164557'
p314
asS'18-0a6c12bfbfbc5760a44576e4b69a8edd.raw'
p315
(lp316
S'18-9d484817327e5204821c4e6f1443325f.raw,1.81518987342'
p317
asS'2'
p318
(lp319
S'2-0914a08287845112141cf3563170b8c0.raw'
p320
aS'2-8b95ea1626adbeb7a0320dbbcc1a5ca9.raw'
p321
aS'2-9fc3f20b92dc5b2a2d39e4f3c39465eb.raw'
p322
ag300
asS'29-22fd724b05b00687fa19a10b7357a8ac.raw'
p323
(lp324
S'29.1-257cc578a26560b7ae9ec7888f54a1ad.raw,1.96083550914'
p325
asS'5.2-2ad3ffa74c561a87cdf03e6edd4f0e66.raw'
p326
(lp327
S'5.3-718a9b08a38c979146cece8ff674ecd2.raw,1.99609375'
p328
asS'11-3b8daf3643167e3d7395ad71074b2e7e.raw'
p329
(lp330
S'11-1e5efe8964d4ff3255f415e51a8781e8.raw,1.6'
p331
asS'18-b9dc80adcd578aaf5aa4e56d0bc62e81.raw'
p332
(lp333
S'18-9d484817327e5204821c4e6f1443325f.raw,1.82278481013'
p334
asg122
(lp335
S'14.6-afb3a89e813e29b90a1ed791577a3100.raw,1.8320610687'
p336
asS'18-0a2d6f20fb149e9943e3da6342e3aa00.raw'
p337
(lp338
S'18-9d484817327e5204821c4e6f1443325f.raw,1.82697201018'
p339
asg38
(lp340
S'29.1-257cc578a26560b7ae9ec7888f54a1ad.raw,1.96083550914'
p341
asg30
(lp342
S'29.1-257cc578a26560b7ae9ec7888f54a1ad.raw,1.96083550914'
p343
asS'18-e32a55b2ac18903b592f5993e6784f01.raw'
p344
(lp345
S'18-9d484817327e5204821c4e6f1443325f.raw,1.82278481013'
p346
asS'5.2-3eebecf1fb743037423b711d06bab4e6.raw'
p347
(lp348
S'5.3-718a9b08a38c979146cece8ff674ecd2.raw,1.9921875'
p349
asg50
(lp350
S'8-6bf6cb9da054e0d5b22b0f4c5f54f59a.raw,1.843866171'
p351
asS'11-55e418aed640087cd142b9f2a6d9e448.raw'
p352
(lp353
S'11-1e5efe8964d4ff3255f415e51a8781e8.raw,1.6'
p354
asg120
(lp355
S'14.1.2-883516c63f6ca421f208f02e0a53dfda.raw,1.86776859504'
p356
asS'5.2-6c0d6173e751df0bfa8e7d872b7a2475.raw'
p357
(lp358
S'5.3-718a9b08a38c979146cece8ff674ecd2.raw,1.98828125'
p359
asS'18-4f78788fdab1c0bada019581ec0809a4.raw'
p360
(lp361
S'18-9d484817327e5204821c4e6f1443325f.raw,1.82487309645'
p362
asS'18-2aa9591f791c94e68eec402e2cd4001c.raw'
p363
(lp364
S'18-9d484817327e5204821c4e6f1443325f.raw,1.83764705882'
p365
asg114
(lp366
S'14.1.2-883516c63f6ca421f208f02e0a53dfda.raw,1.8560523446'
p367
asS'18-d616249939c90baacd7e9848f6b075b3.raw'
p368
(lp369
S'18-9d484817327e5204821c4e6f1443325f.raw,1.82487309645'
p370
asS'18-1d35d9b1e0e63ff42fc2def8a250fd29.raw'
p371
(lp372
S'18-9d484817327e5204821c4e6f1443325f.raw,1.82233502538'
p373
asS'11'
p374
(lp375
g329
ag250
ag63
ag150
ag25
aS'11-86a20bfefe2b942b9c105963480e81a7.raw'
p376
ag352
asS'18-57df85db3da0ff1579711c2951fdcf8e.raw'
p377
(lp378
S'18-9d484817327e5204821c4e6f1443325f.raw,1.82278481013'
p379
asS'2-4c6784225bb509cd6d33e2ed852d22d1.raw'
p380
(lp381
S'2-0914a08287845112141cf3563170b8c0.raw,1.77142857143'
p382
asS'18-12c610d9613de9ad0d00c57e3e8a60a9.raw'
p383
(lp384
S'18-9d484817327e5204821c4e6f1443325f.raw,1.8253164557'
p385
asg118
(lp386
S'14.6-afb3a89e813e29b90a1ed791577a3100.raw,1.85169029444'
p387
asS'18'
p388
(lp389
g272
aS'18-0d77888a42f45fa665ae01d586131c4e.raw'
p390
aS'18-b1b4dd0426ce83bd540701f2d5a6085f.raw'
p391
aS'18-22cb7f661306c1582aac7b18d03b10bd.raw'
p392
ag90
aS'18-7a834510fdd8483c812d160b46efb968.raw'
p393
ag204
aS'18-431ca0464b4870d9d3ee6cde69d563fd.raw'
p394
ag234
aS'18-d7535adefffd3895cd099a6a63a3ba76.raw'
p395
aS'18-25ef57a63dd8af2be2a23ee1860ff01b.raw'
p396
ag211
ag360
ag76
ag281
aS'18-cda5d2462c981d13dd1084550441c206.raw'
p397
aS'18-9eff7063aab80022ebc0057189374766.raw'
p398
ag10
aS'18-432013eae7d7ed9672a37cd48be125c0.raw'
p399
ag332
ag108
aS'18-ea29bc79d019326cbe80da5e821c2d97.raw'
p400
ag309
aS'18-7f3c1808e399d4c8a364a7a64534ccbd.raw'
p401
aS'18-0a3da9cf8edbba354126ddea59fbdec9.raw'
p402
ag289
ag68
ag81
ag44
ag266
aS'18-fa1e34c4f1dee7d8e22e28521199c9a7.raw'
p403
aS'18-a4dc863524161559c929e8fc983f01ee.raw'
p404
ag269
ag7
ag139
ag363
aS'18-01f111a0dda50c0bd24efe1a0b8538dd.raw'
p405
aS'18-4d4389f51f9075ebebb71222a08f7a91.raw'
p406
ag99
aS'18-5c377b9fa6b4c4b9d9c0fb184aa6ecc8.raw'
p407
ag275
aS'18-0f85140b6693a5be55a3dbccd169ab60.raw'
p408
ag371
ag220
ag172
aS'18-2009a521d8d7453e8943396368ac9921.raw'
p409
ag247
ag286
ag153
ag337
ag241
ag16
aS'18-c37ddfb8d9f8a9500e6169e66a1ca363.raw'
p410
ag383
ag198
ag344
ag147
aS'18-5dea7a120851d481f84f5651f5ca9c44.raw'
p411
aS'18-c7f6675859468a6de41d39c8722dad4b.raw'
p412
aS'18-d73aa09a7ac1baf852f79a5ef73ab38e.raw'
p413
ag93
aS'18-340312a531c18855acc977bae124ec80.raw'
p414
ag142
ag312
ag201
ag87
aS'18-00f18888317e19dba8f68e704cb08ae7.raw'
p415
aS'18-0a3b842dd9b5f65edd4b2e7dda2fb8ff.raw'
p416
ag217
aS'18-0a6b21081220a224bc00f3f7bb8a37e5.raw'
p417
ag292
aS'18-3cf87e06b8210342de94016336d9ea16.raw'
p418
ag315
ag368
ag41
ag214
ag244
aS'18-912b48ccaa4a1b3a58417d32e6af22ac.raw'
p419
ag164
ag60
ag105
aS'18-14ec5a8be4dd7b4a7c1cb9cc650e69e7.raw'
p420
ag158
ag167
aS'18-0a4f49f012d9e6d3d351429d21067f80.raw'
p421
ag1
ag228
aS'18-381cc747998d7051190bc664320adb02.raw'
p422
ag306
ag295
ag187
ag190
aS'18-b2ebf70fe337f60aca09b08324f1298f.raw'
p423
ag193
aS'18-55a908af392f7b0fa3610429bd41d261.raw'
p424
ag225
ag377
ag96
aS'18-64cb3200922af17f409aa0c5cb06d821.raw'
p425
asg53
(lp426
S'8-6bf6cb9da054e0d5b22b0f4c5f54f59a.raw,1.84758364312'
p427
asg415
(lp428
S'18-9d484817327e5204821c4e6f1443325f.raw,1.82278481013'
p429
asS'8-6ebb313ee65a5915aadd971df455ce02.raw'
p430
(lp431
S'8-6bf6cb9da054e0d5b22b0f4c5f54f59a.raw,1.86617100372'
p432
asg32
(lp433
S'29.1-257cc578a26560b7ae9ec7888f54a1ad.raw,1.96083550914'
p434
asS'5.2-1b1f137c7c020fb02936967ac3f90af4.raw'
p435
(lp436
S'5.3-718a9b08a38c979146cece8ff674ecd2.raw,1.9921875'
p437
asg423
(lp438
S'18-9d484817327e5204821c4e6f1443325f.raw,1.82278481013'
p439
asg406
(lp440
S'18-9d484817327e5204821c4e6f1443325f.raw,1.82278481013'
p441
asg420
(lp442
S'18-9d484817327e5204821c4e6f1443325f.raw,1.82278481013'
p443
asg407
(lp444
S'18-9d484817327e5204821c4e6f1443325f.raw,1.82278481013'
p445
asg398
(lp446
S'18-9d484817327e5204821c4e6f1443325f.raw,1.82487309645'
p447
asg396
(lp448
S'18-9d484817327e5204821c4e6f1443325f.raw,1.81772151899'
p449
asg395
(lp450
S'18-9d484817327e5204821c4e6f1443325f.raw,1.82233502538'
p451
asg391
(lp452
S'18-9d484817327e5204821c4e6f1443325f.raw,1.82323232323'
p453
asg404
(lp454
S'18-9d484817327e5204821c4e6f1443325f.raw,1.81233243968'
p455
asg56
(lp456
S'8-6bf6cb9da054e0d5b22b0f4c5f54f59a.raw,1.85873605948'
p457
asg35
(lp458
S'29.1-257cc578a26560b7ae9ec7888f54a1ad.raw,1.96083550914'
p459
asg39
(lp460
S'29-22fd724b05b00687fa19a10b7357a8ac.raw,1.96083550914'
p461
asg394
(lp462
S'18-9d484817327e5204821c4e6f1443325f.raw,1.81725888325'
p463
asS'5.2-1ebf3a323982d3b61617f866ed3b5551.raw'
p464
(lp465
S'5.3-718a9b08a38c979146cece8ff674ecd2.raw,1.984375'
p466
asg397
(lp467
S'18-9d484817327e5204821c4e6f1443325f.raw,1.82233502538'
p468
asg116
(lp469
S'14.6-afb3a89e813e29b90a1ed791577a3100.raw,1.85169029444'
p470
asg421
(lp471
S'18-9d484817327e5204821c4e6f1443325f.raw,1.8253164557'
p472
asS'5.2-6e7354142c10c6937f8dec04728b2454.raw'
p473
(lp474
S'5.3-718a9b08a38c979146cece8ff674ecd2.raw,2.0078125'
p475
asg59
(lp476
S'8-6bf6cb9da054e0d5b22b0f4c5f54f59a.raw,1.843866171'
p477
asg414
(lp478
S'18-9d484817327e5204821c4e6f1443325f.raw,1.82233502538'
p479
asg408
(lp480
S'18-9d484817327e5204821c4e6f1443325f.raw,1.81933842239'
p481
asg393
(lp482
S'18-9d484817327e5204821c4e6f1443325f.raw,1.81424936387'
p483
asg133
(lp484
S'14.1.2-883516c63f6ca421f208f02e0a53dfda.raw,1.88940520446'
p485
asS'5'
p486
(lp487
g161
ag347
ag259
ag326
ag231
ag464
ag357
ag473
ag303
ag435
asg424
(lp488
S'18-9d484817327e5204821c4e6f1443325f.raw,1.8253164557'
p489
asg425
(lp490
S'18-9d484817327e5204821c4e6f1443325f.raw,1.82278481013'
p491
asg413
(lp492
S'18-9d484817327e5204821c4e6f1443325f.raw,1.81772151899'
p493
asg55
(lp494
S'8-6bf6cb9da054e0d5b22b0f4c5f54f59a.raw,1.84758364312'
p495
asg409
(lp496
S'18-9d484817327e5204821c4e6f1443325f.raw,1.8253164557'
p497
asg411
(lp498
S'18-9d484817327e5204821c4e6f1443325f.raw,1.82487309645'
p499
asg412
(lp500
S'18-9d484817327e5204821c4e6f1443325f.raw,1.8137755102'
p501
asg123
(lp502
S'14.1.2-883516c63f6ca421f208f02e0a53dfda.raw,1.86886708296'
p503
asg138
(lp504
S'14.1.2-883516c63f6ca421f208f02e0a53dfda.raw,1.86702605571'
p505
asg392
(lp506
S'18-9d484817327e5204821c4e6f1443325f.raw,1.82278481013'
p507
asS'14.1.2-883516c63f6ca421f208f02e0a53dfda.raw'
p508
(lp509
S'14.6-afb3a89e813e29b90a1ed791577a3100.raw,1.84950926936'
p510
asg402
(lp511
S'18-9d484817327e5204821c4e6f1443325f.raw,1.82278481013'
p512
asg320
(lp513
S'2-1ab33f0980ffdaf71a80fa1e9b34a8da.raw,1.75714285714'
p514
asg401
(lp515
S'18-9d484817327e5204821c4e6f1443325f.raw,1.82278481013'
p516
asg403
(lp517
S'18-9d484817327e5204821c4e6f1443325f.raw,1.82323232323'
p518
asg376
(lp519
S'11-1e5efe8964d4ff3255f415e51a8781e8.raw,1.60483870968'
p520
asg405
(lp521
S'18-9d484817327e5204821c4e6f1443325f.raw,1.81679389313'
p522
asg400
(lp523
S'18-9d484817327e5204821c4e6f1443325f.raw,1.82278481013'
p524
asg321
(lp525
S'2-0914a08287845112141cf3563170b8c0.raw,1.77142857143'
p526
asg390
(lp527
S'18-9d484817327e5204821c4e6f1443325f.raw,1.82278481013'
p528
asg419
(lp529
S'18-9d484817327e5204821c4e6f1443325f.raw,1.82278481013'
p530
asg58
(lp531
S'8-6bf6cb9da054e0d5b22b0f4c5f54f59a.raw,1.86617100372'
p532
asg399
(lp533
S'18-9d484817327e5204821c4e6f1443325f.raw,1.82323232323'
p534
asg417
(lp535
S'18-9d484817327e5204821c4e6f1443325f.raw,1.81518987342'
p536
asg418
(lp537
S'18-9d484817327e5204821c4e6f1443325f.raw,1.82278481013'
p538
asg57
(lp539
S'8-6bf6cb9da054e0d5b22b0f4c5f54f59a.raw,1.85130111524'
p540
asg136
(lp541
S'14.1.2-883516c63f6ca421f208f02e0a53dfda.raw,1.85284640172'
p542
asg416
(lp543
S'18-9d484817327e5204821c4e6f1443325f.raw,1.82864450128'
p544
asg422
(lp545
S'18-9d484817327e5204821c4e6f1443325f.raw,1.82278481013'
p546
asg51
(lp547
S'8-6ebb313ee65a5915aadd971df455ce02.raw,1.84758364312'
p548
asg410
(lp549
S'18-9d484817327e5204821c4e6f1443325f.raw,1.82278481013'
p550
asg322
(lp551
S'2-0914a08287845112141cf3563170b8c0.raw,1.77142857143'
p552
as.