(dp0
S'18-fe5e8c1bd8291d61eaeb791821a20885.raw'
p1
(lp2
S'18-9d484817327e5204821c4e6f1443325f.raw,0.817258883249'
p3
asS'5.2-5a63cd881fbb0e8e949435af162f66a1.raw'
p4
(lp5
S'5.3-718a9b08a38c979146cece8ff674ecd2.raw,0.99609375'
p6
asS'18-4e3bcaa89a686ce1506cad15213ca37f.raw'
p7
(lp8
S'18-9d484817327e5204821c4e6f1443325f.raw,0.824873096447'
p9
asS'18-ad82c7ae9ac6e8fe687bd1564874c72c.raw'
p10
(lp11
S'18-9d484817327e5204821c4e6f1443325f.raw,0.815189873418'
p12
asS'18-ec9d093dcc76aa1b0e7fc85fe1d4908a.raw'
p13
(lp14
S'18-9d484817327e5204821c4e6f1443325f.raw,0.812332439678'
p15
asS'18-a007919d3b6c2269a0ac5ec40c270c3b.raw'
p16
(lp17
S'18-9d484817327e5204821c4e6f1443325f.raw,0.822784810127'
p18
asS'27'
p19
(lp20
S'27.1-c59ebdb083ea1dafecca6210944d6038.raw'
p21
asS'22'
p22
(lp23
S'22.3.2-2d55436efdcf261469b7f74447d6c49a.raw'
p24
aS'22.3.2-0e9d98ae4246bf29697bb8618ad56770.raw'
p25
asS'12-23fa60e4782edfada8ba8bb071a54a07.raw'
p26
(lp27
S'12-b9fe2c1354670d81c61a3d222cfa587f.raw,0.705479452055'
p28
asS'29'
p29
(lp30
sS'18-e8946c832dce383383ef8f8556a0830e.raw'
p31
(lp32
S'18-9d484817327e5204821c4e6f1443325f.raw,0.823232323232'
p33
asS'18-7f361fd51036a64ba60fb9d71d270966.raw'
p34
(lp35
S'18-9d484817327e5204821c4e6f1443325f.raw,0.822784810127'
p36
asS'8'
p37
(lp38
S'8-4ec0c06a0e1c517206431c8b8e173fd5.raw'
p39
asS'29-55bd961af45636738c7c5e1891bc53a9.raw'
p40
(lp41
S'29.1-257cc578a26560b7ae9ec7888f54a1ad.raw,0.960835509138'
p42
asS'18-97866e8a5c0b4b40263850ec909ab410.raw'
p43
(lp44
S'18-9d484817327e5204821c4e6f1443325f.raw,0.824873096447'
p45
asS'8-6c5b9065372dddec27eb4fb49fe160d8.raw'
p46
(lp47
S'8-6bf6cb9da054e0d5b22b0f4c5f54f59a.raw,0.862453531599'
p48
asS'18-07fe449397be518966075d35851d910e.raw'
p49
(lp50
S'18-9d484817327e5204821c4e6f1443325f.raw,0.822784810127'
p51
asS'8-2a83e7f5b96d7e36e1512fef88bc0de6.raw'
p52
(lp53
S'8-6bf6cb9da054e0d5b22b0f4c5f54f59a.raw,0.843866171004'
p54
asS'18-e8e976b95b6372bea0cd186bbe4e7a08.raw'
p55
(lp56
S'18-9d484817327e5204821c4e6f1443325f.raw,0.822784810127'
p57
asg24
(lp58
S'22.3.2-7ea4921beff80e610ebf67cff4add312.raw,0.243243243243'
p59
asS'18-1e736444770b6d0133bd4c6172e7452f.raw'
p60
(lp61
S'18-9d484817327e5204821c4e6f1443325f.raw,0.823232323232'
p62
asS'18-00c8670e9b3dcb9cdb85537c244dda5e.raw'
p63
(lp64
S'18-9d484817327e5204821c4e6f1443325f.raw,0.822335025381'
p65
asS'18-d54518652204bf0176d138f7e13d2620.raw'
p66
(lp67
S'18-9d484817327e5204821c4e6f1443325f.raw,0.823232323232'
p68
asS'18-09bacec6a7af20f8eac8d241a6b782cf.raw'
p69
(lp70
S'18-9d484817327e5204821c4e6f1443325f.raw,0.824873096447'
p71
asS'18-1cac979a552ce0ede9994ed05c42210d.raw'
p72
(lp73
S'18-9d484817327e5204821c4e6f1443325f.raw,0.822784810127'
p74
asS'18-738b03b782750f86b5ab5397a3bf5191.raw'
p75
(lp76
S'18-9d484817327e5204821c4e6f1443325f.raw,0.824427480916'
p77
asS'18-4ac46cfee13e9bb90c17a46fe3cc725c.raw'
p78
(lp79
S'18-9d484817327e5204821c4e6f1443325f.raw,0.825316455696'
p80
asS'18-0a1a36f2686601e1686fcb8b216781b1.raw'
p81
(lp82
S'18-9d484817327e5204821c4e6f1443325f.raw,0.822784810127'
p83
asS'18-21ae24a37ec25b92cd724f298b8cf957.raw'
p84
(lp85
S'18-9d484817327e5204821c4e6f1443325f.raw,0.822784810127'
p86
asS'18-03b01a356aa089eac02cb26579ed4636.raw'
p87
(lp88
S'18-9d484817327e5204821c4e6f1443325f.raw,0.822784810127'
p89
asS'18-536283fa71e99605b7e9342464c49577.raw'
p90
(lp91
S'18-9d484817327e5204821c4e6f1443325f.raw,0.826972010178'
p92
asS'18'
p93
(lp94
sS'18-2778ea0fff795b00a7e53651bd0d0918.raw'
p95
(lp96
S'18-9d484817327e5204821c4e6f1443325f.raw,0.810810810811'
p97
asS'18-c9d74bcde672cf1d40b04d8ee0e1c42f.raw'
p98
(lp99
S'18-9d484817327e5204821c4e6f1443325f.raw,0.822784810127'
p100
asS'29-7e1342bba879767880aaf65d9e6859c9.raw'
p101
(lp102
S'29.1-257cc578a26560b7ae9ec7888f54a1ad.raw,0.960835509138'
p103
asg39
(lp104
S'8-6bf6cb9da054e0d5b22b0f4c5f54f59a.raw,0.866171003717'
p105
asS'18-12c610d9613de9ad0d00c57e3e8a60a9.raw'
p106
(lp107
S'18-9d484817327e5204821c4e6f1443325f.raw,0.825316455696'
p108
asS'29-20cfefbca05c2faa7fe643cd0fe6487c.raw'
p109
(lp110
S'29.1-257cc578a26560b7ae9ec7888f54a1ad.raw,0.960835509138'
p111
asS'18-e2b1b4e0bf4b90990a40f7a34ae948b1.raw'
p112
(lp113
S'18-9d484817327e5204821c4e6f1443325f.raw,0.824873096447'
p114
asS'18-44215390c24722a1f3312ff6c971ed5d.raw'
p115
(lp116
S'18-9d484817327e5204821c4e6f1443325f.raw,0.825316455696'
p117
asS'18-ac2043756687ae5c577a9c5536b1be4f.raw'
p118
(lp119
S'18-9d484817327e5204821c4e6f1443325f.raw,0.822784810127'
p120
asS'29-31dc126226fbefdc012bee8dce22539d.raw'
p121
(lp122
S'29.1-257cc578a26560b7ae9ec7888f54a1ad.raw,0.960835509138'
p123
asS'18-0970d69bb15e898b21f7ad1f0eed40d0.raw'
p124
(lp125
S'18-9d484817327e5204821c4e6f1443325f.raw,0.824873096447'
p126
asS'18-3bff94f44da43a07f352bda4d18221a3.raw'
p127
(lp128
S'18-9d484817327e5204821c4e6f1443325f.raw,0.822784810127'
p129
asS'18-b041a0875916f3a813c68a6e18016a99.raw'
p130
(lp131
S'18-9d484817327e5204821c4e6f1443325f.raw,0.822784810127'
p132
asS'29-7d153ea9f08017d5b539621d88792597.raw'
p133
(lp134
S'29.1-257cc578a26560b7ae9ec7888f54a1ad.raw,0.960835509138'
p135
asS'18-8792bfc7820a187d423af9845722ec8c.raw'
p136
(lp137
S'18-9d484817327e5204821c4e6f1443325f.raw,0.820253164557'
p138
asS'18-95d81076c2728cef687f3bb7e2b06d50.raw'
p139
(lp140
S'18-9d484817327e5204821c4e6f1443325f.raw,0.824873096447'
p141
asS'18-f762208ebf755a34e3b2c66c7d66f4e0.raw'
p142
(lp143
S'18-9d484817327e5204821c4e6f1443325f.raw,0.824873096447'
p144
asS'18-57df85db3da0ff1579711c2951fdcf8e.raw'
p145
(lp146
S'18-9d484817327e5204821c4e6f1443325f.raw,0.822784810127'
p147
asS'18-b77a92b99fc1b9901b025a88f2f53223.raw'
p148
(lp149
S'18-9d484817327e5204821c4e6f1443325f.raw,0.825316455696'
p150
asS'18-b94fa95baf38c5ef2fd86c3cb0a4df80.raw'
p151
(lp152
S'18-9d484817327e5204821c4e6f1443325f.raw,0.824427480916'
p153
asS'5.2-6c46afb635caee9a2a0507755f9d3bf5.raw'
p154
(lp155
S'5.3-718a9b08a38c979146cece8ff674ecd2.raw,1.0'
p156
asS'18-52869b2b96962f9595d3be817f197f56.raw'
p157
(lp158
S'18-9d484817327e5204821c4e6f1443325f.raw,0.817721518987'
p159
asS'18-6179da1735dbe728081cc9777e34a943.raw'
p160
(lp161
S'18-9d484817327e5204821c4e6f1443325f.raw,0.822784810127'
p162
asS'18-5042199e2f891cfe8098cbcde37d8ae4.raw'
p163
(lp164
S'18-9d484817327e5204821c4e6f1443325f.raw,0.825316455696'
p165
asS'18-f7258187cb15af382820a8e1934659b7.raw'
p166
(lp167
S'18-9d484817327e5204821c4e6f1443325f.raw,0.825316455696'
p168
asS'29-15af40c347a16f4206b564d4d5e58be2.raw'
p169
(lp170
S'29.1-257cc578a26560b7ae9ec7888f54a1ad.raw,0.960835509138'
p171
asS'5.3-718a9b08a38c979146cece8ff674ecd2.raw'
p172
(lp173
S'5.2-1b1f137c7c020fb02936967ac3f90af4.raw,0.984375'
p174
asS'18-d253f8cfb2aaa5ebc66c5acc8a7ab44d.raw'
p175
(lp176
S'18-9d484817327e5204821c4e6f1443325f.raw,0.822784810127'
p177
asS'18-1f0137d6a8c3cf2f146c74730cf6403c.raw'
p178
(lp179
S'18-9d484817327e5204821c4e6f1443325f.raw,0.825316455696'
p180
asS'18-c71bbef5badcc5ce2a5cc81992caf45e.raw'
p181
(lp182
S'18-9d484817327e5204821c4e6f1443325f.raw,0.822784810127'
p183
asS'18-b3a5751f62c1bd25d9f09425534c711e.raw'
p184
(lp185
S'18-9d484817327e5204821c4e6f1443325f.raw,0.825316455696'
p186
asS'18-c3f19c50d945f9c54c93656e971d5c56.raw'
p187
(lp188
S'18-9d484817327e5204821c4e6f1443325f.raw,0.822784810127'
p189
asg25
(lp190
S'22.3.2-7ea4921beff80e610ebf67cff4add312.raw,0.243243243243'
p191
asS'18-62680d51f0eed9d5b30da59624433951.raw'
p192
(lp193
S'18-9d484817327e5204821c4e6f1443325f.raw,0.822784810127'
p194
asS'18-bbdc4e5c0717432a13573f2491c1e3a8.raw'
p195
(lp196
S'18-9d484817327e5204821c4e6f1443325f.raw,0.822784810127'
p197
asS'18-0a2e7517f212cfdb07e53fb40ca88a3b.raw'
p198
(lp199
S'18-9d484817327e5204821c4e6f1443325f.raw,0.822335025381'
p200
asS'18-9d484817327e5204821c4e6f1443325f.raw'
p201
(lp202
S'18-d7535adefffd3895cd099a6a63a3ba76.raw,0.824873096447'
p203
asS'18-c81009dff546a60518b8ec0e2ae585ef.raw'
p204
(lp205
S'18-9d484817327e5204821c4e6f1443325f.raw,0.822784810127'
p206
asS'18-2e4a3fd553eb340bac869bf2e128bdde.raw'
p207
(lp208
S'18-9d484817327e5204821c4e6f1443325f.raw,0.820253164557'
p209
asS'18-88577f56a2e4eda6fbc80f4b10cc93e0.raw'
p210
(lp211
S'18-9d484817327e5204821c4e6f1443325f.raw,0.825316455696'
p212
asS'18-0a6c12bfbfbc5760a44576e4b69a8edd.raw'
p213
(lp214
S'18-9d484817327e5204821c4e6f1443325f.raw,0.815189873418'
p215
asS'2'
p216
(lp217
S'2-0914a08287845112141cf3563170b8c0.raw'
p218
asS'29-22fd724b05b00687fa19a10b7357a8ac.raw'
p219
(lp220
S'29-7e1342bba879767880aaf65d9e6859c9.raw,0.37037037037'
p221
asS'5.2-2ad3ffa74c561a87cdf03e6edd4f0e66.raw'
p222
(lp223
S'5.3-718a9b08a38c979146cece8ff674ecd2.raw,0.99609375'
p224
asS'8-4a549a6dbcf2ee4c2bc220b644278cf5.raw'
p225
(lp226
S'8-6bf6cb9da054e0d5b22b0f4c5f54f59a.raw,0.843866171004'
p227
asS'18-b9dc80adcd578aaf5aa4e56d0bc62e81.raw'
p228
(lp229
S'18-9d484817327e5204821c4e6f1443325f.raw,0.822784810127'
p230
asS'5.2-4e062f22fb165a7dafbd4f3aaea7a3e9.raw'
p231
(lp232
S'5.3-718a9b08a38c979146cece8ff674ecd2.raw,0.98828125'
p233
asS'18-0a2d6f20fb149e9943e3da6342e3aa00.raw'
p234
(lp235
S'18-9d484817327e5204821c4e6f1443325f.raw,0.826972010178'
p236
asS'29-8da56c9d1ed977fc2aec41e085241b4c.raw'
p237
(lp238
S'29.1-257cc578a26560b7ae9ec7888f54a1ad.raw,0.960835509138'
p239
asS'29-8d216fb284c55725d577c8506418dff4.raw'
p240
(lp241
S'29.1-257cc578a26560b7ae9ec7888f54a1ad.raw,0.960835509138'
p242
asS'18-e32a55b2ac18903b592f5993e6784f01.raw'
p243
(lp244
S'18-9d484817327e5204821c4e6f1443325f.raw,0.822784810127'
p245
asS'5.2-3eebecf1fb743037423b711d06bab4e6.raw'
p246
(lp247
S'5.3-718a9b08a38c979146cece8ff674ecd2.raw,0.9921875'
p248
asS'8-0b7d99c126630c338d6dc51fc387d0b8.raw'
p249
(lp250
S'8-6bf6cb9da054e0d5b22b0f4c5f54f59a.raw,0.843866171004'
p251
asS'18-47cc34218b9eea15774c07d3b5c3503b.raw'
p252
(lp253
S'18-9d484817327e5204821c4e6f1443325f.raw,0.822335025381'
p254
asS'5.2-6c0d6173e751df0bfa8e7d872b7a2475.raw'
p255
(lp256
S'5.3-718a9b08a38c979146cece8ff674ecd2.raw,0.98828125'
p257
asS'18-4f78788fdab1c0bada019581ec0809a4.raw'
p258
(lp259
S'18-9d484817327e5204821c4e6f1443325f.raw,0.824873096447'
p260
asS'18-2aa9591f791c94e68eec402e2cd4001c.raw'
p261
(lp262
S'18-9d484817327e5204821c4e6f1443325f.raw,0.837647058824'
p263
asS'18-d616249939c90baacd7e9848f6b075b3.raw'
p264
(lp265
S'18-9d484817327e5204821c4e6f1443325f.raw,0.824873096447'
p266
asS'18-1d35d9b1e0e63ff42fc2def8a250fd29.raw'
p267
(lp268
S'18-9d484817327e5204821c4e6f1443325f.raw,0.822335025381'
p269
asS'12'
p270
(lp271
g26
asS'5.2-4cd886b30d0e401c15e6e77f84ec82ff.raw'
p272
(lp273
S'5.3-718a9b08a38c979146cece8ff674ecd2.raw,1.0'
p274
asS'8-5d1055fe2e8bc8697474fc261336b476.raw'
p275
(lp276
S'8-6bf6cb9da054e0d5b22b0f4c5f54f59a.raw,0.847583643123'
p277
asS'18-00f18888317e19dba8f68e704cb08ae7.raw'
p278
(lp279
S'18-9d484817327e5204821c4e6f1443325f.raw,0.822784810127'
p280
asS'8-6ebb313ee65a5915aadd971df455ce02.raw'
p281
(lp282
S'8-6bf6cb9da054e0d5b22b0f4c5f54f59a.raw,0.866171003717'
p283
asS'29-50eba7c78b50c61d5e964c3bccad2ec4.raw'
p284
(lp285
S'29.1-257cc578a26560b7ae9ec7888f54a1ad.raw,0.960835509138'
p286
asS'5.2-1b1f137c7c020fb02936967ac3f90af4.raw'
p287
(lp288
S'5.3-718a9b08a38c979146cece8ff674ecd2.raw,0.9921875'
p289
asS'18-b2ebf70fe337f60aca09b08324f1298f.raw'
p290
(lp291
S'18-9d484817327e5204821c4e6f1443325f.raw,0.822784810127'
p292
asS'18-4d4389f51f9075ebebb71222a08f7a91.raw'
p293
(lp294
S'18-9d484817327e5204821c4e6f1443325f.raw,0.822784810127'
p295
asS'18-14ec5a8be4dd7b4a7c1cb9cc650e69e7.raw'
p296
(lp297
S'18-9d484817327e5204821c4e6f1443325f.raw,0.822784810127'
p298
asS'18-5c377b9fa6b4c4b9d9c0fb184aa6ecc8.raw'
p299
(lp300
S'18-9d484817327e5204821c4e6f1443325f.raw,0.822784810127'
p301
asS'18-9eff7063aab80022ebc0057189374766.raw'
p302
(lp303
S'18-9d484817327e5204821c4e6f1443325f.raw,0.824873096447'
p304
asS'18-25ef57a63dd8af2be2a23ee1860ff01b.raw'
p305
(lp306
S'18-9d484817327e5204821c4e6f1443325f.raw,0.817721518987'
p307
asS'18-d7535adefffd3895cd099a6a63a3ba76.raw'
p308
(lp309
S'18-9d484817327e5204821c4e6f1443325f.raw,0.822335025381'
p310
asS'18-b1b4dd0426ce83bd540701f2d5a6085f.raw'
p311
(lp312
S'18-9d484817327e5204821c4e6f1443325f.raw,0.823232323232'
p313
asS'18-a4dc863524161559c929e8fc983f01ee.raw'
p314
(lp315
S'18-9d484817327e5204821c4e6f1443325f.raw,0.812332439678'
p316
asS'8-0b24deaba05f352d96b58df0ffac475a.raw'
p317
(lp318
S'8-6bf6cb9da054e0d5b22b0f4c5f54f59a.raw,0.85873605948'
p319
asS'29-28689bc4d451c05931e7903d0ee17d2f.raw'
p320
(lp321
S'29.1-257cc578a26560b7ae9ec7888f54a1ad.raw,0.960835509138'
p322
asS'29.1-257cc578a26560b7ae9ec7888f54a1ad.raw'
p323
(lp324
S'29-7e1342bba879767880aaf65d9e6859c9.raw,0.960835509138'
p325
asg21
(lp326
S'27.1-ab179e4c4ac589ed3c62709ac7a303db.raw,0.659090909091'
p327
asS'18-431ca0464b4870d9d3ee6cde69d563fd.raw'
p328
(lp329
S'18-9d484817327e5204821c4e6f1443325f.raw,0.817258883249'
p330
asS'5.2-1ebf3a323982d3b61617f866ed3b5551.raw'
p331
(lp332
S'5.3-718a9b08a38c979146cece8ff674ecd2.raw,0.984375'
p333
asS'18-cda5d2462c981d13dd1084550441c206.raw'
p334
(lp335
S'18-9d484817327e5204821c4e6f1443325f.raw,0.822335025381'
p336
asS'18-0a4f49f012d9e6d3d351429d21067f80.raw'
p337
(lp338
S'18-9d484817327e5204821c4e6f1443325f.raw,0.825316455696'
p339
asS'5.2-6e7354142c10c6937f8dec04728b2454.raw'
p340
(lp341
S'5.3-718a9b08a38c979146cece8ff674ecd2.raw,1.0'
p342
asS'18-340312a531c18855acc977bae124ec80.raw'
p343
(lp344
S'18-9d484817327e5204821c4e6f1443325f.raw,0.822335025381'
p345
asS'18-0f85140b6693a5be55a3dbccd169ab60.raw'
p346
(lp347
S'18-9d484817327e5204821c4e6f1443325f.raw,0.819338422392'
p348
asS'18-7a834510fdd8483c812d160b46efb968.raw'
p349
(lp350
S'18-9d484817327e5204821c4e6f1443325f.raw,0.814249363868'
p351
asS'5'
p352
(lp353
sS'18-55a908af392f7b0fa3610429bd41d261.raw'
p354
(lp355
S'18-9d484817327e5204821c4e6f1443325f.raw,0.825316455696'
p356
asS'18-64cb3200922af17f409aa0c5cb06d821.raw'
p357
(lp358
S'18-9d484817327e5204821c4e6f1443325f.raw,0.822784810127'
p359
asS'18-d73aa09a7ac1baf852f79a5ef73ab38e.raw'
p360
(lp361
S'18-9d484817327e5204821c4e6f1443325f.raw,0.817721518987'
p362
asS'8-ddc13f738bfde488e90a7ef5a71a6db1.raw'
p363
(lp364
S'8-6bf6cb9da054e0d5b22b0f4c5f54f59a.raw,0.847583643123'
p365
asS'18-2009a521d8d7453e8943396368ac9921.raw'
p366
(lp367
S'18-9d484817327e5204821c4e6f1443325f.raw,0.825316455696'
p368
asS'18-5dea7a120851d481f84f5651f5ca9c44.raw'
p369
(lp370
S'18-9d484817327e5204821c4e6f1443325f.raw,0.824873096447'
p371
asS'18-c7f6675859468a6de41d39c8722dad4b.raw'
p372
(lp373
S'18-9d484817327e5204821c4e6f1443325f.raw,0.813775510204'
p374
asS'18-22cb7f661306c1582aac7b18d03b10bd.raw'
p375
(lp376
S'18-9d484817327e5204821c4e6f1443325f.raw,0.822784810127'
p377
asS'18-041f233ce21cec16c886fd890d9e192b.raw'
p378
(lp379
S'18-9d484817327e5204821c4e6f1443325f.raw,0.822784810127'
p380
asS'18-0a3da9cf8edbba354126ddea59fbdec9.raw'
p381
(lp382
S'18-9d484817327e5204821c4e6f1443325f.raw,0.822784810127'
p383
asg218
(lp384
S'2-4c6784225bb509cd6d33e2ed852d22d1.raw,0.785714285714'
p385
asS'18-7f3c1808e399d4c8a364a7a64534ccbd.raw'
p386
(lp387
S'18-9d484817327e5204821c4e6f1443325f.raw,0.822784810127'
p388
asS'18-0a5c969937b9cd958b52af8983a249ec.raw'
p389
(lp390
S'18-9d484817327e5204821c4e6f1443325f.raw,0.824873096447'
p391
asS'18-01f111a0dda50c0bd24efe1a0b8538dd.raw'
p392
(lp393
S'18-9d484817327e5204821c4e6f1443325f.raw,0.81679389313'
p394
asS'18-ea29bc79d019326cbe80da5e821c2d97.raw'
p395
(lp396
S'18-9d484817327e5204821c4e6f1443325f.raw,0.822784810127'
p397
asS'18-28ef904d3cec7b4b374eb978b9b7acc3.raw'
p398
(lp399
S'18-9d484817327e5204821c4e6f1443325f.raw,0.824873096447'
p400
asS'18-0d77888a42f45fa665ae01d586131c4e.raw'
p401
(lp402
S'18-9d484817327e5204821c4e6f1443325f.raw,0.822784810127'
p403
asS'18-912b48ccaa4a1b3a58417d32e6af22ac.raw'
p404
(lp405
S'18-9d484817327e5204821c4e6f1443325f.raw,0.822784810127'
p406
asS'8-2f949a63fccdb4458a081aa33172b0a0.raw'
p407
(lp408
S'8-6bf6cb9da054e0d5b22b0f4c5f54f59a.raw,0.866171003717'
p409
asS'18-432013eae7d7ed9672a37cd48be125c0.raw'
p410
(lp411
S'18-9d484817327e5204821c4e6f1443325f.raw,0.823232323232'
p412
asS'18-0a6b21081220a224bc00f3f7bb8a37e5.raw'
p413
(lp414
S'18-9d484817327e5204821c4e6f1443325f.raw,0.815189873418'
p415
asS'18-3cf87e06b8210342de94016336d9ea16.raw'
p416
(lp417
S'18-9d484817327e5204821c4e6f1443325f.raw,0.822784810127'
p418
asS'8-2868ff07e1bc760488962955a850a7be.raw'
p419
(lp420
S'8-6bf6cb9da054e0d5b22b0f4c5f54f59a.raw,0.851301115242'
p421
asS'18-0a3b842dd9b5f65edd4b2e7dda2fb8ff.raw'
p422
(lp423
S'18-9d484817327e5204821c4e6f1443325f.raw,0.828644501279'
p424
asS'18-381cc747998d7051190bc664320adb02.raw'
p425
(lp426
S'18-9d484817327e5204821c4e6f1443325f.raw,0.822784810127'
p427
asS'8-6bf6cb9da054e0d5b22b0f4c5f54f59a.raw'
p428
(lp429
S'8-2868ff07e1bc760488962955a850a7be.raw,0.828996282528'
p430
asS'18-c37ddfb8d9f8a9500e6169e66a1ca363.raw'
p431
(lp432
S'18-9d484817327e5204821c4e6f1443325f.raw,0.822784810127'
p433
asS'18-fa1e34c4f1dee7d8e22e28521199c9a7.raw'
p434
(lp435
S'18-9d484817327e5204821c4e6f1443325f.raw,0.823232323232'
p436
as.