(dp0
S'18-5c377b9fa6b4c4b9d9c0fb184aa6ecc8.raw'
p1
(lp2
S'14.1.2-bb50eab41b5b5da6811b498ba787ebd0.raw,1.84933171324'
p3
asS'18-25ef57a63dd8af2be2a23ee1860ff01b.raw'
p4
(lp5
S'14.1.2-bb50eab41b5b5da6811b498ba787ebd0.raw,1.84933171324'
p6
asS'18-d7535adefffd3895cd099a6a63a3ba76.raw'
p7
(lp8
S'14.1.2-bb50eab41b5b5da6811b498ba787ebd0.raw,1.84568651276'
p9
aS'14.1.2-ad85fd04665793ec30b30cd2c7952ce0.raw,1.8492343934'
p10
asS'18-a4dc863524161559c929e8fc983f01ee.raw'
p11
(lp12
S'14.1.2-bb50eab41b5b5da6811b498ba787ebd0.raw,1.84933171324'
p13
asS'8-0b24deaba05f352d96b58df0ffac475a.raw'
p14
(lp15
S'2-3175eb2416c74a21578880850279a9b9.raw,1.72641509434'
p16
asS'18-2aa9591f791c94e68eec402e2cd4001c.raw'
p17
(lp18
S'14.1.2-bb50eab41b5b5da6811b498ba787ebd0.raw,1.83961117861'
p19
aS'14.1.2-ad85fd04665793ec30b30cd2c7952ce0.raw,1.8445229682'
p20
aS'14.5-035d206e2b3b4810e7f12f8fffd903d4.raw,1.8466367713'
p21
asS'18-ad82c7ae9ac6e8fe687bd1564874c72c.raw'
p22
(lp23
S'14.1.2-bb50eab41b5b5da6811b498ba787ebd0.raw,1.84933171324'
p24
asS'18-431ca0464b4870d9d3ee6cde69d563fd.raw'
p25
(lp26
S'14.1.2-bb50eab41b5b5da6811b498ba787ebd0.raw,1.84690157959'
p27
asS'18-62680d51f0eed9d5b30da59624433951.raw'
p28
(lp29
S'14.1.2-bb50eab41b5b5da6811b498ba787ebd0.raw,1.84811664642'
p30
asS'18-3bff94f44da43a07f352bda4d18221a3.raw'
p31
(lp32
S'14.1.2-bb50eab41b5b5da6811b498ba787ebd0.raw,1.84811664642'
p33
asS'18-0a2e7517f212cfdb07e53fb40ca88a3b.raw'
p34
(lp35
S'14.1.2-bb50eab41b5b5da6811b498ba787ebd0.raw,1.84811664642'
p36
asS'18-a007919d3b6c2269a0ac5ec40c270c3b.raw'
p37
(lp38
S'14.1.2-bb50eab41b5b5da6811b498ba787ebd0.raw,1.84811664642'
p39
asS'18-c81009dff546a60518b8ec0e2ae585ef.raw'
p40
(lp41
S'14.1.2-bb50eab41b5b5da6811b498ba787ebd0.raw,1.84690157959'
p42
asS'18-2e4a3fd553eb340bac869bf2e128bdde.raw'
p43
(lp44
S'14.1.2-bb50eab41b5b5da6811b498ba787ebd0.raw,1.84933171324'
p45
asS'18-b041a0875916f3a813c68a6e18016a99.raw'
p46
(lp47
S'14.1.2-bb50eab41b5b5da6811b498ba787ebd0.raw,1.84690157959'
p48
asS'18-7a834510fdd8483c812d160b46efb968.raw'
p49
(lp50
S'14.1.2-bb50eab41b5b5da6811b498ba787ebd0.raw,1.84690157959'
p51
asS'18-e8946c832dce383383ef8f8556a0830e.raw'
p52
(lp53
S'14.1.2-bb50eab41b5b5da6811b498ba787ebd0.raw,1.84933171324'
p54
asS'18-0a6c12bfbfbc5760a44576e4b69a8edd.raw'
p55
(lp56
S'14.1.2-bb50eab41b5b5da6811b498ba787ebd0.raw,1.84568651276'
p57
asS'18-55a908af392f7b0fa3610429bd41d261.raw'
p58
(lp59
S'14.1.2-bb50eab41b5b5da6811b498ba787ebd0.raw,1.84933171324'
p60
asS'18-e32a55b2ac18903b592f5993e6784f01.raw'
p61
(lp62
S'14.1.2-bb50eab41b5b5da6811b498ba787ebd0.raw,1.84568651276'
p63
asS'8-4ec0c06a0e1c517206431c8b8e173fd5.raw'
p64
(lp65
S'2-3175eb2416c74a21578880850279a9b9.raw,1.72641509434'
p66
asS'18-7f361fd51036a64ba60fb9d71d270966.raw'
p67
(lp68
S'14.1.2-bb50eab41b5b5da6811b498ba787ebd0.raw,1.84933171324'
p69
asS'8'
p70
(lp71
S'2-3175eb2416c74a21578880850279a9b9.raw,1.72549019608'
p72
asS'18-57df85db3da0ff1579711c2951fdcf8e.raw'
p73
(lp74
S'14.1.2-bb50eab41b5b5da6811b498ba787ebd0.raw,1.84933171324'
p75
asS'18-1cac979a552ce0ede9994ed05c42210d.raw'
p76
(lp77
S'14.1.2-bb50eab41b5b5da6811b498ba787ebd0.raw,1.84933171324'
p78
asS'18-b94fa95baf38c5ef2fd86c3cb0a4df80.raw'
p79
(lp80
S'14.1.2-bb50eab41b5b5da6811b498ba787ebd0.raw,1.84690157959'
p81
asS'8-6c5b9065372dddec27eb4fb49fe160d8.raw'
p82
(lp83
S'2-3175eb2416c74a21578880850279a9b9.raw,1.73148148148'
p84
asS'18-e2b1b4e0bf4b90990a40f7a34ae948b1.raw'
p85
(lp86
S'14.1.2-bb50eab41b5b5da6811b498ba787ebd0.raw,1.84933171324'
p87
asS'8-2f949a63fccdb4458a081aa33172b0a0.raw'
p88
(lp89
S'2-3175eb2416c74a21578880850279a9b9.raw,1.72549019608'
p90
asS'18-07fe449397be518966075d35851d910e.raw'
p91
(lp92
S'14.1.2-bb50eab41b5b5da6811b498ba787ebd0.raw,1.84811664642'
p93
asS'18-47cc34218b9eea15774c07d3b5c3503b.raw'
p94
(lp95
S'14.1.2-bb50eab41b5b5da6811b498ba787ebd0.raw,1.84811664642'
p96
asS'18-7f3c1808e399d4c8a364a7a64534ccbd.raw'
p97
(lp98
S'14.1.2-bb50eab41b5b5da6811b498ba787ebd0.raw,1.84690157959'
p99
asS'18-e8e976b95b6372bea0cd186bbe4e7a08.raw'
p100
(lp101
S'14.1.2-bb50eab41b5b5da6811b498ba787ebd0.raw,1.84933171324'
p102
asS'18-64cb3200922af17f409aa0c5cb06d821.raw'
p103
(lp104
S'14.1.2-bb50eab41b5b5da6811b498ba787ebd0.raw,1.84933171324'
p105
asS'18-01f111a0dda50c0bd24efe1a0b8538dd.raw'
p106
(lp107
S'14.1.2-bb50eab41b5b5da6811b498ba787ebd0.raw,1.84933171324'
p108
asS'18-00c8670e9b3dcb9cdb85537c244dda5e.raw'
p109
(lp110
S'14.1.2-bb50eab41b5b5da6811b498ba787ebd0.raw,1.84933171324'
p111
asS'18-d73aa09a7ac1baf852f79a5ef73ab38e.raw'
p112
(lp113
S'14.1.2-bb50eab41b5b5da6811b498ba787ebd0.raw,1.84933171324'
p114
asS'18-4e3bcaa89a686ce1506cad15213ca37f.raw'
p115
(lp116
S'14.1.2-bb50eab41b5b5da6811b498ba787ebd0.raw,1.84933171324'
p117
asS'18-09bacec6a7af20f8eac8d241a6b782cf.raw'
p118
(lp119
S'14.1.2-bb50eab41b5b5da6811b498ba787ebd0.raw,1.84811664642'
p120
asS'18-738b03b782750f86b5ab5397a3bf5191.raw'
p121
(lp122
S'14.1.2-bb50eab41b5b5da6811b498ba787ebd0.raw,1.84690157959'
p123
aS'14.1.2-ad85fd04665793ec30b30cd2c7952ce0.raw,1.8492343934'
p124
asS'18-1d35d9b1e0e63ff42fc2def8a250fd29.raw'
p125
(lp126
S'14.1.2-bb50eab41b5b5da6811b498ba787ebd0.raw,1.84811664642'
p127
asS'18-0a1a36f2686601e1686fcb8b216781b1.raw'
p128
(lp129
S'14.1.2-bb50eab41b5b5da6811b498ba787ebd0.raw,1.84811664642'
p130
asS'18'
p131
(lp132
S'14.1.2-bb50eab41b5b5da6811b498ba787ebd0.raw,1.84933171324'
p133
asS'18-21ae24a37ec25b92cd724f298b8cf957.raw'
p134
(lp135
S'14.1.2-bb50eab41b5b5da6811b498ba787ebd0.raw,1.84811664642'
p136
asS'18-03b01a356aa089eac02cb26579ed4636.raw'
p137
(lp138
S'14.1.2-bb50eab41b5b5da6811b498ba787ebd0.raw,1.84933171324'
p139
asS'18-1f0137d6a8c3cf2f146c74730cf6403c.raw'
p140
(lp141
S'14.1.2-bb50eab41b5b5da6811b498ba787ebd0.raw,1.84933171324'
p142
asS'18-00f18888317e19dba8f68e704cb08ae7.raw'
p143
(lp144
S'14.1.2-bb50eab41b5b5da6811b498ba787ebd0.raw,1.84933171324'
p145
asS'18-c71bbef5badcc5ce2a5cc81992caf45e.raw'
p146
(lp147
S'14.1.2-bb50eab41b5b5da6811b498ba787ebd0.raw,1.84811664642'
p148
asS'18-b3a5751f62c1bd25d9f09425534c711e.raw'
p149
(lp150
S'14.1.2-bb50eab41b5b5da6811b498ba787ebd0.raw,1.84933171324'
p151
asS'18-c37ddfb8d9f8a9500e6169e66a1ca363.raw'
p152
(lp153
S'14.1.2-bb50eab41b5b5da6811b498ba787ebd0.raw,1.84933171324'
p154
asS'18-3cf87e06b8210342de94016336d9ea16.raw'
p155
(lp156
S'14.1.2-bb50eab41b5b5da6811b498ba787ebd0.raw,1.84933171324'
p157
asS'18-4d4389f51f9075ebebb71222a08f7a91.raw'
p158
(lp159
S'14.1.2-bb50eab41b5b5da6811b498ba787ebd0.raw,1.84811664642'
p160
as.