(dp0
S'2-e1bdbb1e4a3bb06d4263a49942421721.raw'
p1
(lp2
S'8-2f949a63fccdb4458a081aa33172b0a0.raw'
p3
asS'2-b96c51cee1b7bcc48b37c0c867a13558.raw'
p4
(lp5
S'8-2f949a63fccdb4458a081aa33172b0a0.raw'
p6
asS'22.3.2-c3d44ddbc3b1b54ae444d9debebd6901.raw'
p7
(lp8
S'8-2f949a63fccdb4458a081aa33172b0a0.raw'
p9
asS'2-bd9f07b40ce1d57a90e9f501ac1c8dc7.raw'
p10
(lp11
S'8-2f949a63fccdb4458a081aa33172b0a0.raw'
p12
asS'20-df4ef2571686f60b6798d66249d4f7db.raw'
p13
(lp14
S'8-2f949a63fccdb4458a081aa33172b0a0.raw'
p15
asS'8'
p16
(lp17
g7
ag10
ag13
ag1
ag4
as.