(dp0
S'TinyFamily1'
p1
(lp2
S'Tiny.155-5cc92dd27252cee24bcff674291cc232'
p3
aS'Tiny.155-bf95a76fb8b4df4dffa1317c51da2788'
p4
asS'Hacker'
p5
(lp6
S'Horse.B-a2ce82f156425f325aaf20212695bec4'
p7
asS'Horse'
p8
(lp9
S'Small.130.gen-3a03bd9ce9fdf3bd90add24dc2aa6d47'
p10
asS'Bob.2-ce93bca9c4c7069c24cc0bbcdf34226c'
p11
(lp12
S'USSR.948.B-f6e0d5b5e2141c1a7f1741ad5389a044'
p13
asS'CaptainTrips-a3ad9d2d5f6533208d2756fe579b1dc9'
p14
(lp15
S'Jerusalem.USA-9dc251ed821324513d5190430ed0b1b3'
p16
asS'Fingers.1-c425eba2cc7d270c6f179284ee36d7f5'
p17
(lp18
S'USSR.948.B-f6e0d5b5e2141c1a7f1741ad5389a044'
p19
asS'G2.based-d229d988711bd4059d475555c2ebe427'
p20
(lp21
S'Bailey.334-b01eb72005ebca103d9b5fa7c6582399'
p22
aS'ARCV.7-aab221df86bd7f8bf08a26c4657f6690'
p23
asS'AntiPas.605-fceaa5a57b448722c3983cb668c27c6f'
p24
(lp25
S'Pascal.529-9197e4e3155a5f5ff1596e7895139168'
p26
asS'Flash'
p27
(lp28
S'Trackswap-1d4024c3bb8c8d56f68bf2bc580fcacd'
p29
aS'Badguy.B-94d5263a606257c02ac3c4d1c8cf3fa0'
p30
aS'Friday.13th.C-a0167e004b2515308007884a79f00b98'
p31
aS'Small.130.gen-3df4814cbc0bbd5359e1fc5fcc1a08b6'
p32
aS'Piter.2-c3e8b4ef9520fbfa9aa54e6535d28e18'
p33
asS'Pebble-d8de6199db42e2ef0e4ecef76ff13d0a'
p34
(lp35
S'VGEN.168.0-aa0c2944c9e0c8dcbc852206f3cefc57'
p36
asS'VCL.Dome3-0acdcab048b33f0a8c6b1c8be652bccf'
p37
(lp38
S'Vgen.43227-3a7036b663940f11423eef0cc22d000a'
p39
asS'ChristmasViolator-c8b2520ea6a950366b4c583c13efa567'
p40
(lp41
S'Vienna.637-c775109398ab6829b651ad419e91b9f5'
p42
asS'Sunday'
p43
(lp44
S'Small.130.gen-1ccb66b3258f08d9ea36da01b3255a29'
p45
asS'Pascal.440-af4fc51981cb94183abd2afdf43db97b'
p46
(lp47
S'AntiPas.480-7bf70decca983a4516f633c6cea362aa'
p48
asS'MPC.Unnamed-b8c411d10efce0f74968604bc4474024'
p49
(lp50
S'ARCV.7-aab221df86bd7f8bf08a26c4657f6690'
p51
asS'Stoned.2-46072a6574ba48b00bcbaa882b108a52'
p52
(lp53
S'VGEN.116.0-f1db6a987680852fc704553130eaa798'
p54
asS'Pixel.10-ff9090294d98ebe77af96bf501f52fc1'
p55
(lp56
S'HD.Format.2-c2681084530eef942b5c212159c1bec7'
p57
asS'Vgen.2593-96bf4b2f61a3eb0a50f3dde6fa17f665'
p58
(lp59
S'KeyKapture.107X-8ac410ef0d79050a1428438c957e2b6c'
p60
asS'Pixel'
p61
(lp62
S'Silly.877-e1687b6448c555af0e96cabbd87a37be'
p63
asS'PS.MPC.Gen.3-676aa4556b249a8af60065833f92224d'
p64
(lp65
S'VGEN.70.3-be59883d55bc80760d7474e9be3bf4d0'
p66
asS'PSMPC.5652-a8d16236327c58668006c74caa22e685'
p67
(lp68
S'MPC.Unnamed.2-b705c59a2254540755b057d47cfc21a9'
p69
ag69
aS'ARCV.7-aab221df86bd7f8bf08a26c4657f6690'
p70
asS'Stoned.2-2ca0586f9074377caef6af976b1618ab'
p71
(lp72
S'VGEN.116.0-f1db6a987680852fc704553130eaa798'
p73
asS'Small.130.gen-1ccb66b3258f08d9ea36da01b3255a29'
p74
(lp75
S'Jerusalem.USA-9dc251ed821324513d5190430ed0b1b3'
p76
aS'Sunday.4-29e0c5f2801ebec0ba8a54f5ed2ff031'
p77
asS'Mix.664-28408a619f94fa9161ab6bb771535cac'
p78
(lp79
S'December24th-9ab2a5652b718f570862dbea2f2a6592'
p80
asS'Stoned.A-7be8f26b5e1cf682e8c57afec4acfac7'
p81
(lp82
S'VGEN.116.0-f1db6a987680852fc704553130eaa798'
p83
aS'Boot.Hi.Dos-16ca92a55c227c3be507524a6fc207a8'
p84
asS'PSMPC.5652-0a2f4092b9d8643b189028d4d42d2c1c'
p85
(lp86
S'MPC.Unnamed.2-b705c59a2254540755b057d47cfc21a9'
p87
ag87
aS'PS.MPC.Z10-98bac47b20b7871752d3de7b201ad924'
p88
aS'ARCV.7-aab221df86bd7f8bf08a26c4657f6690'
p89
asS'Gen.905.A-8f51fa1df1e0ba32f2a13ef8dd1ed4fb'
p90
(lp91
S'S.Vir.4-000a50c55a2f4517d2e27b21f4b27e3b'
p92
asS'Friday'
p93
(lp94
S'Badguy.B-94d5263a606257c02ac3c4d1c8cf3fa0'
p95
asS'MPC.Unnamed-8db01614060645de304061cc39d353ef'
p96
(lp97
S'ARCV.7-aab221df86bd7f8bf08a26c4657f6690'
p98
asS'Stoned.2-dcc2c673082d369aa6a377e6ae0d699e'
p99
(lp100
S'VGEN.116.0-f1db6a987680852fc704553130eaa798'
p101
asg10
(lp102
S'Horse.A-3e96fa67d547c08a3fd03b306583a0af'
p103
asS'V.1241-6e168fe81ddb4505d1752ab78e3b8f08'
p104
(lp105
S'Small.130.gen-1170570be704495c57a19695dcd3b27a'
p106
ag106
asS'Zherkov.1882-30321fed351b0302f79cc28d59414034'
p107
(lp108
S'Chemist.1-37b060c4aa8c54eab4e3cfbd8f30f16c'
p109
asS'Yankee.1-68a63e3c0e5f2f23002adee1c660bb86'
p110
(lp111
S'USSR.1049.D-1fd9db2bb61ff9af5e446e6da8259390'
p112
asS'PSMPC.Spunk-5e724fc323e38377b477c445352603a7'
p113
(lp114
S'VGEN.97.0-6c2e4718011d397f6b1a9b9dac3f3845'
p115
asS'MPC1a.5-2621fda346a8bb1278189fb5a83d8a44'
p116
(lp117
S'VGEN.51431-d60bc81569384d7906401a8f0339aa3c'
p118
aS'VGEN.70.3-be59883d55bc80760d7474e9be3bf4d0'
p119
aS'PS.MPC.Z10-48aba37b311a35a9da0502104c5b752c'
p120
aS'ARCV.7-aab221df86bd7f8bf08a26c4657f6690'
p121
asS'PSMPC.5652-b0fa428ed4641c06d50d4ba72100bf98'
p122
(lp123
S'MPC.Unnamed.2-b705c59a2254540755b057d47cfc21a9'
p124
ag124
aS'ARCV.7-aab221df86bd7f8bf08a26c4657f6690'
p125
asS'Bebe.3-a274a53b3768cb6ca7d615c888cbf980'
p126
(lp127
S'USSR.948.B-f6e0d5b5e2141c1a7f1741ad5389a044'
p128
asS'PSMPC.5652-2e1017c5674f0f15b6a637731f69df04'
p129
(lp130
S'MPC.Unnamed.2-b705c59a2254540755b057d47cfc21a9'
p131
ag131
aS'ARCV.7-aab221df86bd7f8bf08a26c4657f6690'
p132
asS'Suck-1dafa921680e101b524d488d0261599c'
p133
(lp134
S'DOS..10842-6bb04ad8b3c7f6ffe3cd596273003db2'
p135
aS'C.Virus.6-fe89f76796b71b3d814a2ffae40d8ddb'
p136
asS'Mayberry.402.2-57e9e4f653a050d2caa95eaf810ca47c'
p137
(lp138
S'VGEN.53.6-9cee5eb6919d17c0241c72c979fe15d7'
p139
asS'BOO.Yesmile-1b970fe187cb121e52143292c0080dc1'
p140
(lp141
S'VGEN.1059.512-7dbf1ffafbb8dced6bc408ac7e1cede2'
p142
asS'Spyer.2-93a1c1e12838d9c2a7b19e5c3a850c21'
p143
(lp144
S'Small.130.gen-1170570be704495c57a19695dcd3b27a'
p145
ag145
asS'Dropper'
p146
(lp147
S'Aircop.c-b44f1eb851d1e508577580ae97f8abe5'
p148
asS'Leprosy'
p149
(lp150
S'DOS.Leprosy.666-0c2d1ba928dcf1f17bd645fc4dff0b70'
p151
aS'Plaque-d7e3d6bf4d65c8968e6c1f41eecb136e'
p152
asS'VGEN.124.512-aaf0a4cdd4e40edd7cdd268847b0b1cd'
p153
(lp154
S'Vienna.5520-541ca2a048348027bcc48acb0c0cf291'
p155
asS'_0235_0001_002-1e93e0c5d5020ca05c31f1bdfd02ed99'
p156
(lp157
S'VGEN.51431-d60bc81569384d7906401a8f0339aa3c'
p158
aS'VGEN.3170.512-61d9fa137915c5dc94090526b0667fc3'
p159
aS'ARCV.7-aab221df86bd7f8bf08a26c4657f6690'
p160
asS'Ash'
p161
(lp162
S'SillyC.737-e6138be26f4676826b7b09aee4069633'
p163
aS'ImpotentG-70ccc2c9dfe9139cb38b60427bd16734'
p164
asS'Boot.ExeBug-8e6eb80e78b7095e9473fb967269b299'
p165
(lp166
S'VGEN.116.0-f1db6a987680852fc704553130eaa798'
p167
asS'MPCP'
p168
(lp169
S'PS.MPC.Gen-e8530e6260e4c92243b972e8c8ebf989'
p170
asS'MPC.Unnamed-2a25163ba066d1d2fce0e4e5c4080b2d'
p171
(lp172
S'VGEN.51431-d60bc81569384d7906401a8f0339aa3c'
p173
aS'ARCV.7-aab221df86bd7f8bf08a26c4657f6690'
p174
asS'Comspec-bd155386c19091298be6269ba958751d'
p175
(lp176
S'VGEN.756.252-994f2f6e568ad8c7a27c39fe9583f7b5'
p177
asS'Austr.Para.306-facef4aa3c8cc49ef90c338fcb873bb0'
p178
(lp179
S'Vgen.1334-867b568ab3a6862e0ea8e114202d5143'
p180
asS'Yankee.1-cce476c53c20a952a10183468938b9c6'
p181
(lp182
S'USSR.1049.D-1fd9db2bb61ff9af5e446e6da8259390'
p183
asS'Vienna.1-f9849d20af0861e7331eebceeb1e5b83'
p184
(lp185
S'Vgen.6291-491ea62ff1e267f7d43d01153eb6687b'
p186
asS'DiamondRock.gen-b09a7125e0c130c6dd5d7d64f48bd527'
p187
(lp188
S'USSR.948.B-f6e0d5b5e2141c1a7f1741ad5389a044'
p189
asS'TaiPan'
p190
(lp191
S'Vgen.15829-89635c8b4c257851b557791bd3b79231'
p192
asS'PSMPC.5652-e4f070134a6b804507d939d46615b356'
p193
(lp194
S'MPC.Unnamed.2-b705c59a2254540755b057d47cfc21a9'
p195
ag195
aS'ARCV.7-aab221df86bd7f8bf08a26c4657f6690'
p196
asS'PSMPC.5652-bbf6442863c70cc7e84104f2b700be44'
p197
(lp198
S'MPC.Unnamed.2-b705c59a2254540755b057d47cfc21a9'
p199
ag199
aS'ARCV.7-aab221df86bd7f8bf08a26c4657f6690'
p200
asS'Yanshort'
p201
(lp202
S'BlackWizard-761692ce953db7265037b60a7aab1713'
p203
aS'BlackWizard-bcbb663abcaf1321a3cf166c07dba3aa'
p204
asS'PSMPC.5652-0a81ae6f830c74ed28bc41ae12e61229'
p205
(lp206
S'MPC.Unnamed.2-b705c59a2254540755b057d47cfc21a9'
p207
ag207
aS'ARCV.7-aab221df86bd7f8bf08a26c4657f6690'
p208
asS'AntiCAD'
p209
(lp210
S'Plastique.2-534494d7218d1938fd142cf43995823c'
p211
asS'MPS.OPC_ColG-96581c383f591a3e2ef29fbef790d25e'
p212
(lp213
S'BlackMonday.4-8487d0aa0b8f302e3e09589ab30ab9c1'
p214
asS'Moron-344077e2cccfc789cbf059bffda9aefa'
p215
(lp216
S'Vgen.265-4f237afa2b7da9330f983888ca920a3f'
p217
asS'Rosen-dbc6e8391a7d2a7130476ff78a52667c'
p218
(lp219
S'Small.130.gen-a56e66befa283707287a504d9943c91f'
p220
aS'Small.130.gen-0717eece4b240bd1595898e937fb8ff4'
p221
ag221
aS'Mini.127a-23d06ef2e762827d0e2064d7139a6745'
p222
asS'CivilWar'
p223
(lp224
S'VGEN.74.6-c2f0a9903ce9281aa4f1415ae2dab966'
p225
aS'Grunt.203-9bbdef2169da6d6f192538b49b787ee5'
p226
asS'Cascade.1661-22615c3ddb08dfdb93e5975fb4566a5e'
p227
(lp228
S'USSR.948.B-f6e0d5b5e2141c1a7f1741ad5389a044'
p229
asS'Rosen'
p230
(lp231
S'Mini.176-04b4faed1a07dc81160a3277e1cae235'
p232
aS'Pixel.296-20ffdeb1832b15b7ad7fe53117127cdf'
p233
aS'Pixel.296-6c9813485d42fc779480aad903559a79'
p234
aS'Tiny.Mutant-5bd7937616d085c11978cbd9b9823e6d'
p235
asS'Number.One.2-067aa565a4881d30edcddbae4224e478'
p236
(lp237
S'AIDS.1-06e5389543f280afff117d0a62735c02'
p238
asS'Tiny'
p239
(lp240
S'TinyFamily3-3d7d108ed1a222ccdc2ab203ed1c5966'
p241
asS'Fish.6.B-75bf5868bd8ae88d1edecc4a0dc7da71'
p242
(lp243
S'Fish_damaged.2-c9efef7c17d97b0dc90ac294dcbca8f5'
p244
asg29
(lp245
S'Flash.Gyorgy-46ae0cde6e57aefb123e17a0a49199eb'
p246
aS'Vgen.6291-491ea62ff1e267f7d43d01153eb6687b'
p247
asS'Overdoze'
p248
(lp249
S'InvisibleEvil-c91fe85edbb8ddb9d51844f1f9659bc2'
p250
asS'VGEN'
p251
(lp252
S'Mayberry.475-8337ef37ee8b5f17977d6591413c41d0'
p253
ag71
aS'Stoned.2-86895ff9ab3714f1e5e8894f09357559'
p254
aS'Trackswap-1d4024c3bb8c8d56f68bf2bc580fcacd'
p255
aS'PS.MPC.Gen.3-9e4b2ea2c8e60ed910484a1dd81ae12f'
p256
aS'PS.MPC.Gen.3-016a9a5f87b885fb2090fbd4f3d0c9ee'
p257
ag99
aS'PSMPC.Spunk-3106f350e0bc72ee4433282a99fdfb8f'
p258
ag140
aS'MPC.Unnamed-03f69ebad5f21840637b97f06375c03f'
p259
ag175
aS'AIDSII-d3ffb0106bbf90d6510e77beb6cde1b3'
p260
ag215
ag165
aS'Trivial.Vootie-83a7c24b03545b818fb3fff316b9ab10'
p261
aS'Vienna.5520-f473629f2d8bee3e17d3f65e86137cca'
p262
aS'Betty-ef78f811d53312852da47b2806f36e4f'
p263
aS'Flash.Gyorgy-46ae0cde6e57aefb123e17a0a49199eb'
p264
aS'Stoned.2-f5f8c730eff59920db1c8ce49146719d'
p265
aS'Trivial.Mini35-49834a0f717737b13c8f75643650a4ef'
p266
ag137
aS'Magnitogorsk.1-a8c3ad3ffda11bdcb1ddbe1829807148'
p267
ag178
aS'Stoned.2-6f1c377f232bf6c02e3711271ff6234b'
p268
ag116
aS'Stoned.2-ef299b247d773be7003973851e82814e'
p269
aS'Badguy.B-94d5263a606257c02ac3c4d1c8cf3fa0'
p270
aS'Polish.583-ebda928540491158e42e7fb1630caa76'
p271
aS'Helloween.4-2aa5c697aa81dfd4eaada29289d6c5bb'
p272
aS'Trivial.46.E-b34feee745fc78f746a0b56f82aa2404'
p273
aS'Ear.1025-5ccc9d93e342e0ce0e75c452649c95ac'
p274
ag34
aS'Plaque-d7e3d6bf4d65c8968e6c1f41eecb136e'
p275
aS'EvenBeeper.2-22a0afeffcbb27c228ed9df93f8ec5e4'
p276
ag37
aS'PSMPC.Spunk-255553e5268e6578a7471e4764b093b8'
p277
aS'Friday.13th.C-a0167e004b2515308007884a79f00b98'
p278
aS'Mayberry.609-38a1fe42213d0284baceecc65748f6b2'
p279
aS'Stoned.2-1e7199fd5c6fbc391e3b31bceb40938f'
p280
aS'Overwrite.3008-ad2550533e6ccc59fd66c707b8921f66'
p281
aS'PS.MPC.Z10-48aba37b311a35a9da0502104c5b752c'
p282
aS'AIDSII-ade219afde2ff1acffcd8f759c619303'
p283
ag52
aS'Stoned.2-9f8578ef92a179b8f2224c2a584792b9'
p284
ag64
aS'Mosquito.1-776f1d9c7b274822adcd7b5136394af4'
p285
ag184
aS'Small.130.gen-3df4814cbc0bbd5359e1fc5fcc1a08b6'
p286
aS'MPC.Unnamed-4c7f38c7c6b5aa62a301de5658ecc39d'
p287
aS'Blaze.284-656d146f8de41d733d3c59623ef6d0b5'
p288
ag113
aS'Vienna.5520-541ca2a048348027bcc48acb0c0cf291'
p289
aS'PS.MPC.Gen.3-5d0b8fed65a822c2efba011f5652f47e'
p290
aS'PS.MPC.349-84cc39b8e8d243a214c725263524c177'
p291
aS'Sunset.1-0b9bf09a62688542fc4c8491388b52a4'
p292
aS'Stoned.2-9b1d3a393a7e6a6bbdff63fd65d781f0'
p293
ag171
aS'Small.130.gen-bfdb9b0f8c240db7ccb734373cdfad86'
p294
aS'Piter.2-c3e8b4ef9520fbfa9aa54e6535d28e18'
p295
ag156
aS'Gateway-1820cd71ccbb4595e2f561eb215d82c2'
p296
aS'Burger.560.h-d8a6c35a4512ab1fdfd1965cfc4c9f80'
p297
aS'Stoned.2-6c40d98b76bc1fcb1cea0c7101b8986e'
p298
aS'Deicide.1335-dffb2cdf6b15706d231fa88f1cd554e7'
p299
aS'Blaze.MSK-8e7abf8479ae76cfe626ab84e997170e'
p300
aS'Small.130.gen-37c68f5870d8ac54ac8c8e4b3286c777'
p301
aS'Barrotes.2.1-4d845737aa1f41024521b4346299e4cb'
p302
aS'_0242_0001_002-cc8def98193b790a59994c4594fa0123'
p303
ag81
asg261
(lp304
S'VGEN.168.0-aa0c2944c9e0c8dcbc852206f3cefc57'
p305
asg302
(lp306
S'VGEN.756.252-994f2f6e568ad8c7a27c39fe9583f7b5'
p307
asS'AIDS'
p308
(lp309
g236
asS'PSMPC.5652-a8d5bf1cc1d1c53018df369683730223'
p310
(lp311
S'MPC.Unnamed.2-b705c59a2254540755b057d47cfc21a9'
p312
ag312
aS'ARCV.7-aab221df86bd7f8bf08a26c4657f6690'
p313
asS'Tic.1-b305674669ed9a8f3f4c892c204583f5'
p314
(lp315
S'Mini.93-ada0c99ab935dc326ed24797ec8716e4'
p316
asS'Westwood.2-6a355a233e2d00233acb145fbe83cbdd'
p317
(lp318
S'Jerusalem.USA-9dc251ed821324513d5190430ed0b1b3'
p319
asS'BlackMonday'
p320
(lp321
g212
aS'DOS.ARCV.745-be5bd33648a9f927fe7568dd1463423e'
p322
asS'Vienna'
p323
(lp324
S'ChristmasViolator-a7bb2e1f3c87e7013c4c753bfe443f48'
p325
ag153
aS'Betty-ef78f811d53312852da47b2806f36e4f'
p326
aS'VengG-30490300bb5bf18397ebf70808e7c5b9'
p327
aS'Polish.583-ebda928540491158e42e7fb1630caa76'
p328
aS'Parasite.A-1e2c29d0f0d0756afe41661d1130e9fa'
p329
aS'VGEN.19.512-9f922a71356c177202a7b88538c234ef'
p330
aS'Small.130.gen-e9ac3487d509907b6ef4d82122830947'
p331
aS'EvenBeeper.2-22a0afeffcbb27c228ed9df93f8ec5e4'
p332
ag40
aS'Polish.583-791b027236d3734703851f0bbc41b873'
p333
aS'Violator.1-91c1a9584a84b48aeed91787ffdcf62f'
p334
asS'PS'
p335
(lp336
S'_0523_0001_001-6ea93a9a1bf2eadb4913b589ec6be2f9'
p337
aS'MPC1a.5-2621fda346a8bb1278189fb5a83d8a44'
p338
aS'PSMPC.5652-0a2f4092b9d8643b189028d4d42d2c1c'
p339
aS'_0242_0001_002-cc8def98193b790a59994c4594fa0123'
p340
asg32
(lp341
S'Flash.Gyorgy-46ae0cde6e57aefb123e17a0a49199eb'
p342
aS'Vgen.6291-491ea62ff1e267f7d43d01153eb6687b'
p343
asS'PS.MPC.Z10-98bac47b20b7871752d3de7b201ad924'
p344
(lp345
S'PSMPC.5652-5c2cf4d58bb953b0c8bde4cc4c2cd86e'
p346
aS'MPC.Unnamed.2-b705c59a2254540755b057d47cfc21a9'
p347
ag347
aS'ARCV.7-aab221df86bd7f8bf08a26c4657f6690'
p348
asS'New.COM.1-98a08bfe8c57674b73432229ea9c4c6f'
p349
(lp350
S'USSR.1049.D-1fd9db2bb61ff9af5e446e6da8259390'
p351
asS'Darth'
p352
(lp353
S'DarthVader.255-2e2b0467e91f807ef3bc514aa35b88f6'
p354
asg301
(lp355
S'Vgen.6291-491ea62ff1e267f7d43d01153eb6687b'
p356
asS'Nina.1560-3200fe1f1fe4a57451b3fee2f2b3e4f9'
p357
(lp358
S'Gen.1600.C-b9c4bb63f498fbf53554d13ce347c030'
p359
asg268
(lp360
S'VGEN.116.0-f1db6a987680852fc704553130eaa798'
p361
asS'PSMPC.5652-5c2cf4d58bb953b0c8bde4cc4c2cd86e'
p362
(lp363
S'MPC.Unnamed.2-b705c59a2254540755b057d47cfc21a9'
p364
ag364
aS'ARCV.7-aab221df86bd7f8bf08a26c4657f6690'
p365
asg33
(lp366
S'Flash.Gyorgy-46ae0cde6e57aefb123e17a0a49199eb'
p367
aS'Vgen.6291-491ea62ff1e267f7d43d01153eb6687b'
p368
asS'NPox.2-ab3722fe9b8e06686a90b2d75a8fb429'
p369
(lp370
S'ZK.900.C-20d755fc5d4f279491414e41e68a21e9'
p371
asS'PSMPC'
p372
(lp373
g344
asg233
(lp374
S'Rosen-dbc6e8391a7d2a7130476ff78a52667c'
p375
asS'MIR-a4584478bf53924cf04e051e745f9957'
p376
(lp377
S'DarkAvenger.1947-59e8969644a7a705fed4cc413c216a44'
p378
asg269
(lp379
S'VGEN.116.0-f1db6a987680852fc704553130eaa798'
p380
asS'Fish_damaged'
p381
(lp382
g242
asS'Pixel.296-6c9813485d42fc779480aad903559a79'
p383
(lp384
S'Small.130.gen-0717eece4b240bd1595898e937fb8ff4'
p385
ag385
aS'Rosen-dbc6e8391a7d2a7130476ff78a52667c'
p386
aS'Amstrad.2-452cf8df84b19f6c5ae2b718abe0bdd4'
p387
asg284
(lp388
S'VGEN.116.0-f1db6a987680852fc704553130eaa798'
p389
asS'_0279_0001_001-b873a65efada55b77c815428fe5ccfc1'
p390
(lp391
S'MPC.Unnamed.2-b705c59a2254540755b057d47cfc21a9'
p392
ag392
asg290
(lp393
S'VGEN.51431-d60bc81569384d7906401a8f0339aa3c'
p394
aS'VGEN.70.3-be59883d55bc80760d7474e9be3bf4d0'
p395
aS'ARCV.7-aab221df86bd7f8bf08a26c4657f6690'
p396
asg262
(lp397
S'VGEN.756.252-994f2f6e568ad8c7a27c39fe9583f7b5'
p398
asg225
(lp399
S'Civil_War.561-d43205c042558d8fa410f734a1326db2'
p400
asg3
(lp401
S'TinyFamily1-16c5bd1b3021dd722656499f4a545097'
p402
aS'TinyFamily2-059bf52023ad1c27fde8a4765065e90a'
p403
asS'Tiny.Mutant-5bd7937616d085c11978cbd9b9823e6d'
p404
(lp405
S'Small.130.gen-a56e66befa283707287a504d9943c91f'
p406
aS'Rosen-dbc6e8391a7d2a7130476ff78a52667c'
p407
aS'Mini.127a-23d06ef2e762827d0e2064d7139a6745'
p408
asS'C'
p409
(lp410
S'Suck-1dafa921680e101b524d488d0261599c'
p411
aS'Not-e72fc371ee5ea6375cbfc3e95a3409e9'
p412
asg291
(lp413
S'VGEN.3170.512-61d9fa137915c5dc94090526b0667fc3'
p414
aS'Bailey.334-b01eb72005ebca103d9b5fa7c6582399'
p415
aS'G2.based-d229d988711bd4059d475555c2ebe427'
p416
aS'ARCV.7-aab221df86bd7f8bf08a26c4657f6690'
p417
asS'ZK'
p418
(lp419
g369
asS'PSMPC.5652-8225e6cbc96792b5e89e9f8c15a14fb5'
p420
(lp421
S'MPC.Unnamed.2-b705c59a2254540755b057d47cfc21a9'
p422
ag422
aS'ARCV.7-aab221df86bd7f8bf08a26c4657f6690'
p423
asg7
(lp424
S'Hacker.2-683c72e73803104b37121b72110dcf8f'
p425
asg258
(lp426
S'VGEN.97.0-6c2e4718011d397f6b1a9b9dac3f3845'
p427
asS'GP.1.A-a59958bd4e6b7e49450001e5602af42c'
p428
(lp429
S'Jerusalem.USA-9dc251ed821324513d5190430ed0b1b3'
p430
asg253
(lp431
S'VGEN.53.6-9cee5eb6919d17c0241c72c979fe15d7'
p432
asS'S'
p433
(lp434
S'Mix.664-140a65db06bac59eadba219254f1db83'
p435
ag90
asS'USSR'
p436
(lp437
S'Yankee.5-579b62a3fb78a40ebdeb561319d90083'
p438
ag11
aS'Gen.1677-e233fa34e8a66fcd7113b574d0a30325'
p439
ag17
aS'Squawk.1-ab402d66be9bc452dd759eda49352d44'
p440
ag126
ag181
aS'New.COM.1-f9092c89af3a613bf0fce7989e5bf45a'
p441
ag110
ag349
aS'Yankee.5-a56608e7f1b3fbaca574ad0ef0fa6047'
p442
aS'DOS.Chemmy.A-a19a0d7cba33f964f08193d3fb46294e'
p443
ag227
ag187
aS'Yankee.1-ee0309d9890d4bc7e1fc87efbde59620'
p444
asg241
(lp445
S'Tiny.251-b9d60265933d9cead12ae1c8cdc9b747'
p446
asS'Sunday.2.2877-6851e04040e1f63f1b103ab56ac17610'
p447
(lp448
S'Rape.1882-df7a89d248184a1d3abce68a111d3b27'
p449
asS'Bailey'
p450
(lp451
S'PS.MPC.349-84cc39b8e8d243a214c725263524c177'
p452
ag20
asg289
(lp453
S'VGEN.756.252-994f2f6e568ad8c7a27c39fe9583f7b5'
p454
asS'PSMPC.5652-743974ae344ec72daf75c448cad420a2'
p455
(lp456
S'MPC.Unnamed.2-b705c59a2254540755b057d47cfc21a9'
p457
ag457
aS'ARCV.7-aab221df86bd7f8bf08a26c4657f6690'
p458
asS'Ravage-12e406f63a2a25aa150e87b41ff69ac7'
p459
(lp460
S'Boot.D.A.S-130f01221a6fdbb0b3e08113957d5616'
p461
asg297
(lp462
S'VGEN.198.0-7a23d6adac3779689fb2a29acb34377c'
p463
asS'KeyKapture'
p464
(lp465
g58
asS'Pixel.296-200d53aa9fbac337f2dd82086001b91b'
p466
(lp467
S'Amstrad.2-452cf8df84b19f6c5ae2b718abe0bdd4'
p468
asS'Flash.Gyorgy-46ae0cde6e57aefb123e17a0a49199eb'
p469
(lp470
S'Boot.Diskkiller-3f9537f62d5f3822fe6aec2656dc8e0b'
p471
aS'Vgen.6291-491ea62ff1e267f7d43d01153eb6687b'
p472
asS'Invader.1-efb82f74d49954f6b9112c06aa69129b'
p473
(lp474
S'Small.130.gen-0717eece4b240bd1595898e937fb8ff4'
p475
ag475
asS'_0251_0002_000-0fe4cbb1727f856ac563526905003d8e'
p476
(lp477
S'MPC.Unnamed.2-b705c59a2254540755b057d47cfc21a9'
p478
ag478
asS'MPC'
p479
(lp480
S'PSMPC.5652-aa3fed94ad917764a167ac93562ab236'
p481
aS'ARCV.5-ad90c9ae56b52e14a9294492c6ed167f'
p482
aS'PSMPC.5652-d6f7059699a212cc1fe7a01ac5ed2b9f'
p483
ag362
aS'PSMPC.5652-97ac1006d7d3a03c0bae38fa755e93e8'
p484
ag420
ag193
aS'PS.MPC.Gen.2-d0d27b52a932b082aa70e821b09cad6e'
p485
ag122
ag390
ag310
aS'PS.MPC.Z10-98bac47b20b7871752d3de7b201ad924'
p486
ag85
ag455
ag476
ag129
ag205
aS'PSMPC.5652-9a858c494f491f9df2aa1707687d9a31'
p487
aS'PSMPC.5652-d4c9e5dc58b9b0a7178769c79aabdea3'
p488
aS'MPCP.1-ff6215819f95c736af5967039603e701'
p489
aS'PS.MPC.Gen-e8530e6260e4c92243b972e8c8ebf989'
p490
ag67
ag197
asS'PS.MPC.Doggy-3559b3c266bfa58e27d9f91ae91959d5'
p491
(lp492
S'ARCV.7-aab221df86bd7f8bf08a26c4657f6690'
p493
asS'Sunday.4-29e0c5f2801ebec0ba8a54f5ed2ff031'
p494
(lp495
S'Jerusalem.USA-9dc251ed821324513d5190430ed0b1b3'
p496
asS'Diamond-e559c6a2f51dabefb0eec280d02dd9c7'
p497
(lp498
S'Dark.Avenger.1063-eedffc4ecd2678a61617f162a650f8cc'
p499
asg279
(lp500
S'VGEN.53.6-9cee5eb6919d17c0241c72c979fe15d7'
p501
asS'Killer-982fc1133628dc3c67eb54ad5c5629e1'
p502
(lp503
S'Virdem.Family-7164cc08c6375d65fa4b67a0b67fd3c6'
p504
asS'Sterculius.1-44993e1fc26f803635b345980d0a3695'
p505
(lp506
S'Setrculius.3-778bd0848a0a4f7a6db5c7c20db81093'
p507
asg333
(lp508
S'Vienna.637-c775109398ab6829b651ad419e91b9f5'
p509
asg294
(lp510
S'Vgen.6291-491ea62ff1e267f7d43d01153eb6687b'
p511
asS'Nina'
p512
(lp513
S'Riot-bbee12f53bdbaf4dfbd9be0e590216b8'
p514
asS'Rape'
p515
(lp516
g447
asS'MPC.Unnamed-f5cc52c21d9ee4cbe7dc24105a510147'
p517
(lp518
S'ARCV.7-aab221df86bd7f8bf08a26c4657f6690'
p519
asg281
(lp520
S'VGEN.756.252-994f2f6e568ad8c7a27c39fe9583f7b5'
p521
asg260
(lp522
S'VGEN.756.252-994f2f6e568ad8c7a27c39fe9583f7b5'
p523
asg481
(lp524
S'MPC.Unnamed.2-b705c59a2254540755b057d47cfc21a9'
p525
ag525
aS'ARCV.7-aab221df86bd7f8bf08a26c4657f6690'
p526
asS'Cybertech'
p527
(lp528
S'VGEN.483.0-f62965a575f415bdc4157379959aaea7'
p529
asg332
(lp530
S'Vienna.5520-541ca2a048348027bcc48acb0c0cf291'
p531
aS'VGEN.756.252-994f2f6e568ad8c7a27c39fe9583f7b5'
p532
asS'Amstrad.2-452cf8df84b19f6c5ae2b718abe0bdd4'
p533
(lp534
S'Small.130.gen-0717eece4b240bd1595898e937fb8ff4'
p535
ag535
asS'Boot'
p536
(lp537
S'Immortal-c8fae4a61d546dc39724f86a15549724'
p538
ag459
ag469
aS'Stoned.A-7be8f26b5e1cf682e8c57afec4acfac7'
p539
asg303
(lp540
S'VGEN.51431-d60bc81569384d7906401a8f0339aa3c'
p541
aS'VGEN.3170.512-61d9fa137915c5dc94090526b0667fc3'
p542
aS'PS.MPC.Doggy-3559b3c266bfa58e27d9f91ae91959d5'
p543
aS'ARCV.7-aab221df86bd7f8bf08a26c4657f6690'
p544
asg331
(lp545
S'Vienna.637-c775109398ab6829b651ad419e91b9f5'
p546
asS'Spyer.2-cc937bff648458d5ae26c2376588bfc2'
p547
(lp548
S'Small.130.gen-1170570be704495c57a19695dcd3b27a'
p549
ag549
asg282
(lp550
S'VGEN.51431-d60bc81569384d7906401a8f0339aa3c'
p551
aS'ARCV.7-aab221df86bd7f8bf08a26c4657f6690'
p552
asS'AntiPas'
p553
(lp554
g46
asS'MPC.Unnamed-6d6103b0446ab0f3577820dae217a409'
p555
(lp556
S'ARCV.7-aab221df86bd7f8bf08a26c4657f6690'
p557
asS'DOS'
p558
(lp559
g133
aS'Vgen.43227-821b32c0336ca4a1cd985c42335b67ce'
p560
aS'Not-e72fc371ee5ea6375cbfc3e95a3409e9'
p561
aS'C.Virus.6-fe89f76796b71b3d814a2ffae40d8ddb'
p562
aS'Constructor.THCK.2_0-6574407f2d0fe25b290bf7f6f8f8b3f2'
p563
asg490
(lp564
S'MPC.Unnamed.2-b705c59a2254540755b057d47cfc21a9'
p565
ag565
aS'MPCP.1-ff6215819f95c736af5967039603e701'
p566
asS'Frisk.4-6fe8af107b28d16a3f5ccd85817c1572'
p567
(lp568
S'VirusD-6596f490bc1ab9a9b881362f009ed01d'
p569
asg330
(lp570
S'Vienna.5520-541ca2a048348027bcc48acb0c0cf291'
p571
asS'Arcv'
p572
(lp573
S'PSMPC.5652-aa3fed94ad917764a167ac93562ab236'
p574
ag517
aS'PS.MPC.Gen.3-9e4b2ea2c8e60ed910484a1dd81ae12f'
p575
aS'PSMPC.5652-d6f7059699a212cc1fe7a01ac5ed2b9f'
p576
aS'PSMPC.5652-5c2cf4d58bb953b0c8bde4cc4c2cd86e'
p577
aS'_0523_0001_001-6ea93a9a1bf2eadb4913b589ec6be2f9'
p578
aS'MPC.Unnamed-03f69ebad5f21840637b97f06375c03f'
p579
aS'PSMPC.5652-97ac1006d7d3a03c0bae38fa755e93e8'
p580
aS'PSMPC.5652-8225e6cbc96792b5e89e9f8c15a14fb5'
p581
aS'PSMPC.5652-e4f070134a6b804507d939d46615b356'
p582
aS'MPC1a.5-2621fda346a8bb1278189fb5a83d8a44'
p583
aS'PSMPC.5652-b0fa428ed4641c06d50d4ba72100bf98'
p584
ag555
aS'PSMPC.5652-a8d5bf1cc1d1c53018df369683730223'
p585
aS'PS.MPC.Z10-48aba37b311a35a9da0502104c5b752c'
p586
ag491
aS'PS.MPC.Z10-98bac47b20b7871752d3de7b201ad924'
p587
aS'PSMPC.5652-0a2f4092b9d8643b189028d4d42d2c1c'
p588
aS'PSMPC.5652-743974ae344ec72daf75c448cad420a2'
p589
aS'PSMPC.5652-2e1017c5674f0f15b6a637731f69df04'
p590
aS'PSMPC.5652-0a81ae6f830c74ed28bc41ae12e61229'
p591
aS'PSMPC.5652-9a858c494f491f9df2aa1707687d9a31'
p592
aS'MPC.Unnamed-4c7f38c7c6b5aa62a301de5658ecc39d'
p593
aS'PSMPC.5652-d4c9e5dc58b9b0a7178769c79aabdea3'
p594
aS'PS.MPC.Gen.3-5d0b8fed65a822c2efba011f5652f47e'
p595
aS'PSMPC.5652-a8d16236327c58668006c74caa22e685'
p596
aS'PSMPC.5652-bbf6442863c70cc7e84104f2b700be44'
p597
aS'PS.MPC.349-84cc39b8e8d243a214c725263524c177'
p598
aS'MPC.Unnamed-2a25163ba066d1d2fce0e4e5c4080b2d'
p599
ag49
aS'_0235_0001_002-1e93e0c5d5020ca05c31f1bdfd02ed99'
p600
ag96
aS'G2.based-d229d988711bd4059d475555c2ebe427'
p601
aS'_0242_0001_002-cc8def98193b790a59994c4594fa0123'
p602
aS'MPC.Unnamed-820652b98a71f7338d02206b4f63dbcd'
p603
asg265
(lp604
S'VGEN.116.0-f1db6a987680852fc704553130eaa798'
p605
asg266
(lp606
S'VGEN.168.0-aa0c2944c9e0c8dcbc852206f3cefc57'
p607
asg204
(lp608
S'Yanshort.1961-b90d5a7a46bafda92131cd4fc92f81fc'
p609
asg163
(lp610
S'Ash.737-46a71152b7a7780127c6043015767857'
p611
asS'Spyer.2-2d5d36fe88a1825d9863a132a5c02703'
p612
(lp613
S'Small.130.gen-1170570be704495c57a19695dcd3b27a'
p614
ag614
asg487
(lp615
S'MPC.Unnamed.2-b705c59a2254540755b057d47cfc21a9'
p616
ag616
aS'ARCV.7-aab221df86bd7f8bf08a26c4657f6690'
p617
asS'TinyFamily2'
p618
(lp619
S'Tiny.155-5cc92dd27252cee24bcff674291cc232'
p620
aS'Tiny.155-bf95a76fb8b4df4dffa1317c51da2788'
p621
asg482
(lp622
S'MPC.Unnamed.2-b705c59a2254540755b057d47cfc21a9'
p623
ag623
asg529
(lp624
S'CyberTech.2-64f43224cea103be83f2e15ad7aa0b74'
p625
asg561
(lp626
S'DOS..10842-6bb04ad8b3c7f6ffe3cd596273003db2'
p627
aS'C.Virus.6-fe89f76796b71b3d814a2ffae40d8ddb'
p628
asS'Gen'
p629
(lp630
g357
aS'Small.130.gen-ed40f12fd551e79f7f5b5ba9dfe0d1b3'
p631
asg287
(lp632
S'VGEN.51431-d60bc81569384d7906401a8f0339aa3c'
p633
aS'ARCV.7-aab221df86bd7f8bf08a26c4657f6690'
p634
asS'Magnitogorsk'
p635
(lp636
S'Helloween.4-2aa5c697aa81dfd4eaada29289d6c5bb'
p637
asg483
(lp638
S'MPC.Unnamed.2-b705c59a2254540755b057d47cfc21a9'
p639
ag639
aS'ARCV.7-aab221df86bd7f8bf08a26c4657f6690'
p640
asg439
(lp641
S'USSR.948.B-f6e0d5b5e2141c1a7f1741ad5389a044'
p642
asg293
(lp643
S'VGEN.116.0-f1db6a987680852fc704553130eaa798'
p644
asg298
(lp645
S'VGEN.116.0-f1db6a987680852fc704553130eaa798'
p646
asS'NRLG-6b0f168c6831f062d9d4e4ef2fc11a31'
p647
(lp648
S'VirusD-6596f490bc1ab9a9b881362f009ed01d'
p649
asg444
(lp650
S'USSR.1049.D-1fd9db2bb61ff9af5e446e6da8259390'
p651
asg337
(lp652
S'PS.MPC.Doggy-3559b3c266bfa58e27d9f91ae91959d5'
p653
aS'ARCV.7-aab221df86bd7f8bf08a26c4657f6690'
p654
asS'CaptainTrips'
p655
(lp656
S'Jerusalem.USA-025bb92ed5fe6eae30b59b8b7262cb8f'
p657
asg299
(lp658
S'Vgen.6291-491ea62ff1e267f7d43d01153eb6687b'
p659
asS'Burger.560.A15-757880750744ebe31ddc0c87f571d325'
p660
(lp661
S'Virdem.Family-7164cc08c6375d65fa4b67a0b67fd3c6'
p662
asS'Silly'
p663
(lp664
S'Pixel.936-9ed2a2a0045749b3f4922f407397a5b0'
p665
asS'ChristmasViolator'
p666
(lp667
S'Parasite.A-1e2c29d0f0d0756afe41661d1130e9fa'
p668
asS'Small'
p669
(lp670
g473
aS'Polish.583-ebda928540491158e42e7fb1630caa76'
p671
ag218
ag547
aS'Vienna.2-ea8e8997c56e5fedcb890bf77217fab2'
p672
ag104
ag383
aS'Violator.1-91c1a9584a84b48aeed91787ffdcf62f'
p673
ag533
ag612
ag143
ag404
asg151
(lp674
S'Leprosy.H-76f25842e79c29cb7b294331922b2afb'
p675
asg488
(lp676
S'MPC.Unnamed.2-b705c59a2254540755b057d47cfc21a9'
p677
ag677
aS'ARCV.7-aab221df86bd7f8bf08a26c4657f6690'
p678
asS'G2'
p679
(lp680
S'PS.MPC.349-84cc39b8e8d243a214c725263524c177'
p681
asg603
(lp682
S'ARCV.7-aab221df86bd7f8bf08a26c4657f6690'
p683
asS'CaptainTrips-7739255736ee3d22e0eb537422df4ef2'
p684
(lp685
S'Jerusalem.USA-9dc251ed821324513d5190430ed0b1b3'
p686
asS'Setrculius'
p687
(lp688
g505
asg326
(lp689
S'Vienna.5520-541ca2a048348027bcc48acb0c0cf291'
p690
aS'VGEN.756.252-994f2f6e568ad8c7a27c39fe9583f7b5'
p691
asg489
(lp692
S'MPC.Unnamed.2-b705c59a2254540755b057d47cfc21a9'
p693
ag693
asg485
(lp694
S'MPC.Unnamed.2-b705c59a2254540755b057d47cfc21a9'
p695
ag695
asg257
(lp696
S'VGEN.51431-d60bc81569384d7906401a8f0339aa3c'
p697
asg514
(lp698
S'Nina.B-24dfd9226e022c82b9ddb0e1e18169bb'
p699
asg441
(lp700
S'USSR.1049.D-1fd9db2bb61ff9af5e446e6da8259390'
p701
asg275
(lp702
S'Vgen.6291-491ea62ff1e267f7d43d01153eb6687b'
p703
aS'Leprosy.8-2f9d6ba7542e2b0cf045ade61940dcbf'
p704
asg657
(lp705
S'CaptainTrips-7739255736ee3d22e0eb537422df4ef2'
p706
asS'Pascal'
p707
(lp708
g24
asg484
(lp709
S'MPC.Unnamed.2-b705c59a2254540755b057d47cfc21a9'
p710
ag710
aS'ARCV.7-aab221df86bd7f8bf08a26c4657f6690'
p711
asg672
(lp712
S'Small.130.gen-e9ac3487d509907b6ef4d82122830947'
p713
asg563
(lp714
S'DOS..10842-6bb04ad8b3c7f6ffe3cd596273003db2'
p715
asg31
(lp716
S'Flash.Gyorgy-46ae0cde6e57aefb123e17a0a49199eb'
p717
aS'Vgen.6291-491ea62ff1e267f7d43d01153eb6687b'
p718
asg274
(lp719
S'VGEN.97.0-6c2e4718011d397f6b1a9b9dac3f3845'
p720
asg637
(lp721
S'Magnitogorsk.1-a8c3ad3ffda11bdcb1ddbe1829807148'
p722
aS'VGEN.119.256-f9f5271a8f78e1f60b141ce0e19476cc'
p723
asg267
(lp724
S'VGEN.119.256-f9f5271a8f78e1f60b141ce0e19476cc'
p725
asg328
(lp726
S'Vienna.637-c775109398ab6829b651ad419e91b9f5'
p727
aS'Small.130.gen-e9ac3487d509907b6ef4d82122830947'
p728
aS'VGEN.198.0-7a23d6adac3779689fb2a29acb34377c'
p729
asg325
(lp730
S'Vienna.637-c775109398ab6829b651ad419e91b9f5'
p731
asg164
(lp732
S'Ash.737-46a71152b7a7780127c6043015767857'
p733
asg226
(lp734
S'CivilWar.144-3a9df89c4dc0dc8b92e27407c4ccf2b3'
p735
asS'Greemlin-b6fe8b1c8c4c7b36a0aa7239a8d57b2a'
p736
(lp737
S'Dark.Avenger.1063-eedffc4ecd2678a61617f162a650f8cc'
p738
asS'CaptainTrips-cd1145d3ecfc98303b25eaf1c1c94d5a'
p739
(lp740
S'Jerusalem.USA-9dc251ed821324513d5190430ed0b1b3'
p741
aS'GP.1.A-a59958bd4e6b7e49450001e5602af42c'
p742
asS'Chemist'
p743
(lp744
g107
asS'Tic'
p745
(lp746
S'Squawk.1-ab402d66be9bc452dd759eda49352d44'
p747
asg292
(lp748
S'VGEN.756.252-994f2f6e568ad8c7a27c39fe9583f7b5'
p749
asg300
(lp750
S'VGEN.168.0-aa0c2944c9e0c8dcbc852206f3cefc57'
p751
asg435
(lp752
S'S.Vir.4-000a50c55a2f4517d2e27b21f4b27e3b'
p753
asg285
(lp754
S'Vgen.23616-9c134558cc96aafd26bed8d7bf28f167'
p755
aS'VCL.based.trojan-cc985764449d2a84c69de92a30606f13'
p756
asS'VirusD'
p757
(lp758
g647
ag567
asS'GP'
p759
(lp760
S'CaptainTrips-cd1145d3ecfc98303b25eaf1c1c94d5a'
p761
asg443
(lp762
S'USSR.948.B-f6e0d5b5e2141c1a7f1741ad5389a044'
p763
asS'CaptainTrips-2fcb3c514b92b50982ad655b1acc466d'
p764
(lp765
S'Jerusalem.USA-9dc251ed821324513d5190430ed0b1b3'
p766
asg283
(lp767
S'VGEN.756.252-994f2f6e568ad8c7a27c39fe9583f7b5'
p768
asS'Dark'
p769
(lp770
g376
ag497
ag736
asg211
(lp771
S'AntiCAD.4096-7888ff3296772236001e6b78120b29bf'
p772
asg296
(lp773
S'Vgen.1334-867b568ab3a6862e0ea8e114202d5143'
p774
aS'VGEN.53.6-9cee5eb6919d17c0241c72c979fe15d7'
p775
asS'HD'
p776
(lp777
g55
asg288
(lp778
S'VGEN.168.0-aa0c2944c9e0c8dcbc852206f3cefc57'
p779
asg30
(lp780
S'Flash.Gyorgy-46ae0cde6e57aefb123e17a0a49199eb'
p781
aS'Vgen.6291-491ea62ff1e267f7d43d01153eb6687b'
p782
aS'Friday.13th.C-a0167e004b2515308007884a79f00b98'
p783
asg280
(lp784
S'VGEN.116.0-f1db6a987680852fc704553130eaa798'
p785
asg354
(lp786
S'Darth.255.b-8b36728bb5565e86d4fb180da410480b'
p787
asg327
(lp788
S'Vienna.637-c775109398ab6829b651ad419e91b9f5'
p789
asg665
(lp790
S'Silly.215-966b12c9dd0483869332a09ab4577d5b'
p791
asg259
(lp792
S'VGEN.51431-d60bc81569384d7906401a8f0339aa3c'
p793
aS'ARCV.7-aab221df86bd7f8bf08a26c4657f6690'
p794
asg4
(lp795
S'TinyFamily1-16c5bd1b3021dd722656499f4a545097'
p796
aS'TinyFamily2-059bf52023ad1c27fde8a4765065e90a'
p797
asg562
(lp798
S'DOS..10842-6bb04ad8b3c7f6ffe3cd596273003db2'
p799
asS'December24th'
p800
(lp801
g78
asg631
(lp802
S'Gen.905.A-27e61cc24788a5c76298e92f5637b12e'
p803
asg148
(lp804
S'Dropper.5-3ba44d50e579bb25acb5ea8da42bc1a0'
p805
asg232
(lp806
S'Rosen-dbc6e8391a7d2a7130476ff78a52667c'
p807
asg192
(lp808
S'TaiPan.438.A-678c648733b2b830102e5aa89b9bc897'
p809
asg329
(lp810
S'Vienna.637-c775109398ab6829b651ad419e91b9f5'
p811
aS'ChristmasViolator-c8b2520ea6a950366b4c583c13efa567'
p812
asg438
(lp813
S'USSR.1049.D-1fd9db2bb61ff9af5e446e6da8259390'
p814
asg322
(lp815
S'BlackMonday.4-8487d0aa0b8f302e3e09589ab30ab9c1'
p816
asS'TinyDI.111-e85a4afa25d0b12eb797015175c794d1'
p817
(lp818
S'Mini.127a-23d06ef2e762827d0e2064d7139a6745'
p819
asS'Sunday.4-3039342faca53ccf1b1751265330c40f'
p820
(lp821
S'Jerusalem.USA-9dc251ed821324513d5190430ed0b1b3'
p822
asS'Mini'
p823
(lp824
g817
aS'Rosen-dbc6e8391a7d2a7130476ff78a52667c'
p825
ag314
aS'Tiny.Mutant-5bd7937616d085c11978cbd9b9823e6d'
p826
asg256
(lp827
S'VGEN.51431-d60bc81569384d7906401a8f0339aa3c'
p828
aS'VGEN.70.3-be59883d55bc80760d7474e9be3bf4d0'
p829
aS'ARCV.7-aab221df86bd7f8bf08a26c4657f6690'
p830
asg250
(lp831
S'Overdoze.472-2ce5cd74150d1dc7623b1ca9029877b2'
p832
asg63
(lp833
S'Pixel.296-0544391f2892dada6433d211f09db7bb'
p834
asS'Amstrad'
p835
(lp836
g466
aS'Pixel.296-6c9813485d42fc779480aad903559a79'
p837
asS'Virdem'
p838
(lp839
g502
ag660
asS'Sunday.4-adbb647b2c7198c36be1e31cac0bed9f'
p840
(lp841
S'Jerusalem.USA-9dc251ed821324513d5190430ed0b1b3'
p842
asg277
(lp843
S'VGEN.97.0-6c2e4718011d397f6b1a9b9dac3f3845'
p844
asg254
(lp845
S'VGEN.116.0-f1db6a987680852fc704553130eaa798'
p846
asg273
(lp847
S'VGEN.168.0-aa0c2944c9e0c8dcbc852206f3cefc57'
p848
asg203
(lp849
S'Yanshort.1961-b90d5a7a46bafda92131cd4fc92f81fc'
p850
asg442
(lp851
S'USSR.1049.D-1fd9db2bb61ff9af5e446e6da8259390'
p852
asg334
(lp853
S'Vienna.637-c775109398ab6829b651ad419e91b9f5'
p854
aS'Small.130.gen-e9ac3487d509907b6ef4d82122830947'
p855
asg747
(lp856
S'Tic.1-f6319f0ff84aca54d5a26858aee087ce'
p857
aS'USSR.948.B-f6e0d5b5e2141c1a7f1741ad5389a044'
p858
asg538
(lp859
S'Boot.D.A.S-130f01221a6fdbb0b3e08113957d5616'
p860
asS'Jerusalem'
p861
(lp862
g74
ag739
ag494
ag764
ag317
ag428
ag14
ag820
ag840
ag684
aS'Sunday.4-e55ecdb60b691148f0eac43a17594c5b'
p863
asS'VCL'
p864
(lp865
S'Mosquito.1-776f1d9c7b274822adcd7b5136394af4'
p866
asg863
(lp867
S'Jerusalem.USA-9dc251ed821324513d5190430ed0b1b3'
p868
asg560
(lp869
S'DOS.Drawn-c35c3df567b811b2eb6f7e416b6943e7'
p870
as.