(dp0
S'14.1.2-bb50eab41b5b5da6811b498ba787ebd0.raw'
p1
(lp2
S'3-87937439c24a34f5eaef3422a3424d54.raw'
p3
asS'14.1.2-ae4652b546a10c092c22036bbc0db641.raw'
p4
(lp5
S'3-87937439c24a34f5eaef3422a3424d54.raw'
p6
asS'14.1.2-883516c63f6ca421f208f02e0a53dfda.raw'
p7
(lp8
S'3-87937439c24a34f5eaef3422a3424d54.raw'
p9
asS'14.1.2-545358c4de6b0f3b7a4ae540ccf16732.raw'
p10
(lp11
S'3-87937439c24a34f5eaef3422a3424d54.raw'
p12
asS'14.1.2-c3b69b7940ffab4f7ab1c6776621c174.raw'
p13
(lp14
S'3-87937439c24a34f5eaef3422a3424d54.raw'
p15
asS'3'
p16
(lp17
g7
aS'14.1.2-a83d8b396c494895f572bc3988952a7c.raw'
p18
ag13
ag4
ag1
aS'14.1.2-ad85fd04665793ec30b30cd2c7952ce0.raw'
p19
aS'14.1.2-ab5267f5c1bd6b8ec1b52aabccb083a7.raw'
p20
aS'14.1.2-c2ebd8e7c451ee66d3be2c0d4bc8fa3a.raw'
p21
ag10
aS'14.1.2-29303771b81258c99d79d852ad1bb56d.raw'
p22
asg20
(lp23
S'3-87937439c24a34f5eaef3422a3424d54.raw'
p24
asg22
(lp25
S'3-87937439c24a34f5eaef3422a3424d54.raw'
p26
asg21
(lp27
S'3-87937439c24a34f5eaef3422a3424d54.raw'
p28
asg19
(lp29
S'3-87937439c24a34f5eaef3422a3424d54.raw'
p30
asg18
(lp31
S'3-87937439c24a34f5eaef3422a3424d54.raw'
p32
as.