(dp0
S'11'
p1
(lp2
S'11-8d3ab9604c4b711df7a62725e00d200f.raw'
p3
asS'8-2f949a63fccdb4458a081aa33172b0a0.raw'
p4
(lp5
S'2-3175eb2416c74a21578880850279a9b9.raw,1.72549019608'
p6
asS'8-6c5b9065372dddec27eb4fb49fe160d8.raw'
p7
(lp8
S'2-3175eb2416c74a21578880850279a9b9.raw,1.73148148148'
p9
asS'8-4ec0c06a0e1c517206431c8b8e173fd5.raw'
p10
(lp11
S'2-3175eb2416c74a21578880850279a9b9.raw,1.72641509434'
p12
asS'8-0b7d99c126630c338d6dc51fc387d0b8.raw'
p13
(lp14
S'2-0914a08287845112141cf3563170b8c0.raw,1.74468085106'
p15
asS'8-0b24deaba05f352d96b58df0ffac475a.raw'
p16
(lp17
S'2-3175eb2416c74a21578880850279a9b9.raw,1.72641509434'
p18
asS'8'
p19
(lp20
g7
ag13
ag10
aS'8-ddc13f738bfde488e90a7ef5a71a6db1.raw'
p21
ag16
ag4
asg21
(lp22
S'2-0914a08287845112141cf3563170b8c0.raw,1.74226804124'
p23
asg3
(lp24
S'20-1dc8b8cf46b4a7cef873e8cbb3ea481f.raw,1.61538461538'
p25
as.