(lp1
S'../profiler/worm/exp-20110121-normal-n-worm/dataset/100-213.76.212.22-17.1434'
p2
aS'../profiler/worm/exp-20110121-normal-n-worm/dataset/100-218.232.95.60-17.1434'
p3
a.(lp1
(lp2
F0.25210084033613445
aa(lp3
a.