(dp0
S'65-solarisx86shell_find_port.exe'
p1
(lp2
S'63-windowsupexecbind_nonx_tcp.exe,0.943262411348'
p3
aS'61-windowsshellreverse_nonx_tcp.raw,0.941489361702'
p4
aS'62-windowsvncinjectreverse_http.exe,1.0'
p5
aS'61-windowsshellreverse_ord_tcp.raw,0.936170212766'
p6
aS'61-windowsshellbind_ipv6_tcp.raw,0.977961432507'
p7
aS'62-windowsshellreverse_tcp.c,1.0'
p8
aS'62-windowsvncinjectreverse_tcp_dns.exe,0.99990907231'
p9
aS'62-windowsvncinjectbind_nonx_tcp.exe,0.999954741916'
p10
aS'62-windowsvncinjectreverse_tcp.exe,0.999977301616'
p11
aS'62-windowsvncinjectfind_tag.exe,0.999864173496'
p12
aS'62-windowsvncinjectreverse_ipv6_http.exe,0.999954570234'
p13
aS'61-windowsshellreverse_tcp_allports.raw,0.972602739726'
p14
aS'62-windowsvncinjectreverse_nonx_tcp.exe,0.99990968412'
p15
aS'60-windowsshell_bind_tcp_xpfw.exe,0.999932123626'
p16
aS'62-windowsvncinjectbind_tcp.exe,1.0'
p17
asS'61-windowsshellreverse_tcp.raw'
p18
(lp19
S'63-windowsupexecbind_nonx_tcp.exe,0.972413793103'
p20
aS'62-windowsvncinjectreverse_http.exe,1.0'
p21
aS'62-windowsshellreverse_tcp.c,1.0'
p22
aS'62-windowsvncinjectreverse_tcp_dns.exe,0.993998772476'
p23
aS'62-windowsvncinjectbind_nonx_tcp.exe,1.0'
p24
aS'62-windowsvncinjectreverse_tcp.exe,0.993576357363'
p25
aS'62-windowsvncinjectfind_tag.exe,1.0'
p26
aS'62-windowsvncinjectreverse_ipv6_http.exe,1.0'
p27
aS'62-windowsvncinjectreverse_nonx_tcp.exe,0.999774210301'
p28
aS'66-linuxx86shell_reverse_tcp2.exe,0.948275862069'
p29
aS'60-windowsshell_bind_tcp_xpfw.exe,1.0'
p30
aS'62-windowsvncinjectbind_tcp.exe,0.994354141055'
p31
asS'64-windowsdllinjectbind_nonx_tcp.exe'
p32
(lp33
S'61-windowsshellreverse_nonx_tcp.raw,0.957446808511'
p34
aS'62-windowsvncinjectreverse_http.exe,0.999818132218'
p35
aS'61-windowsshellreverse_ord_tcp.raw,0.923076923077'
p36
aS'61-windowsshellbind_ipv6_tcp.raw,0.977961432507'
p37
aS'62-windowsshellreverse_tcp.c,0.990686845169'
p38
aS'62-windowsvncinjectreverse_tcp_dns.exe,0.99981814462'
p39
aS'62-windowsvncinjectbind_nonx_tcp.exe,0.999818967663'
p40
aS'62-windowsvncinjectreverse_tcp.exe,0.999818412929'
p41
aS'62-windowsvncinjectfind_tag.exe,0.999818897994'
p42
aS'62-windowsvncinjectreverse_ipv6_http.exe,0.999818280938'
p43
aS'61-windowsshellreverse_tcp_allports.raw,0.972602739726'
p44
aS'62-windowsvncinjectreverse_nonx_tcp.exe,0.99981936824'
p45
aS'66-linuxx86shell_reverse_tcp2.exe,0.934426229508'
p46
aS'60-windowsshell_bind_tcp_xpfw.exe,0.999818996335'
p47
aS'62-windowsvncinjectbind_tcp.exe,0.999817875518'
p48
asS'66-linuxx86shell_find_port.exe'
p49
(lp50
S'63-windowsupexecbind_nonx_tcp.exe,0.931034482759'
p51
aS'61-windowsshellreverse_nonx_tcp.raw,0.946808510638'
p52
aS'62-windowsvncinjectreverse_http.exe,0.999977266527'
p53
aS'61-windowsshellreverse_ord_tcp.raw,0.922413793103'
p54
aS'61-windowsshellbind_ipv6_tcp.raw,0.97520661157'
p55
aS'62-windowsshellreverse_tcp.c,1.0'
p56
aS'62-windowsvncinjectreverse_tcp_dns.exe,0.999863608465'
p57
aS'62-windowsvncinjectbind_nonx_tcp.exe,0.999886854789'
p58
aS'62-windowsvncinjectreverse_tcp.exe,0.999886508081'
p59
aS'62-windowsvncinjectfind_tag.exe,0.999977362249'
p60
aS'62-windowsvncinjectreverse_ipv6_http.exe,0.999909140469'
p61
aS'61-windowsshellreverse_tcp_allports.raw,0.972602739726'
p62
aS'62-windowsvncinjectreverse_nonx_tcp.exe,0.99990968412'
p63
aS'60-windowsshell_bind_tcp_xpfw.exe,0.999909498167'
p64
aS'62-windowsvncinjectbind_tcp.exe,0.99997723444'
p65
asS'62-windowsvncinjectreverse_ipv6_http.exe'
p66
(lp67
S'63-windowsupexecbind_nonx_tcp.exe,0.999818280938'
p68
aS'61-windowsshellreverse_nonx_tcp.raw,0.999704706524'
p69
aS'61-windowsshellreverse_ord_tcp.raw,0.999522987461'
p70
aS'61-windowsshellbind_ipv6_tcp.raw,0.999318553516'
p71
aS'61-windowsshellreverse_tcp_allports.raw,0.996729056878'
p72
aS'66-linuxx86shell_reverse_tcp2.exe,0.99959113211'
p73
asS'65-solarisx86shell_reverse_tcp.exe'
p74
(lp75
S'63-windowsupexecbind_nonx_tcp.exe,0.94701986755'
p76
aS'61-windowsshellreverse_nonx_tcp.raw,0.909574468085'
p77
aS'62-windowsvncinjectreverse_http.exe,1.0'
p78
aS'61-windowsshellreverse_ord_tcp.raw,0.920529801325'
p79
aS'61-windowsshellbind_ipv6_tcp.raw,0.961432506887'
p80
aS'62-windowsshellreverse_tcp.c,1.0'
p81
aS'62-windowsvncinjectreverse_tcp_dns.exe,0.999954536155'
p82
aS'62-windowsvncinjectbind_nonx_tcp.exe,0.999909483832'
p83
aS'62-windowsvncinjectreverse_tcp.exe,0.999886508081'
p84
aS'62-windowsvncinjectfind_tag.exe,1.0'
p85
aS'62-windowsvncinjectreverse_ipv6_http.exe,0.999954570234'
p86
aS'61-windowsshellreverse_tcp_allports.raw,0.958904109589'
p87
aS'62-windowsvncinjectreverse_nonx_tcp.exe,0.99979678927'
p88
aS'60-windowsshell_bind_tcp_xpfw.exe,0.999909498167'
p89
aS'62-windowsvncinjectbind_tcp.exe,1.0'
p90
asS'61-windowsshellreverse_ipv6_http.raw'
p91
(lp92
S'63-windowsupexecbind_nonx_tcp.exe,0.977011494253'
p93
aS'62-windowsvncinjectreverse_http.exe,1.0'
p94
aS'62-windowsshellreverse_tcp.c,1.0'
p95
aS'62-windowsvncinjectreverse_tcp_dns.exe,0.996067377418'
p96
aS'62-windowsvncinjectbind_nonx_tcp.exe,1.0'
p97
aS'62-windowsvncinjectreverse_tcp.exe,0.996254766661'
p98
aS'62-windowsvncinjectfind_tag.exe,1.0'
p99
aS'62-windowsvncinjectreverse_ipv6_http.exe,1.0'
p100
aS'62-windowsvncinjectreverse_nonx_tcp.exe,0.99988710515'
p101
aS'66-linuxx86shell_reverse_tcp2.exe,0.971264367816'
p102
aS'60-windowsshell_bind_tcp_xpfw.exe,1.0'
p103
aS'62-windowsvncinjectbind_tcp.exe,0.99653963484'
p104
asS'63-windowsupexecreverse_tcp_dns.exe'
p105
(lp106
S'61-windowsshellreverse_nonx_tcp.raw,0.957446808511'
p107
aS'62-windowsvncinjectreverse_http.exe,0.999818132218'
p108
aS'61-windowsshellreverse_ord_tcp.raw,0.923076923077'
p109
aS'61-windowsshellbind_ipv6_tcp.raw,0.977961432507'
p110
aS'62-windowsshellreverse_tcp.c,0.990686845169'
p111
aS'62-windowsvncinjectreverse_tcp_dns.exe,0.99981814462'
p112
aS'62-windowsvncinjectbind_nonx_tcp.exe,0.999818967663'
p113
aS'62-windowsvncinjectreverse_tcp.exe,0.999818412929'
p114
aS'62-windowsvncinjectfind_tag.exe,0.999818897994'
p115
aS'62-windowsvncinjectreverse_ipv6_http.exe,0.999818280938'
p116
aS'61-windowsshellreverse_tcp_allports.raw,0.972602739726'
p117
aS'62-windowsvncinjectreverse_nonx_tcp.exe,0.99981936824'
p118
aS'66-linuxx86shell_reverse_tcp2.exe,0.934426229508'
p119
aS'60-windowsshell_bind_tcp_xpfw.exe,0.999818996335'
p120
aS'62-windowsvncinjectbind_tcp.exe,0.999817875518'
p121
asS'62-windowsvncinjectbind_nonx_tcp.exe'
p122
(lp123
S'63-windowsupexecbind_nonx_tcp.exe,0.999818967663'
p124
aS'61-windowsshellreverse_nonx_tcp.raw,0.996650901767'
p125
aS'61-windowsshellreverse_ord_tcp.raw,0.999751080537'
p126
aS'61-windowsshellbind_ipv6_tcp.raw,0.999932112874'
p127
aS'61-windowsshellreverse_tcp_allports.raw,0.999343757779'
p128
aS'66-linuxx86shell_reverse_tcp2.exe,0.999841596705'
p129
asS'66-linuxx86shellreverse_nonx_tcp.exe'
p130
(lp131
S'63-windowsupexecbind_nonx_tcp.exe,0.923076923077'
p132
aS'61-windowsshellreverse_nonx_tcp.raw,0.893617021277'
p133
aS'62-windowsvncinjectreverse_http.exe,0.999954533054'
p134
aS'61-windowsshellreverse_ord_tcp.raw,0.884615384615'
p135
aS'61-windowsshellbind_ipv6_tcp.raw,0.97520661157'
p136
aS'62-windowsshellreverse_tcp.c,1.0'
p137
aS'62-windowsvncinjectreverse_tcp_dns.exe,0.999840876543'
p138
aS'62-windowsvncinjectbind_nonx_tcp.exe,0.999886854789'
p139
aS'62-windowsvncinjectreverse_tcp.exe,0.999818412929'
p140
aS'62-windowsvncinjectfind_tag.exe,0.999977362249'
p141
aS'62-windowsvncinjectreverse_ipv6_http.exe,0.999886425586'
p142
aS'61-windowsshellreverse_tcp_allports.raw,0.958904109589'
p143
aS'62-windowsvncinjectreverse_nonx_tcp.exe,0.999638736481'
p144
aS'60-windowsshell_bind_tcp_xpfw.exe,0.999864247251'
p145
aS'62-windowsvncinjectbind_tcp.exe,0.99997723444'
p146
asS'63-windowsupexecreverse_nonx_tcp.exe'
p147
(lp148
S'61-windowsshellreverse_nonx_tcp.raw,0.957446808511'
p149
aS'62-windowsvncinjectreverse_http.exe,0.999818132218'
p150
aS'61-windowsshellreverse_ord_tcp.raw,0.923076923077'
p151
aS'61-windowsshellbind_ipv6_tcp.raw,0.977961432507'
p152
aS'62-windowsshellreverse_tcp.c,0.990686845169'
p153
aS'62-windowsvncinjectreverse_tcp_dns.exe,0.99981814462'
p154
aS'62-windowsvncinjectbind_nonx_tcp.exe,0.999818967663'
p155
aS'62-windowsvncinjectreverse_tcp.exe,0.999818412929'
p156
aS'62-windowsvncinjectfind_tag.exe,0.999818897994'
p157
aS'62-windowsvncinjectreverse_ipv6_http.exe,0.999818280938'
p158
aS'61-windowsshellreverse_tcp_allports.raw,0.972602739726'
p159
aS'62-windowsvncinjectreverse_nonx_tcp.exe,0.99981936824'
p160
aS'66-linuxx86shell_reverse_tcp2.exe,0.934426229508'
p161
aS'60-windowsshell_bind_tcp_xpfw.exe,0.999818996335'
p162
aS'62-windowsvncinjectbind_tcp.exe,0.999817875518'
p163
asS'64-windowsdllinjectreverse_tcp_dns.exe'
p164
(lp165
S'61-windowsshellreverse_nonx_tcp.raw,0.957446808511'
p166
aS'62-windowsvncinjectreverse_http.exe,0.999818132218'
p167
aS'61-windowsshellreverse_ord_tcp.raw,0.923076923077'
p168
aS'61-windowsshellbind_ipv6_tcp.raw,0.977961432507'
p169
aS'62-windowsshellreverse_tcp.c,0.990686845169'
p170
aS'62-windowsvncinjectreverse_tcp_dns.exe,0.99981814462'
p171
aS'62-windowsvncinjectbind_nonx_tcp.exe,0.999818967663'
p172
aS'62-windowsvncinjectreverse_tcp.exe,0.999818412929'
p173
aS'62-windowsvncinjectfind_tag.exe,0.999818897994'
p174
aS'62-windowsvncinjectreverse_ipv6_http.exe,0.999818280938'
p175
aS'61-windowsshellreverse_tcp_allports.raw,0.972602739726'
p176
aS'62-windowsvncinjectreverse_nonx_tcp.exe,0.99981936824'
p177
aS'66-linuxx86shell_reverse_tcp2.exe,0.934426229508'
p178
aS'60-windowsshell_bind_tcp_xpfw.exe,0.999818996335'
p179
aS'62-windowsvncinjectbind_tcp.exe,0.999817875518'
p180
asS'61-windowsshell_bind_tcp.raw'
p181
(lp182
S'63-windowsupexecbind_nonx_tcp.exe,0.976945244957'
p183
aS'62-windowsvncinjectreverse_http.exe,1.0'
p184
aS'62-windowsshellreverse_tcp.c,1.0'
p185
aS'62-windowsvncinjectreverse_tcp_dns.exe,0.995476347435'
p186
aS'62-windowsvncinjectbind_nonx_tcp.exe,1.0'
p187
aS'62-windowsvncinjectreverse_tcp.exe,0.995505719993'
p188
aS'62-windowsvncinjectfind_tag.exe,1.0'
p189
aS'62-windowsvncinjectreverse_ipv6_http.exe,1.0'
p190
aS'62-windowsvncinjectreverse_nonx_tcp.exe,0.99986452618'
p191
aS'66-linuxx86shell_reverse_tcp2.exe,0.968299711816'
p192
aS'60-windowsshell_bind_tcp_xpfw.exe,1.0'
p193
aS'62-windowsvncinjectbind_tcp.exe,0.994832217821'
p194
asS'64-windowsdllinjectbind_tcp.exe'
p195
(lp196
S'61-windowsshellreverse_nonx_tcp.raw,0.957446808511'
p197
aS'62-windowsvncinjectreverse_http.exe,0.999818132218'
p198
aS'61-windowsshellreverse_ord_tcp.raw,0.923076923077'
p199
aS'61-windowsshellbind_ipv6_tcp.raw,0.977961432507'
p200
aS'62-windowsshellreverse_tcp.c,0.990686845169'
p201
aS'62-windowsvncinjectreverse_tcp_dns.exe,0.99981814462'
p202
aS'62-windowsvncinjectbind_nonx_tcp.exe,0.999818967663'
p203
aS'62-windowsvncinjectreverse_tcp.exe,0.999818412929'
p204
aS'62-windowsvncinjectfind_tag.exe,0.999818897994'
p205
aS'62-windowsvncinjectreverse_ipv6_http.exe,0.999818280938'
p206
aS'61-windowsshellreverse_tcp_allports.raw,0.972602739726'
p207
aS'62-windowsvncinjectreverse_nonx_tcp.exe,0.99981936824'
p208
aS'66-linuxx86shell_reverse_tcp2.exe,0.934426229508'
p209
aS'60-windowsshell_bind_tcp_xpfw.exe,0.999818996335'
p210
aS'62-windowsvncinjectbind_tcp.exe,0.999817875518'
p211
asS'64-windowsdllinjectreverse_ipv6_http.exe'
p212
(lp213
S'61-windowsshellreverse_nonx_tcp.raw,0.957446808511'
p214
aS'62-windowsvncinjectreverse_http.exe,0.999818132218'
p215
aS'61-windowsshellreverse_ord_tcp.raw,0.923076923077'
p216
aS'61-windowsshellbind_ipv6_tcp.raw,0.977961432507'
p217
aS'62-windowsshellreverse_tcp.c,0.990686845169'
p218
aS'62-windowsvncinjectreverse_tcp_dns.exe,0.99981814462'
p219
aS'62-windowsvncinjectbind_nonx_tcp.exe,0.999818967663'
p220
aS'62-windowsvncinjectreverse_tcp.exe,0.999818412929'
p221
aS'62-windowsvncinjectfind_tag.exe,0.999818897994'
p222
aS'62-windowsvncinjectreverse_ipv6_http.exe,0.999818280938'
p223
aS'61-windowsshellreverse_tcp_allports.raw,0.972602739726'
p224
aS'62-windowsvncinjectreverse_nonx_tcp.exe,0.99981936824'
p225
aS'66-linuxx86shell_reverse_tcp2.exe,0.934426229508'
p226
aS'60-windowsshell_bind_tcp_xpfw.exe,0.999818996335'
p227
aS'62-windowsvncinjectbind_tcp.exe,0.999817875518'
p228
asS'61-windowsshellfind_tag.raw'
p229
(lp230
S'63-windowsupexecbind_nonx_tcp.exe,0.922330097087'
p231
aS'62-windowsvncinjectreverse_http.exe,1.0'
p232
aS'62-windowsshellreverse_tcp.c,1.0'
p233
aS'62-windowsvncinjectreverse_tcp_dns.exe,0.999977268078'
p234
aS'62-windowsvncinjectbind_nonx_tcp.exe,1.0'
p235
aS'62-windowsvncinjectreverse_tcp.exe,1.0'
p236
aS'62-windowsvncinjectfind_tag.exe,1.0'
p237
aS'62-windowsvncinjectreverse_ipv6_http.exe,1.0'
p238
aS'62-windowsvncinjectreverse_nonx_tcp.exe,1.0'
p239
aS'66-linuxx86shell_reverse_tcp2.exe,0.926229508197'
p240
aS'60-windowsshell_bind_tcp_xpfw.exe,1.0'
p241
aS'62-windowsvncinjectbind_tcp.exe,1.0'
p242
asS'64-windowsdllinjectreverse_ord_tcp.exe'
p243
(lp244
S'61-windowsshellreverse_nonx_tcp.raw,0.957446808511'
p245
aS'62-windowsvncinjectreverse_http.exe,0.999818132218'
p246
aS'61-windowsshellreverse_ord_tcp.raw,0.923076923077'
p247
aS'61-windowsshellbind_ipv6_tcp.raw,0.977961432507'
p248
aS'62-windowsshellreverse_tcp.c,0.990686845169'
p249
aS'62-windowsvncinjectreverse_tcp_dns.exe,0.99981814462'
p250
aS'62-windowsvncinjectbind_nonx_tcp.exe,0.999818967663'
p251
aS'62-windowsvncinjectreverse_tcp.exe,0.999818412929'
p252
aS'62-windowsvncinjectfind_tag.exe,0.999818897994'
p253
aS'62-windowsvncinjectreverse_ipv6_http.exe,0.999818280938'
p254
aS'61-windowsshellreverse_tcp_allports.raw,0.972602739726'
p255
aS'62-windowsvncinjectreverse_nonx_tcp.exe,0.99981936824'
p256
aS'66-linuxx86shell_reverse_tcp2.exe,0.934426229508'
p257
aS'60-windowsshell_bind_tcp_xpfw.exe,0.999818996335'
p258
aS'62-windowsvncinjectbind_tcp.exe,0.999817875518'
p259
asS'62-windowsvncinjectreverse_ord_tcp.exe'
p260
(lp261
S'63-windowsupexecbind_nonx_tcp.exe,0.999818367579'
p262
aS'61-windowsshellreverse_nonx_tcp.raw,0.999523214894'
p263
aS'61-windowsshellreverse_ord_tcp.raw,0.997820410943'
p264
aS'61-windowsshellbind_ipv6_tcp.raw,0.999772959473'
p265
aS'61-windowsshellreverse_tcp_allports.raw,0.999159950051'
p266
aS'66-linuxx86shell_reverse_tcp2.exe,0.999682143263'
p267
asS'62-windowsvncinjectreverse_tcp_allports.exe'
p268
(lp269
S'63-windowsupexecbind_nonx_tcp.exe,0.999818869292'
p270
aS'61-windowsshellreverse_nonx_tcp.raw,0.999750945276'
p271
aS'61-windowsshellreverse_ord_tcp.raw,0.999456607875'
p272
aS'61-windowsshellbind_ipv6_tcp.raw,0.99952453189'
p273
aS'61-windowsshellreverse_tcp_allports.raw,0.993909479928'
p274
aS'66-linuxx86shell_reverse_tcp2.exe,0.999660379922'
p275
asS'60-windowsshell_bind_tcp.exe'
p276
(lp277
S'63-windowsupexecbind_nonx_tcp.exe,0.999818499444'
p278
aS'61-windowsshellreverse_nonx_tcp.raw,1.0'
p279
aS'62-windowsvncinjectreverse_http.exe,0.56'
p280
aS'61-windowsshellreverse_ord_tcp.raw,0.999954624861'
p281
aS'61-windowsshellbind_ipv6_tcp.raw,0.999636998888'
p282
aS'62-windowsshellreverse_tcp.c,1.0'
p283
aS'62-windowsvncinjectreverse_tcp_dns.exe,0.56'
p284
aS'62-windowsvncinjectbind_nonx_tcp.exe,0.59'
p285
aS'62-windowsvncinjectreverse_tcp.exe,0.59'
p286
aS'62-windowsvncinjectfind_tag.exe,0.59'
p287
aS'62-windowsvncinjectreverse_ipv6_http.exe,0.54'
p288
aS'61-windowsshellreverse_tcp_allports.raw,0.995893549924'
p289
aS'62-windowsvncinjectreverse_nonx_tcp.exe,0.6'
p290
aS'66-linuxx86shell_reverse_tcp2.exe,1.0'
p291
aS'62-windowsvncinjectbind_tcp.exe,0.56'
p292
asS'64-windowsdllinjectreverse_tcp.exe'
p293
(lp294
S'61-windowsshellreverse_nonx_tcp.raw,0.957446808511'
p295
aS'62-windowsvncinjectreverse_http.exe,0.999818132218'
p296
aS'61-windowsshellreverse_ord_tcp.raw,0.923076923077'
p297
aS'61-windowsshellbind_ipv6_tcp.raw,0.977961432507'
p298
aS'62-windowsshellreverse_tcp.c,0.990686845169'
p299
aS'62-windowsvncinjectreverse_tcp_dns.exe,0.99981814462'
p300
aS'62-windowsvncinjectbind_nonx_tcp.exe,0.999818967663'
p301
aS'62-windowsvncinjectreverse_tcp.exe,0.999818412929'
p302
aS'62-windowsvncinjectfind_tag.exe,0.999818897994'
p303
aS'62-windowsvncinjectreverse_ipv6_http.exe,0.999818280938'
p304
aS'61-windowsshellreverse_tcp_allports.raw,0.972602739726'
p305
aS'62-windowsvncinjectreverse_nonx_tcp.exe,0.99981936824'
p306
aS'66-linuxx86shell_reverse_tcp2.exe,0.934426229508'
p307
aS'60-windowsshell_bind_tcp_xpfw.exe,0.999818996335'
p308
aS'62-windowsvncinjectbind_tcp.exe,0.999817875518'
p309
asS'64-windowsdllinjectreverse_nonx_tcp.exe'
p310
(lp311
S'61-windowsshellreverse_nonx_tcp.raw,0.957446808511'
p312
aS'62-windowsvncinjectreverse_http.exe,0.999818132218'
p313
aS'61-windowsshellreverse_ord_tcp.raw,0.923076923077'
p314
aS'61-windowsshellbind_ipv6_tcp.raw,0.977961432507'
p315
aS'62-windowsshellreverse_tcp.c,0.990686845169'
p316
aS'62-windowsvncinjectreverse_tcp_dns.exe,0.99981814462'
p317
aS'62-windowsvncinjectbind_nonx_tcp.exe,0.999818967663'
p318
aS'62-windowsvncinjectreverse_tcp.exe,0.999818412929'
p319
aS'62-windowsvncinjectfind_tag.exe,0.999818897994'
p320
aS'62-windowsvncinjectreverse_ipv6_http.exe,0.999818280938'
p321
aS'61-windowsshellreverse_tcp_allports.raw,0.972602739726'
p322
aS'62-windowsvncinjectreverse_nonx_tcp.exe,0.99981936824'
p323
aS'66-linuxx86shell_reverse_tcp2.exe,0.934426229508'
p324
aS'60-windowsshell_bind_tcp_xpfw.exe,0.999818996335'
p325
aS'62-windowsvncinjectbind_tcp.exe,0.999817875518'
p326
asS'66-linuxx86shell_find_tag.exe'
p327
(lp328
S'63-windowsupexecbind_nonx_tcp.exe,0.934426229508'
p329
aS'61-windowsshellreverse_nonx_tcp.raw,0.952127659574'
p330
aS'62-windowsvncinjectreverse_http.exe,0.999931799582'
p331
aS'61-windowsshellreverse_ord_tcp.raw,0.926229508197'
p332
aS'61-windowsshellbind_ipv6_tcp.raw,0.972451790634'
p333
aS'62-windowsshellreverse_tcp.c,1.0'
p334
aS'62-windowsvncinjectreverse_tcp_dns.exe,0.999886340388'
p335
aS'62-windowsvncinjectbind_nonx_tcp.exe,0.999909483832'
p336
aS'62-windowsvncinjectreverse_tcp.exe,0.999886508081'
p337
aS'62-windowsvncinjectfind_tag.exe,0.999977362249'
p338
aS'62-windowsvncinjectreverse_ipv6_http.exe,0.999886425586'
p339
aS'61-windowsshellreverse_tcp_allports.raw,0.965753424658'
p340
aS'62-windowsvncinjectreverse_nonx_tcp.exe,0.99986452618'
p341
aS'60-windowsshell_bind_tcp_xpfw.exe,0.999841621793'
p342
aS'62-windowsvncinjectbind_tcp.exe,0.999931703319'
p343
asS'61-windowsshellbind_nonx_tcp.raw'
p344
(lp345
S'63-windowsupexecbind_nonx_tcp.exe,0.961722488038'
p346
aS'62-windowsvncinjectreverse_http.exe,1.0'
p347
aS'62-windowsshellreverse_tcp.c,1.0'
p348
aS'62-windowsvncinjectreverse_tcp_dns.exe,1.0'
p349
aS'62-windowsvncinjectbind_nonx_tcp.exe,1.0'
p350
aS'62-windowsvncinjectreverse_tcp.exe,1.0'
p351
aS'62-windowsvncinjectfind_tag.exe,1.0'
p352
aS'62-windowsvncinjectreverse_ipv6_http.exe,1.0'
p353
aS'62-windowsvncinjectreverse_nonx_tcp.exe,0.996680891418'
p354
aS'66-linuxx86shell_reverse_tcp2.exe,0.942583732057'
p355
aS'60-windowsshell_bind_tcp_xpfw.exe,1.0'
p356
aS'62-windowsvncinjectbind_tcp.exe,1.0'
p357
asS'60-windowsshell_bind_tcp_xpfw.exe'
p358
(lp359
S'63-windowsupexecbind_nonx_tcp.exe,0.999818651675'
p360
aS'61-windowsshellreverse_nonx_tcp.raw,1.0'
p361
aS'62-windowsvncinjectreverse_http.exe,0.45'
p362
aS'61-windowsshellreverse_ord_tcp.raw,0.999841320216'
p363
aS'61-windowsshellbind_ipv6_tcp.raw,0.996146348098'
p364
aS'62-windowsshellreverse_tcp.c,1.0'
p365
aS'62-windowsvncinjectreverse_tcp_dns.exe,0.45'
p366
aS'62-windowsvncinjectbind_nonx_tcp.exe,0.59'
p367
aS'62-windowsvncinjectreverse_tcp.exe,0.5'
p368
aS'62-windowsvncinjectfind_tag.exe,0.5'
p369
aS'62-windowsvncinjectreverse_ipv6_http.exe,0.46'
p370
aS'61-windowsshellreverse_tcp_allports.raw,0.999342612323'
p371
aS'62-windowsvncinjectreverse_nonx_tcp.exe,0.51'
p372
aS'66-linuxx86shell_reverse_tcp2.exe,1.0'
p373
aS'62-windowsvncinjectbind_tcp.exe,0.45'
p374
asS'60-windowsshellfind_tag.exe'
p375
(lp376
S'63-windowsupexecbind_nonx_tcp.exe,0.999818659897'
p377
aS'61-windowsshellreverse_nonx_tcp.raw,1.0'
p378
aS'62-windowsvncinjectreverse_http.exe,0.45'
p379
aS'61-windowsshellreverse_ord_tcp.raw,0.999251972074'
p380
aS'61-windowsshellbind_ipv6_tcp.raw,1.0'
p381
aS'62-windowsshellreverse_tcp.c,1.0'
p382
aS'62-windowsvncinjectreverse_tcp_dns.exe,0.53'
p383
aS'62-windowsvncinjectreverse_tcp.exe,0.5'
p384
aS'62-windowsvncinjectfind_tag.exe,0.57'
p385
aS'62-windowsvncinjectreverse_ipv6_http.exe,0.51'
p386
aS'61-windowsshellreverse_tcp_allports.raw,0.999795992384'
p387
aS'62-windowsvncinjectreverse_nonx_tcp.exe,0.51'
p388
aS'66-linuxx86shell_reverse_tcp2.exe,0.999886662435'
p389
aS'62-windowsvncinjectbind_tcp.exe,0.5'
p390
asS'63-windowsupexecbind_ipv6_tcp.exe'
p391
(lp392
S'61-windowsshellreverse_nonx_tcp.raw,0.957446808511'
p393
aS'62-windowsvncinjectreverse_http.exe,0.999818132218'
p394
aS'61-windowsshellreverse_ord_tcp.raw,0.923076923077'
p395
aS'61-windowsshellbind_ipv6_tcp.raw,0.977961432507'
p396
aS'62-windowsshellreverse_tcp.c,0.990686845169'
p397
aS'62-windowsvncinjectreverse_tcp_dns.exe,0.99981814462'
p398
aS'62-windowsvncinjectbind_nonx_tcp.exe,0.999818967663'
p399
aS'62-windowsvncinjectreverse_tcp.exe,0.999818412929'
p400
aS'62-windowsvncinjectfind_tag.exe,0.999818897994'
p401
aS'62-windowsvncinjectreverse_ipv6_http.exe,0.999818280938'
p402
aS'61-windowsshellreverse_tcp_allports.raw,0.972602739726'
p403
aS'62-windowsvncinjectreverse_nonx_tcp.exe,0.99981936824'
p404
aS'66-linuxx86shell_reverse_tcp2.exe,0.934426229508'
p405
aS'60-windowsshell_bind_tcp_xpfw.exe,0.999818996335'
p406
aS'62-windowsvncinjectbind_tcp.exe,0.999817875518'
p407
asS'63-windowsupexecbind_nonx_tcp.exe'
p408
(lp409
S'61-windowsshellreverse_nonx_tcp.raw,0.957446808511'
p410
aS'62-windowsvncinjectreverse_http.exe,0.999818132218'
p411
aS'61-windowsshellreverse_ord_tcp.raw,0.923076923077'
p412
aS'61-windowsshellbind_ipv6_tcp.raw,0.977961432507'
p413
aS'62-windowsshellreverse_tcp.c,0.990686845169'
p414
aS'62-windowsvncinjectreverse_tcp_dns.exe,0.99981814462'
p415
aS'62-windowsvncinjectbind_nonx_tcp.exe,0.999818967663'
p416
aS'62-windowsvncinjectreverse_tcp.exe,0.999818412929'
p417
aS'62-windowsvncinjectfind_tag.exe,0.999818897994'
p418
aS'62-windowsvncinjectreverse_ipv6_http.exe,0.999818280938'
p419
aS'61-windowsshellreverse_tcp_allports.raw,0.972602739726'
p420
aS'62-windowsvncinjectreverse_nonx_tcp.exe,0.99981936824'
p421
aS'66-linuxx86shell_reverse_tcp2.exe,0.934426229508'
p422
aS'60-windowsshell_bind_tcp_xpfw.exe,0.999818996335'
p423
aS'62-windowsvncinjectbind_tcp.exe,0.999817875518'
p424
asS'66-linuxx86shell_reverse_tcp2.exe'
p425
(lp426
S'63-windowsupexecbind_nonx_tcp.exe,0.934426229508'
p427
aS'61-windowsshellreverse_nonx_tcp.raw,0.904255319149'
p428
aS'62-windowsvncinjectreverse_http.exe,0.999886332636'
p429
aS'61-windowsshellreverse_ord_tcp.raw,0.901639344262'
p430
aS'61-windowsshellbind_ipv6_tcp.raw,0.97520661157'
p431
aS'62-windowsshellreverse_tcp.c,1.0'
p432
aS'62-windowsvncinjectreverse_tcp_dns.exe,0.999840876543'
p433
aS'62-windowsvncinjectbind_nonx_tcp.exe,0.999818967663'
p434
aS'62-windowsvncinjectreverse_tcp.exe,0.999773016161'
p435
aS'62-windowsvncinjectfind_tag.exe,0.999909448997'
p436
aS'62-windowsvncinjectreverse_ipv6_http.exe,0.999863710703'
p437
aS'61-windowsshellreverse_tcp_allports.raw,0.958904109589'
p438
aS'62-windowsvncinjectreverse_nonx_tcp.exe,0.999706473391'
p439
aS'60-windowsshell_bind_tcp_xpfw.exe,0.999796370877'
p440
aS'62-windowsvncinjectbind_tcp.exe,0.999886172199'
p441
asS'60-windowsshellbind_ipv6_tcp.exe'
p442
(lp443
S'63-windowsupexecbind_nonx_tcp.exe,0.9998191232'
p444
aS'61-windowsshellreverse_nonx_tcp.raw,1.0'
p445
aS'62-windowsvncinjectreverse_http.exe,0.45'
p446
aS'61-windowsshellreverse_ord_tcp.raw,0.999886952'
p447
aS'61-windowsshellbind_ipv6_tcp.raw,0.992290126388'
p448
aS'62-windowsshellreverse_tcp.c,1.0'
p449
aS'62-windowsvncinjectreverse_tcp_dns.exe,0.53'
p450
aS'62-windowsvncinjectreverse_tcp.exe,0.53'
p451
aS'62-windowsvncinjectfind_tag.exe,0.53'
p452
aS'62-windowsvncinjectreverse_ipv6_http.exe,0.46'
p453
aS'61-windowsshellreverse_tcp_allports.raw,0.999118225599'
p454
aS'62-windowsvncinjectreverse_nonx_tcp.exe,0.51'
p455
aS'66-linuxx86shell_reverse_tcp2.exe,1.0'
p456
aS'62-windowsvncinjectbind_tcp.exe,0.45'
p457
asS'64-windowsdllinjectreverse_tcp_allports.exe'
p458
(lp459
S'61-windowsshellreverse_nonx_tcp.raw,0.957446808511'
p460
aS'62-windowsvncinjectreverse_http.exe,0.999818132218'
p461
aS'61-windowsshellreverse_ord_tcp.raw,0.923076923077'
p462
aS'61-windowsshellbind_ipv6_tcp.raw,0.977961432507'
p463
aS'62-windowsshellreverse_tcp.c,0.990686845169'
p464
aS'62-windowsvncinjectreverse_tcp_dns.exe,0.99981814462'
p465
aS'62-windowsvncinjectbind_nonx_tcp.exe,0.999818967663'
p466
aS'62-windowsvncinjectreverse_tcp.exe,0.999818412929'
p467
aS'62-windowsvncinjectfind_tag.exe,0.999818897994'
p468
aS'62-windowsvncinjectreverse_ipv6_http.exe,0.999818280938'
p469
aS'61-windowsshellreverse_tcp_allports.raw,0.972602739726'
p470
aS'62-windowsvncinjectreverse_nonx_tcp.exe,0.99981936824'
p471
aS'66-linuxx86shell_reverse_tcp2.exe,0.934426229508'
p472
aS'60-windowsshell_bind_tcp_xpfw.exe,0.999818996335'
p473
aS'62-windowsvncinjectbind_tcp.exe,0.999817875518'
p474
asS'66-linuxx86shellreverse_tcp.exe'
p475
(lp476
S'63-windowsupexecbind_nonx_tcp.exe,0.936507936508'
p477
aS'61-windowsshellreverse_nonx_tcp.raw,0.93085106383'
p478
aS'62-windowsvncinjectreverse_http.exe,1.0'
p479
aS'61-windowsshellreverse_ord_tcp.raw,0.849206349206'
p480
aS'61-windowsshellbind_ipv6_tcp.raw,0.96694214876'
p481
aS'62-windowsshellreverse_tcp.c,1.0'
p482
aS'62-windowsvncinjectreverse_tcp_dns.exe,0.999931804233'
p483
aS'62-windowsvncinjectbind_nonx_tcp.exe,0.999977370958'
p484
aS'62-windowsvncinjectreverse_tcp.exe,0.999795714545'
p485
aS'62-windowsvncinjectfind_tag.exe,1.0'
p486
aS'62-windowsvncinjectreverse_ipv6_http.exe,0.999977285117'
p487
aS'61-windowsshellreverse_tcp_allports.raw,0.938356164384'
p488
aS'62-windowsvncinjectreverse_nonx_tcp.exe,0.99986452618'
p489
aS'60-windowsshell_bind_tcp_xpfw.exe,0.999909498167'
p490
aS'62-windowsvncinjectbind_tcp.exe,1.0'
p491
asS'61-windowsshellreverse_ord_tcp.raw'
p492
(lp493
S'63-windowsupexecbind_nonx_tcp.exe,0.923076923077'
p494
aS'62-windowsvncinjectreverse_http.exe,1.0'
p495
aS'62-windowsshellreverse_tcp.c,1.0'
p496
aS'62-windowsvncinjectreverse_tcp_dns.exe,0.999954536155'
p497
aS'62-windowsvncinjectbind_nonx_tcp.exe,1.0'
p498
aS'62-windowsvncinjectreverse_tcp.exe,0.999841111313'
p499
aS'62-windowsvncinjectfind_tag.exe,1.0'
p500
aS'62-windowsvncinjectreverse_ipv6_http.exe,1.0'
p501
aS'62-windowsvncinjectreverse_nonx_tcp.exe,0.99979678927'
p502
aS'66-linuxx86shell_reverse_tcp2.exe,0.901639344262'
p503
aS'60-windowsshell_bind_tcp_xpfw.exe,1.0'
p504
aS'62-windowsvncinjectbind_tcp.exe,1.0'
p505
asS'62-windowsvncinjectbind_ipv6_tcp.exe'
p506
(lp507
S'63-windowsupexecbind_nonx_tcp.exe,0.999818392318'
p508
aS'61-windowsshellreverse_nonx_tcp.raw,0.999659485596'
p509
aS'61-windowsshellreverse_ord_tcp.raw,0.999500578874'
p510
aS'61-windowsshellbind_ipv6_tcp.raw,0.992236271594'
p511
aS'61-windowsshellreverse_tcp_allports.raw,0.998637942385'
p512
aS'66-linuxx86shell_reverse_tcp2.exe,0.999568681755'
p513
asS'61-windowsshellbind_ipv6_tcp.raw'
p514
(lp515
S'63-windowsupexecbind_nonx_tcp.exe,0.977961432507'
p516
aS'62-windowsvncinjectreverse_http.exe,1.0'
p517
aS'62-windowsshellreverse_tcp.c,1.0'
p518
aS'62-windowsvncinjectreverse_tcp_dns.exe,0.999840876543'
p519
aS'62-windowsvncinjectbind_nonx_tcp.exe,1.0'
p520
aS'62-windowsvncinjectreverse_tcp.exe,0.999750317777'
p521
aS'62-windowsvncinjectfind_tag.exe,1.0'
p522
aS'62-windowsvncinjectreverse_ipv6_http.exe,1.0'
p523
aS'62-windowsvncinjectreverse_nonx_tcp.exe,1.0'
p524
aS'66-linuxx86shell_reverse_tcp2.exe,0.961432506887'
p525
aS'60-windowsshell_bind_tcp_xpfw.exe,1.0'
p526
aS'62-windowsvncinjectbind_tcp.exe,0.999726813277'
p527
asS'66-linuxx86shell_reverse_tcp.exe'
p528
(lp529
S'63-windowsupexecbind_nonx_tcp.exe,0.933333333333'
p530
aS'61-windowsshellreverse_nonx_tcp.raw,0.93085106383'
p531
aS'62-windowsvncinjectreverse_http.exe,0.999840865691'
p532
aS'61-windowsshellreverse_ord_tcp.raw,0.866666666667'
p533
aS'61-windowsshellbind_ipv6_tcp.raw,0.977961432507'
p534
aS'62-windowsshellreverse_tcp.c,1.0'
p535
aS'62-windowsvncinjectreverse_tcp_dns.exe,0.999863608465'
p536
aS'62-windowsvncinjectbind_nonx_tcp.exe,0.999864225747'
p537
aS'62-windowsvncinjectreverse_tcp.exe,0.99970492101'
p538
aS'62-windowsvncinjectfind_tag.exe,0.999909448997'
p539
aS'62-windowsvncinjectreverse_ipv6_http.exe,0.999886425586'
p540
aS'61-windowsshellreverse_tcp_allports.raw,0.945205479452'
p541
aS'62-windowsvncinjectreverse_nonx_tcp.exe,0.999774210301'
p542
aS'60-windowsshell_bind_tcp_xpfw.exe,0.999818996335'
p543
aS'62-windowsvncinjectbind_tcp.exe,0.999840641078'
p544
asS'62-windowsvncinjectreverse_nonx_tcp.exe'
p545
(lp546
S'63-windowsupexecbind_nonx_tcp.exe,0.99981936824'
p547
aS'61-windowsshellreverse_nonx_tcp.raw,1.0'
p548
aS'61-windowsshellreverse_ord_tcp.raw,0.99990968412'
p549
aS'61-windowsshellbind_ipv6_tcp.raw,1.0'
p550
aS'61-windowsshellreverse_tcp_allports.raw,1.0'
p551
aS'66-linuxx86shell_reverse_tcp2.exe,0.99995484206'
p552
asS'60-windowsshellreverse_nonx_tcp.exe'
p553
(lp554
S'63-windowsupexecbind_nonx_tcp.exe,0.999818190082'
p555
aS'61-windowsshellreverse_nonx_tcp.raw,0.999590927685'
p556
aS'62-windowsvncinjectreverse_http.exe,0.5'
p557
aS'61-windowsshellreverse_ord_tcp.raw,0.999659106404'
p558
aS'61-windowsshellbind_ipv6_tcp.raw,0.999954547521'
p559
aS'62-windowsshellreverse_tcp.c,1.0'
p560
aS'62-windowsvncinjectreverse_tcp_dns.exe,0.53'
p561
aS'62-windowsvncinjectfind_tag.exe,0.53'
p562
aS'62-windowsvncinjectreverse_ipv6_http.exe,0.51'
p563
aS'61-windowsshellreverse_tcp_allports.raw,0.999795463843'
p564
aS'62-windowsvncinjectreverse_nonx_tcp.exe,0.56'
p565
aS'66-linuxx86shell_reverse_tcp2.exe,0.999659106404'
p566
aS'62-windowsvncinjectbind_tcp.exe,0.5'
p567
asS'62-windowsvncinjectreverse_tcp_dns.exe'
p568
(lp569
S'63-windowsupexecbind_nonx_tcp.exe,0.99981814462'
p570
aS'61-windowsshellreverse_nonx_tcp.raw,0.999886340388'
p571
aS'61-windowsshellreverse_ord_tcp.raw,0.999704485008'
p572
aS'61-windowsshellbind_ipv6_tcp.raw,0.999772680776'
p573
aS'61-windowsshellreverse_tcp_allports.raw,0.999659021163'
p574
aS'66-linuxx86shell_reverse_tcp2.exe,0.999772680776'
p575
asS'66-linuxx86shellfind_tag.exe'
p576
(lp577
S'63-windowsupexecbind_nonx_tcp.exe,0.913043478261'
p578
aS'61-windowsshellreverse_nonx_tcp.raw,0.952127659574'
p579
aS'62-windowsvncinjectreverse_http.exe,0.999931799582'
p580
aS'61-windowsshellreverse_ord_tcp.raw,0.913461538462'
p581
aS'61-windowsshellbind_ipv6_tcp.raw,0.972451790634'
p582
aS'62-windowsshellreverse_tcp.c,1.0'
p583
aS'62-windowsvncinjectreverse_tcp_dns.exe,0.999886340388'
p584
aS'62-windowsvncinjectbind_nonx_tcp.exe,0.999864225747'
p585
aS'62-windowsvncinjectreverse_tcp.exe,0.999886508081'
p586
aS'62-windowsvncinjectfind_tag.exe,0.999977362249'
p587
aS'62-windowsvncinjectreverse_ipv6_http.exe,0.999886425586'
p588
aS'61-windowsshellreverse_tcp_allports.raw,0.965753424658'
p589
aS'62-windowsvncinjectreverse_nonx_tcp.exe,0.99984194721'
p590
aS'60-windowsshell_bind_tcp_xpfw.exe,0.999841621793'
p591
aS'62-windowsvncinjectbind_tcp.exe,0.99997723444'
p592
asS'63-windowsupexecreverse_tcp.exe'
p593
(lp594
S'61-windowsshellreverse_nonx_tcp.raw,0.957446808511'
p595
aS'62-windowsvncinjectreverse_http.exe,0.999818132218'
p596
aS'61-windowsshellreverse_ord_tcp.raw,0.923076923077'
p597
aS'61-windowsshellbind_ipv6_tcp.raw,0.977961432507'
p598
aS'62-windowsshellreverse_tcp.c,0.990686845169'
p599
aS'62-windowsvncinjectreverse_tcp_dns.exe,0.99981814462'
p600
aS'62-windowsvncinjectbind_nonx_tcp.exe,0.999818967663'
p601
aS'62-windowsvncinjectreverse_tcp.exe,0.999818412929'
p602
aS'62-windowsvncinjectfind_tag.exe,0.999818897994'
p603
aS'62-windowsvncinjectreverse_ipv6_http.exe,0.999818280938'
p604
aS'61-windowsshellreverse_tcp_allports.raw,0.972602739726'
p605
aS'62-windowsvncinjectreverse_nonx_tcp.exe,0.99981936824'
p606
aS'66-linuxx86shell_reverse_tcp2.exe,0.934426229508'
p607
aS'60-windowsshell_bind_tcp_xpfw.exe,0.999818996335'
p608
aS'62-windowsvncinjectbind_tcp.exe,0.999817875518'
p609
asS'61-windowsshellreverse_tcp_dns.raw'
p610
(lp611
S'63-windowsupexecbind_nonx_tcp.exe,0.975'
p612
aS'62-windowsvncinjectreverse_http.exe,1.0'
p613
aS'62-windowsshellreverse_tcp.c,1.0'
p614
aS'62-windowsvncinjectreverse_tcp_dns.exe,0.992930372122'
p615
aS'62-windowsvncinjectbind_nonx_tcp.exe,1.0'
p616
aS'62-windowsvncinjectreverse_tcp.exe,0.994098420192'
p617
aS'62-windowsvncinjectfind_tag.exe,1.0'
p618
aS'62-windowsvncinjectreverse_ipv6_http.exe,1.0'
p619
aS'62-windowsvncinjectreverse_nonx_tcp.exe,0.99981936824'
p620
aS'66-linuxx86shell_reverse_tcp2.exe,0.965625'
p621
aS'60-windowsshell_bind_tcp_xpfw.exe,1.0'
p622
aS'62-windowsvncinjectbind_tcp.exe,0.994559031098'
p623
asS'61-windowsshell_reverse_tcp.raw'
p624
(lp625
S'63-windowsupexecbind_nonx_tcp.exe,0.97507788162'
p626
aS'62-windowsvncinjectreverse_http.exe,1.0'
p627
aS'62-windowsshellreverse_tcp.c,1.0'
p628
aS'62-windowsvncinjectreverse_tcp_dns.exe,0.9953399559'
p629
aS'62-windowsvncinjectbind_nonx_tcp.exe,1.0'
p630
aS'62-windowsvncinjectreverse_tcp.exe,0.995187942618'
p631
aS'62-windowsvncinjectfind_tag.exe,1.0'
p632
aS'62-windowsvncinjectreverse_ipv6_http.exe,1.0'
p633
aS'62-windowsvncinjectreverse_nonx_tcp.exe,0.99981936824'
p634
aS'66-linuxx86shell_reverse_tcp2.exe,0.96261682243'
p635
aS'60-windowsshell_bind_tcp_xpfw.exe,1.0'
p636
aS'62-windowsvncinjectbind_tcp.exe,0.995537950189'
p637
asS'64-windowsdllinjectreverse_http.exe'
p638
(lp639
S'61-windowsshellreverse_nonx_tcp.raw,0.957446808511'
p640
aS'62-windowsvncinjectreverse_http.exe,0.999818132218'
p641
aS'61-windowsshellreverse_ord_tcp.raw,0.923076923077'
p642
aS'61-windowsshellbind_ipv6_tcp.raw,0.977961432507'
p643
aS'62-windowsshellreverse_tcp.c,0.990686845169'
p644
aS'62-windowsvncinjectreverse_tcp_dns.exe,0.99981814462'
p645
aS'62-windowsvncinjectbind_nonx_tcp.exe,0.999818967663'
p646
aS'62-windowsvncinjectreverse_tcp.exe,0.999818412929'
p647
aS'62-windowsvncinjectfind_tag.exe,0.999818897994'
p648
aS'62-windowsvncinjectreverse_ipv6_http.exe,0.999818280938'
p649
aS'61-windowsshellreverse_tcp_allports.raw,0.972602739726'
p650
aS'62-windowsvncinjectreverse_nonx_tcp.exe,0.99981936824'
p651
aS'66-linuxx86shell_reverse_tcp2.exe,0.934426229508'
p652
aS'60-windowsshell_bind_tcp_xpfw.exe,0.999818996335'
p653
aS'62-windowsvncinjectbind_tcp.exe,0.999817875518'
p654
asS'66-linuxx86shellbind_nonx_tcp.exe'
p655
(lp656
S'63-windowsupexecbind_nonx_tcp.exe,0.931034482759'
p657
aS'61-windowsshellreverse_nonx_tcp.raw,0.920212765957'
p658
aS'62-windowsvncinjectreverse_http.exe,0.999931799582'
p659
aS'61-windowsshellreverse_ord_tcp.raw,0.922413793103'
p660
aS'61-windowsshellbind_ipv6_tcp.raw,0.97520661157'
p661
aS'62-windowsshellreverse_tcp.c,1.0'
p662
aS'62-windowsvncinjectreverse_tcp_dns.exe,0.999931804233'
p663
aS'62-windowsvncinjectbind_nonx_tcp.exe,0.999864225747'
p664
aS'62-windowsvncinjectreverse_tcp.exe,0.999909206464'
p665
aS'62-windowsvncinjectfind_tag.exe,0.999977362249'
p666
aS'62-windowsvncinjectreverse_ipv6_http.exe,0.999886425586'
p667
aS'61-windowsshellreverse_tcp_allports.raw,0.969178082192'
p668
aS'62-windowsvncinjectreverse_nonx_tcp.exe,0.999774210301'
p669
aS'60-windowsshell_bind_tcp_xpfw.exe,0.999886872709'
p670
aS'62-windowsvncinjectbind_tcp.exe,1.0'
p671
asS'62-windowsvncinjectreverse_http.exe'
p672
(lp673
S'63-windowsupexecbind_nonx_tcp.exe,0.999818132218'
p674
aS'61-windowsshellreverse_nonx_tcp.raw,0.999431663181'
p675
aS'61-windowsshellreverse_ord_tcp.raw,0.999795398745'
p676
aS'61-windowsshellbind_ipv6_tcp.raw,0.999249795399'
p677
aS'61-windowsshellreverse_tcp_allports.raw,0.996453578249'
p678
aS'66-linuxx86shell_reverse_tcp2.exe,0.9997499318'
p679
asS'60-windowsshellbind_nonx_tcp.exe'
p680
(lp681
S'63-windowsupexecbind_nonx_tcp.exe,0.999818280938'
p682
aS'61-windowsshellreverse_nonx_tcp.raw,0.999318553516'
p683
aS'61-windowsshellreverse_ord_tcp.raw,0.999659276758'
p684
aS'61-windowsshellbind_ipv6_tcp.raw,0.999568417227'
p685
aS'62-windowsshellreverse_tcp.c,1.0'
p686
aS'62-windowsvncinjectreverse_tcp_dns.exe,0.51'
p687
aS'62-windowsvncinjectreverse_tcp.exe,0.53'
p688
aS'62-windowsvncinjectfind_tag.exe,0.56'
p689
aS'62-windowsvncinjectreverse_ipv6_http.exe,0.54'
p690
aS'61-windowsshellreverse_tcp_allports.raw,0.999318553516'
p691
aS'62-windowsvncinjectreverse_nonx_tcp.exe,0.57'
p692
aS'66-linuxx86shell_reverse_tcp2.exe,0.999704706524'
p693
aS'62-windowsvncinjectbind_tcp.exe,0.53'
p694
asS'63-windowsupexecreverse_ipv6_tcp.exe'
p695
(lp696
S'61-windowsshellreverse_nonx_tcp.raw,0.957446808511'
p697
aS'62-windowsvncinjectreverse_http.exe,0.999818132218'
p698
aS'61-windowsshellreverse_ord_tcp.raw,0.923076923077'
p699
aS'61-windowsshellbind_ipv6_tcp.raw,0.977961432507'
p700
aS'62-windowsshellreverse_tcp.c,0.990686845169'
p701
aS'62-windowsvncinjectreverse_tcp_dns.exe,0.99981814462'
p702
aS'62-windowsvncinjectbind_nonx_tcp.exe,0.999818967663'
p703
aS'62-windowsvncinjectreverse_tcp.exe,0.999818412929'
p704
aS'62-windowsvncinjectfind_tag.exe,0.999818897994'
p705
aS'62-windowsvncinjectreverse_ipv6_http.exe,0.999818280938'
p706
aS'61-windowsshellreverse_tcp_allports.raw,0.972602739726'
p707
aS'62-windowsvncinjectreverse_nonx_tcp.exe,0.99981936824'
p708
aS'66-linuxx86shell_reverse_tcp2.exe,0.934426229508'
p709
aS'60-windowsshell_bind_tcp_xpfw.exe,0.999818996335'
p710
aS'62-windowsvncinjectbind_tcp.exe,0.999817875518'
p711
asS'60-windowsshellreverse_http.exe'
p712
(lp713
S'63-windowsupexecbind_nonx_tcp.exe,0.999818803651'
p714
aS'61-windowsshellreverse_nonx_tcp.raw,0.999932051369'
p715
aS'62-windowsvncinjectreverse_http.exe,0.45'
p716
aS'61-windowsshellreverse_ord_tcp.raw,0.999524359584'
p717
aS'61-windowsshellbind_ipv6_tcp.raw,0.999524359584'
p718
aS'62-windowsshellreverse_tcp.c,1.0'
p719
aS'62-windowsvncinjectreverse_tcp_dns.exe,0.46'
p720
aS'62-windowsvncinjectfind_tag.exe,0.5'
p721
aS'62-windowsvncinjectreverse_ipv6_http.exe,0.53'
p722
aS'61-windowsshellreverse_tcp_allports.raw,0.996761115264'
p723
aS'66-linuxx86shell_reverse_tcp2.exe,0.999637607302'
p724
aS'62-windowsvncinjectbind_tcp.exe,0.5'
p725
asS'62-windowsvncinjectreverse_tcp.exe'
p726
(lp727
S'63-windowsupexecbind_nonx_tcp.exe,0.999818412929'
p728
aS'61-windowsshellreverse_nonx_tcp.raw,0.999477937171'
p729
aS'61-windowsshellreverse_ord_tcp.raw,0.999409842019'
p730
aS'61-windowsshellbind_ipv6_tcp.raw,0.999523333939'
p731
aS'61-windowsshellreverse_tcp_allports.raw,0.999364445251'
p732
aS'66-linuxx86shell_reverse_tcp2.exe,0.999523333939'
p733
asS'63-windowsupexecreverse_tcp_allports.exe'
p734
(lp735
S'61-windowsshellreverse_nonx_tcp.raw,0.957446808511'
p736
aS'62-windowsvncinjectreverse_http.exe,0.999818132218'
p737
aS'61-windowsshellreverse_ord_tcp.raw,0.923076923077'
p738
aS'61-windowsshellbind_ipv6_tcp.raw,0.977961432507'
p739
aS'62-windowsshellreverse_tcp.c,0.990686845169'
p740
aS'62-windowsvncinjectreverse_tcp_dns.exe,0.99981814462'
p741
aS'62-windowsvncinjectbind_nonx_tcp.exe,0.999818967663'
p742
aS'62-windowsvncinjectreverse_tcp.exe,0.999818412929'
p743
aS'62-windowsvncinjectfind_tag.exe,0.999818897994'
p744
aS'62-windowsvncinjectreverse_ipv6_http.exe,0.999818280938'
p745
aS'61-windowsshellreverse_tcp_allports.raw,0.972602739726'
p746
aS'62-windowsvncinjectreverse_nonx_tcp.exe,0.99981936824'
p747
aS'66-linuxx86shell_reverse_tcp2.exe,0.934426229508'
p748
aS'60-windowsshell_bind_tcp_xpfw.exe,0.999818996335'
p749
aS'62-windowsvncinjectbind_tcp.exe,0.999817875518'
p750
asS'61-windowsshellreverse_nonx_tcp.raw'
p751
(lp752
S'63-windowsupexecbind_nonx_tcp.exe,0.957446808511'
p753
aS'62-windowsvncinjectreverse_http.exe,1.0'
p754
aS'62-windowsshellreverse_tcp.c,1.0'
p755
aS'62-windowsvncinjectreverse_tcp_dns.exe,1.0'
p756
aS'62-windowsvncinjectbind_nonx_tcp.exe,1.0'
p757
aS'62-windowsvncinjectreverse_tcp.exe,1.0'
p758
aS'62-windowsvncinjectfind_tag.exe,1.0'
p759
aS'62-windowsvncinjectreverse_ipv6_http.exe,1.0'
p760
aS'62-windowsvncinjectreverse_nonx_tcp.exe,0.99582289056'
p761
aS'66-linuxx86shell_reverse_tcp2.exe,0.909574468085'
p762
aS'60-windowsshell_bind_tcp_xpfw.exe,1.0'
p763
aS'62-windowsvncinjectbind_tcp.exe,1.0'
p764
asS'66-linuxx86shell_bind_tcp.exe'
p765
(lp766
S'63-windowsupexecbind_nonx_tcp.exe,0.936507936508'
p767
aS'61-windowsshellreverse_nonx_tcp.raw,0.946808510638'
p768
aS'62-windowsvncinjectreverse_http.exe,0.999909066109'
p769
aS'61-windowsshellreverse_ord_tcp.raw,0.904761904762'
p770
aS'61-windowsshellbind_ipv6_tcp.raw,0.97520661157'
p771
aS'62-windowsshellreverse_tcp.c,1.0'
p772
aS'62-windowsvncinjectreverse_tcp_dns.exe,0.999863608465'
p773
aS'62-windowsvncinjectbind_nonx_tcp.exe,0.999705822453'
p774
aS'62-windowsvncinjectreverse_tcp.exe,0.999863809697'
p775
aS'62-windowsvncinjectfind_tag.exe,0.999954724499'
p776
aS'62-windowsvncinjectreverse_ipv6_http.exe,0.999886425586'
p777
aS'61-windowsshellreverse_tcp_allports.raw,0.962328767123'
p778
aS'62-windowsvncinjectreverse_nonx_tcp.exe,0.99990968412'
p779
aS'60-windowsshell_bind_tcp_xpfw.exe,0.999818996335'
p780
aS'62-windowsvncinjectbind_tcp.exe,0.999863406638'
p781
asS'60-windowsshellreverse_ipv6_tcp.exe'
p782
(lp783
S'63-windowsupexecbind_nonx_tcp.exe,0.999818873393'
p784
aS'61-windowsshellreverse_nonx_tcp.raw,0.99988679587'
p785
aS'62-windowsvncinjectreverse_http.exe,0.48'
p786
aS'61-windowsshellreverse_ord_tcp.raw,0.999750950915'
p787
aS'61-windowsshellbind_ipv6_tcp.raw,0.999411338526'
p788
aS'62-windowsshellreverse_tcp.c,1.0'
p789
aS'62-windowsvncinjectreverse_tcp_dns.exe,0.59'
p790
aS'62-windowsvncinjectreverse_tcp.exe,0.48'
p791
aS'62-windowsvncinjectfind_tag.exe,0.54'
p792
aS'62-windowsvncinjectreverse_ipv6_http.exe,0.54'
p793
aS'61-windowsshellreverse_tcp_allports.raw,0.995019018294'
p794
aS'62-windowsvncinjectreverse_nonx_tcp.exe,0.54'
p795
aS'66-linuxx86shell_reverse_tcp2.exe,0.999932077522'
p796
aS'62-windowsvncinjectbind_tcp.exe,0.51'
p797
asS'60-windowsshellreverse_tcp_allports.exe'
p798
(lp799
S'63-windowsupexecbind_nonx_tcp.exe,0.999818746177'
p800
aS'61-windowsshellreverse_nonx_tcp.raw,0.999750775993'
p801
aS'62-windowsvncinjectreverse_http.exe,0.48'
p802
aS'61-windowsshellreverse_ord_tcp.raw,0.999705462537'
p803
aS'61-windowsshellbind_ipv6_tcp.raw,0.99956952217'
p804
aS'62-windowsshellreverse_tcp.c,1.0'
p805
aS'62-windowsvncinjectreverse_tcp_dns.exe,0.54'
p806
aS'62-windowsvncinjectreverse_tcp.exe,0.51'
p807
aS'62-windowsvncinjectfind_tag.exe,0.54'
p808
aS'62-windowsvncinjectreverse_ipv6_http.exe,0.5'
p809
aS'61-windowsshellreverse_tcp_allports.raw,0.993927996919'
p810
aS'62-windowsvncinjectreverse_nonx_tcp.exe,0.6'
p811
aS'66-linuxx86shell_reverse_tcp2.exe,0.999864059633'
p812
aS'62-windowsvncinjectbind_tcp.exe,0.51'
p813
asS'60'
p814
(lp815
S'63-windowsupexecbind_nonx_tcp.exe'
p816
aS'61-windowsshellreverse_nonx_tcp.raw'
p817
aS'64-windowsdllinjectbind_ipv6_tcp.exe'
p818
aS'66-linuxx86shellreverse_nonx_tcp.exe'
p819
aS'66-linuxx86shell_bind_ipv6_tcp.exe'
p820
aS'63-windowsupexecbind_ipv6_tcp.exe'
p821
aS'66-linuxx86shellreverse_tcp.exe'
p822
aS'61-windowsshellreverse_ord_tcp.raw'
p823
aS'61-windowsshellreverse_tcp.raw'
p824
aS'66-linuxx86shellfind_tag.exe'
p825
aS'61-windowsshell_bind_tcp_xpfw.raw'
p826
aS'65-solarisx86shell_find_port.exe'
p827
aS'61-windowsshellbind_ipv6_tcp.raw'
p828
aS'66-linuxx86shellbind_ipv6_tcp.exe'
p829
aS'64-windowsdllinjectreverse_tcp.exe'
p830
aS'64-windowsdllinjectreverse_http.exe'
p831
aS'64-windowsdllinjectreverse_ipv6_tcp.exe'
p832
aS'64-windowsdllinjectbind_tcp.exe'
p833
aS'63-windowsupexecreverse_http.exe'
p834
aS'66-linuxx86shellreverse_ipv6_tcp.exe'
p835
aS'61-windowsshell_bind_tcp.raw'
p836
aS'64-windowsdllinjectbind_nonx_tcp.exe'
p837
aS'63-windowsupexecfind_tag.exe'
p838
aS'66-linuxx86shell_bind_tcp.exe'
p839
aS'63-windowsupexecreverse_tcp_allports.exe'
p840
aS'63-windowsupexecreverse_tcp_dns.exe'
p841
aS'66-linuxx86shell_find_tag.exe'
p842
aS'61-windowsshellfind_tag.raw'
p843
aS'61-windowsshellbind_tcp.raw'
p844
aS'65-solarisx86shell_reverse_tcp.exe'
p845
aS'61-windowsshellreverse_tcp_allports.raw'
p846
aS'63-windowsupexecreverse_tcp.exe'
p847
aS'63-windowsupexecreverse_ipv6_tcp.exe'
p848
aS'63-windowsupexecbind_tcp.exe'
p849
aS'61-windowsshell_reverse_tcp.raw'
p850
aS'64-windowsdllinjectfind_tag.exe'
p851
aS'63-windowsupexecreverse_nonx_tcp.exe'
p852
aS'61-windowsshellreverse_ipv6_tcp.raw'
p853
aS'64-windowsdllinjectreverse_tcp_dns.exe'
p854
aS'64-windowsdllinjectreverse_nonx_tcp.exe'
p855
aS'61-windowsshellreverse_tcp_dns.raw'
p856
aS'61-windowsshellreverse_http.raw'
p857
aS'66-linuxx86shell_reverse_tcp2.exe'
p858
aS'66-linuxx86shellbind_tcp.exe'
p859
aS'64-windowsdllinjectreverse_ipv6_http.exe'
p860
aS'65-solarisx86shell_bind_tcp.exe'
p861
aS'66-linuxx86shell_find_port.exe'
p862
aS'64-windowsdllinjectreverse_tcp_allports.exe'
p863
aS'61-windowsshellbind_nonx_tcp.raw'
p864
aS'63-windowsupexecreverse_ord_tcp.exe'
p865
aS'66-linuxx86shell_reverse_tcp.exe'
p866
aS'61-windowsshellreverse_ipv6_http.raw'
p867
aS'64-windowsdllinjectreverse_ord_tcp.exe'
p868
aS'63-windowsupexecreverse_ipv6_http.exe'
p869
aS'66-linuxx86shellbind_nonx_tcp.exe'
p870
asS'61'
p871
(lp872
g408
aS'60-windowsshellreverse_ipv6_http.exe'
p873
aS'60-windowsshellbind_ipv6_tcp.exe'
p874
aS'62-windowsvncinjectreverse_http.exe'
p875
aS'64-windowsdllinjectbind_ipv6_tcp.exe'
p876
aS'66-linuxx86shellreverse_nonx_tcp.exe'
p877
aS'66-linuxx86shell_bind_ipv6_tcp.exe'
p878
ag391
aS'66-linuxx86shellreverse_tcp.exe'
p879
aS'66-linuxx86shellfind_tag.exe'
p880
aS'65-solarisx86shell_find_port.exe'
p881
aS'66-linuxx86shellbind_ipv6_tcp.exe'
p882
aS'62-windowsvncinjectreverse_tcp_dns.exe'
p883
aS'60-windowsshellreverse_ord_tcp.exe'
p884
ag293
ag638
aS'60-windowsshell_reverse_tcp.exe'
p885
aS'64-windowsdllinjectreverse_ipv6_tcp.exe'
p886
ag195
aS'60-windowsshellreverse_tcp.exe'
p887
aS'63-windowsupexecreverse_http.exe'
p888
aS'62-windowsvncinjectbind_nonx_tcp.exe'
p889
aS'62-windowsvncinjectreverse_tcp.exe'
p890
aS'66-linuxx86shellreverse_ipv6_tcp.exe'
p891
aS'62-windowsvncinjectfind_tag.exe'
p892
aS'60-windowsshellreverse_ipv6_tcp.exe'
p893
ag32
aS'63-windowsupexecfind_tag.exe'
p894
aS'62-windowsvncinjectreverse_ipv6_http.exe'
p895
aS'66-linuxx86shell_bind_tcp.exe'
p896
aS'60-windowsshellreverse_tcp_allports.exe'
p897
ag734
aS'60-windowsshellbind_tcp.exe'
p898
ag105
aS'66-linuxx86shell_find_tag.exe'
p899
aS'65-solarisx86shell_reverse_tcp.exe'
p900
ag593
ag695
aS'63-windowsupexecbind_tcp.exe'
p901
aS'60-windowsshellbind_nonx_tcp.exe'
p902
aS'64-windowsdllinjectfind_tag.exe'
p903
ag147
aS'62-windowsvncinjectreverse_nonx_tcp.exe'
p904
ag164
ag310
aS'66-linuxx86shell_reverse_tcp2.exe'
p905
aS'62-windowsvncinjectbind_ipv6_tcp.exe'
p906
aS'60-windowsshell_bind_tcp_xpfw.exe'
p907
aS'62-windowsvncinjectreverse_tcp_allports.exe'
p908
aS'66-linuxx86shellbind_tcp.exe'
p909
aS'62-windowsvncinjectreverse_ord_tcp.exe'
p910
aS'60-windowsshellreverse_nonx_tcp.exe'
p911
aS'60-windowsshellfind_tag.exe'
p912
aS'60-windowsshell_bind_tcp.exe'
p913
ag212
aS'65-solarisx86shell_bind_tcp.exe'
p914
aS'62-windowsvncinjectbind_tcp.exe'
p915
aS'66-linuxx86shell_find_port.exe'
p916
ag458
aS'60-windowsshellreverse_http.exe'
p917
aS'63-windowsupexecreverse_ord_tcp.exe'
p918
aS'66-linuxx86shell_reverse_tcp.exe'
p919
aS'62-windowsvncinjectreverse_ipv6_tcp.exe'
p920
ag243
aS'60-windowsshellreverse_tcp_dns.exe'
p921
aS'63-windowsupexecreverse_ipv6_http.exe'
p922
aS'66-linuxx86shellbind_nonx_tcp.exe'
p923
asS'62'
p924
(lp925
S'63-windowsupexecbind_nonx_tcp.exe'
p926
aS'61-windowsshellreverse_nonx_tcp.raw'
p927
aS'60-windowsshellreverse_ipv6_http.exe'
p928
aS'60-windowsshellbind_ipv6_tcp.exe'
p929
aS'64-windowsdllinjectbind_ipv6_tcp.exe'
p930
aS'66-linuxx86shellreverse_nonx_tcp.exe'
p931
aS'66-linuxx86shell_bind_ipv6_tcp.exe'
p932
aS'63-windowsupexecbind_ipv6_tcp.exe'
p933
aS'66-linuxx86shellreverse_tcp.exe'
p934
aS'61-windowsshellreverse_ord_tcp.raw'
p935
aS'61-windowsshellreverse_tcp.raw'
p936
aS'66-linuxx86shellfind_tag.exe'
p937
aS'61-windowsshell_bind_tcp_xpfw.raw'
p938
aS'65-solarisx86shell_find_port.exe'
p939
aS'61-windowsshellbind_ipv6_tcp.raw'
p940
aS'66-linuxx86shellbind_ipv6_tcp.exe'
p941
aS'60-windowsshellreverse_ord_tcp.exe'
p942
aS'64-windowsdllinjectreverse_tcp.exe'
p943
aS'64-windowsdllinjectreverse_http.exe'
p944
aS'60-windowsshell_reverse_tcp.exe'
p945
aS'64-windowsdllinjectreverse_ipv6_tcp.exe'
p946
aS'64-windowsdllinjectbind_tcp.exe'
p947
aS'60-windowsshellreverse_tcp.exe'
p948
aS'63-windowsupexecreverse_http.exe'
p949
aS'66-linuxx86shellreverse_ipv6_tcp.exe'
p950
aS'60-windowsshellreverse_ipv6_tcp.exe'
p951
aS'61-windowsshell_bind_tcp.raw'
p952
aS'64-windowsdllinjectbind_nonx_tcp.exe'
p953
aS'63-windowsupexecfind_tag.exe'
p954
aS'66-linuxx86shell_bind_tcp.exe'
p955
aS'60-windowsshellreverse_tcp_allports.exe'
p956
aS'63-windowsupexecreverse_tcp_allports.exe'
p957
aS'60-windowsshellbind_tcp.exe'
p958
aS'63-windowsupexecreverse_tcp_dns.exe'
p959
aS'66-linuxx86shell_find_tag.exe'
p960
aS'61-windowsshellfind_tag.raw'
p961
aS'61-windowsshellbind_tcp.raw'
p962
aS'65-solarisx86shell_reverse_tcp.exe'
p963
aS'61-windowsshellreverse_tcp_allports.raw'
p964
aS'63-windowsupexecreverse_tcp.exe'
p965
aS'63-windowsupexecreverse_ipv6_tcp.exe'
p966
aS'63-windowsupexecbind_tcp.exe'
p967
aS'60-windowsshellbind_nonx_tcp.exe'
p968
aS'61-windowsshell_reverse_tcp.raw'
p969
aS'64-windowsdllinjectfind_tag.exe'
p970
aS'63-windowsupexecreverse_nonx_tcp.exe'
p971
aS'61-windowsshellreverse_ipv6_tcp.raw'
p972
aS'64-windowsdllinjectreverse_tcp_dns.exe'
p973
aS'64-windowsdllinjectreverse_nonx_tcp.exe'
p974
aS'61-windowsshellreverse_tcp_dns.raw'
p975
aS'61-windowsshellreverse_http.raw'
p976
aS'66-linuxx86shell_reverse_tcp2.exe'
p977
aS'60-windowsshell_bind_tcp_xpfw.exe'
p978
aS'66-linuxx86shellbind_tcp.exe'
p979
aS'60-windowsshellreverse_nonx_tcp.exe'
p980
aS'60-windowsshellfind_tag.exe'
p981
aS'60-windowsshell_bind_tcp.exe'
p982
aS'64-windowsdllinjectreverse_ipv6_http.exe'
p983
aS'65-solarisx86shell_bind_tcp.exe'
p984
aS'66-linuxx86shell_find_port.exe'
p985
aS'64-windowsdllinjectreverse_tcp_allports.exe'
p986
aS'61-windowsshellbind_nonx_tcp.raw'
p987
aS'60-windowsshellreverse_http.exe'
p988
aS'63-windowsupexecreverse_ord_tcp.exe'
p989
aS'66-linuxx86shell_reverse_tcp.exe'
p990
aS'61-windowsshellreverse_ipv6_http.raw'
p991
aS'64-windowsdllinjectreverse_ord_tcp.exe'
p992
aS'60-windowsshellreverse_tcp_dns.exe'
p993
aS'63-windowsupexecreverse_ipv6_http.exe'
p994
aS'66-linuxx86shellbind_nonx_tcp.exe'
p995
asS'63'
p996
(lp997
g751
aS'60-windowsshellreverse_ipv6_http.exe'
p998
ag442
ag672
ag130
aS'66-linuxx86shell_bind_ipv6_tcp.exe'
p999
ag475
ag492
ag18
ag576
aS'61-windowsshell_bind_tcp_xpfw.raw'
p1000
ag1
ag514
aS'66-linuxx86shellbind_ipv6_tcp.exe'
p1001
ag568
aS'60-windowsshellreverse_ord_tcp.exe'
p1002
aS'60-windowsshell_reverse_tcp.exe'
p1003
aS'60-windowsshellreverse_tcp.exe'
p1004
ag122
ag726
aS'66-linuxx86shellreverse_ipv6_tcp.exe'
p1005
aS'62-windowsvncinjectfind_tag.exe'
p1006
ag782
ag181
ag66
ag765
ag798
aS'60-windowsshellbind_tcp.exe'
p1007
ag327
ag229
aS'61-windowsshellbind_tcp.raw'
p1008
ag74
aS'61-windowsshellreverse_tcp_allports.raw'
p1009
ag680
ag624
aS'61-windowsshellreverse_ipv6_tcp.raw'
p1010
ag545
ag610
aS'61-windowsshellreverse_http.raw'
p1011
ag425
ag506
ag358
ag268
aS'66-linuxx86shellbind_tcp.exe'
p1012
ag260
ag553
ag375
ag276
aS'65-solarisx86shell_bind_tcp.exe'
p1013
aS'62-windowsvncinjectbind_tcp.exe'
p1014
ag49
ag344
ag712
ag528
ag91
aS'62-windowsvncinjectreverse_ipv6_tcp.exe'
p1015
aS'60-windowsshellreverse_tcp_dns.exe'
p1016
ag655
asS'66'
p1017
(lp1018
S'63-windowsupexecbind_nonx_tcp.exe'
p1019
aS'61-windowsshellreverse_nonx_tcp.raw'
p1020
aS'60-windowsshellreverse_ipv6_http.exe'
p1021
aS'60-windowsshellbind_ipv6_tcp.exe'
p1022
aS'62-windowsvncinjectreverse_http.exe'
p1023
aS'64-windowsdllinjectbind_ipv6_tcp.exe'
p1024
aS'63-windowsupexecbind_ipv6_tcp.exe'
p1025
aS'61-windowsshellreverse_ord_tcp.raw'
p1026
aS'61-windowsshellreverse_tcp.raw'
p1027
aS'61-windowsshell_bind_tcp_xpfw.raw'
p1028
aS'61-windowsshellbind_ipv6_tcp.raw'
p1029
aS'62-windowsvncinjectreverse_tcp_dns.exe'
p1030
aS'60-windowsshellreverse_ord_tcp.exe'
p1031
aS'64-windowsdllinjectreverse_tcp.exe'
p1032
aS'64-windowsdllinjectreverse_http.exe'
p1033
aS'60-windowsshell_reverse_tcp.exe'
p1034
aS'64-windowsdllinjectreverse_ipv6_tcp.exe'
p1035
aS'64-windowsdllinjectbind_tcp.exe'
p1036
aS'60-windowsshellreverse_tcp.exe'
p1037
aS'63-windowsupexecreverse_http.exe'
p1038
aS'62-windowsvncinjectbind_nonx_tcp.exe'
p1039
aS'62-windowsvncinjectreverse_tcp.exe'
p1040
aS'62-windowsvncinjectfind_tag.exe'
p1041
aS'60-windowsshellreverse_ipv6_tcp.exe'
p1042
aS'61-windowsshell_bind_tcp.raw'
p1043
aS'64-windowsdllinjectbind_nonx_tcp.exe'
p1044
aS'63-windowsupexecfind_tag.exe'
p1045
aS'62-windowsvncinjectreverse_ipv6_http.exe'
p1046
aS'60-windowsshellreverse_tcp_allports.exe'
p1047
aS'63-windowsupexecreverse_tcp_allports.exe'
p1048
aS'60-windowsshellbind_tcp.exe'
p1049
aS'63-windowsupexecreverse_tcp_dns.exe'
p1050
aS'61-windowsshellfind_tag.raw'
p1051
aS'61-windowsshellbind_tcp.raw'
p1052
aS'61-windowsshellreverse_tcp_allports.raw'
p1053
aS'63-windowsupexecreverse_tcp.exe'
p1054
aS'63-windowsupexecreverse_ipv6_tcp.exe'
p1055
aS'63-windowsupexecbind_tcp.exe'
p1056
aS'60-windowsshellbind_nonx_tcp.exe'
p1057
aS'61-windowsshell_reverse_tcp.raw'
p1058
aS'64-windowsdllinjectfind_tag.exe'
p1059
aS'63-windowsupexecreverse_nonx_tcp.exe'
p1060
aS'61-windowsshellreverse_ipv6_tcp.raw'
p1061
aS'62-windowsvncinjectreverse_nonx_tcp.exe'
p1062
aS'64-windowsdllinjectreverse_tcp_dns.exe'
p1063
aS'64-windowsdllinjectreverse_nonx_tcp.exe'
p1064
aS'61-windowsshellreverse_tcp_dns.raw'
p1065
aS'61-windowsshellreverse_http.raw'
p1066
aS'62-windowsvncinjectbind_ipv6_tcp.exe'
p1067
aS'60-windowsshell_bind_tcp_xpfw.exe'
p1068
aS'62-windowsvncinjectreverse_tcp_allports.exe'
p1069
aS'62-windowsvncinjectreverse_ord_tcp.exe'
p1070
aS'60-windowsshellreverse_nonx_tcp.exe'
p1071
aS'60-windowsshellfind_tag.exe'
p1072
aS'60-windowsshell_bind_tcp.exe'
p1073
aS'64-windowsdllinjectreverse_ipv6_http.exe'
p1074
aS'62-windowsvncinjectbind_tcp.exe'
p1075
aS'64-windowsdllinjectreverse_tcp_allports.exe'
p1076
aS'61-windowsshellbind_nonx_tcp.raw'
p1077
aS'60-windowsshellreverse_http.exe'
p1078
aS'63-windowsupexecreverse_ord_tcp.exe'
p1079
aS'61-windowsshellreverse_ipv6_http.raw'
p1080
aS'62-windowsvncinjectreverse_ipv6_tcp.exe'
p1081
aS'64-windowsdllinjectreverse_ord_tcp.exe'
p1082
aS'60-windowsshellreverse_tcp_dns.exe'
p1083
aS'63-windowsupexecreverse_ipv6_http.exe'
p1084
asg1009
(lp1085
S'63-windowsupexecbind_nonx_tcp.exe,0.972602739726'
p1086
aS'62-windowsvncinjectreverse_http.exe,1.0'
p1087
aS'62-windowsshellreverse_tcp.c,1.0'
p1088
aS'62-windowsvncinjectreverse_tcp_dns.exe,0.994248823623'
p1089
aS'62-windowsvncinjectbind_nonx_tcp.exe,1.0'
p1090
aS'62-windowsvncinjectreverse_tcp.exe,0.994098420192'
p1091
aS'62-windowsvncinjectfind_tag.exe,1.0'
p1092
aS'62-windowsvncinjectreverse_ipv6_http.exe,1.0'
p1093
aS'62-windowsvncinjectreverse_nonx_tcp.exe,0.999729052361'
p1094
aS'66-linuxx86shell_reverse_tcp2.exe,0.952054794521'
p1095
aS'60-windowsshell_bind_tcp_xpfw.exe,1.0'
p1096
aS'62-windowsvncinjectbind_tcp.exe,0.994399672176'
p1097
asg1006
(lp1098
S'63-windowsupexecbind_nonx_tcp.exe,0.999818897994'
p1099
aS'61-windowsshellreverse_nonx_tcp.raw,1.0'
p1100
aS'61-windowsshellreverse_ord_tcp.raw,0.999388780731'
p1101
aS'61-windowsshellbind_ipv6_tcp.raw,1.0'
p1102
aS'61-windowsshellreverse_tcp_allports.raw,0.99968307149'
p1103
aS'66-linuxx86shell_reverse_tcp2.exe,1.0'
p1104
asg1011
(lp1105
S'63-windowsupexecbind_nonx_tcp.exe,0.976945244957'
p1106
aS'62-windowsvncinjectreverse_http.exe,1.0'
p1107
aS'62-windowsshellreverse_tcp.c,1.0'
p1108
aS'62-windowsvncinjectreverse_tcp_dns.exe,0.996044645496'
p1109
aS'62-windowsvncinjectbind_nonx_tcp.exe,1.0'
p1110
aS'62-windowsvncinjectreverse_tcp.exe,0.996322861812'
p1111
aS'62-windowsvncinjectfind_tag.exe,1.0'
p1112
aS'62-windowsvncinjectreverse_ipv6_http.exe,1.0'
p1113
aS'62-windowsvncinjectreverse_nonx_tcp.exe,0.99988710515'
p1114
aS'66-linuxx86shell_reverse_tcp2.exe,0.974063400576'
p1115
aS'60-windowsshell_bind_tcp_xpfw.exe,1.0'
p1116
aS'62-windowsvncinjectbind_tcp.exe,0.996562400401'
p1117
asg918
(lp1118
S'61-windowsshellreverse_nonx_tcp.raw,0.957446808511'
p1119
aS'62-windowsvncinjectreverse_http.exe,0.999818132218'
p1120
aS'61-windowsshellreverse_ord_tcp.raw,0.923076923077'
p1121
aS'61-windowsshellbind_ipv6_tcp.raw,0.977961432507'
p1122
aS'62-windowsshellreverse_tcp.c,0.990686845169'
p1123
aS'62-windowsvncinjectreverse_tcp_dns.exe,0.99981814462'
p1124
aS'62-windowsvncinjectbind_nonx_tcp.exe,0.999818967663'
p1125
aS'62-windowsvncinjectreverse_tcp.exe,0.999818412929'
p1126
aS'62-windowsvncinjectfind_tag.exe,0.999818897994'
p1127
aS'62-windowsvncinjectreverse_ipv6_http.exe,0.999818280938'
p1128
aS'61-windowsshellreverse_tcp_allports.raw,0.972602739726'
p1129
aS'62-windowsvncinjectreverse_nonx_tcp.exe,0.99981936824'
p1130
aS'66-linuxx86shell_reverse_tcp2.exe,0.934426229508'
p1131
aS'60-windowsshell_bind_tcp_xpfw.exe,0.999818996335'
p1132
aS'62-windowsvncinjectbind_tcp.exe,0.999817875518'
p1133
asg886
(lp1134
S'61-windowsshellreverse_nonx_tcp.raw,0.957446808511'
p1135
aS'62-windowsvncinjectreverse_http.exe,0.999818132218'
p1136
aS'61-windowsshellreverse_ord_tcp.raw,0.923076923077'
p1137
aS'61-windowsshellbind_ipv6_tcp.raw,0.977961432507'
p1138
aS'62-windowsshellreverse_tcp.c,0.990686845169'
p1139
aS'62-windowsvncinjectreverse_tcp_dns.exe,0.99981814462'
p1140
aS'62-windowsvncinjectbind_nonx_tcp.exe,0.999818967663'
p1141
aS'62-windowsvncinjectreverse_tcp.exe,0.999818412929'
p1142
aS'62-windowsvncinjectfind_tag.exe,0.999818897994'
p1143
aS'62-windowsvncinjectreverse_ipv6_http.exe,0.999818280938'
p1144
aS'61-windowsshellreverse_tcp_allports.raw,0.972602739726'
p1145
aS'62-windowsvncinjectreverse_nonx_tcp.exe,0.99981936824'
p1146
aS'66-linuxx86shell_reverse_tcp2.exe,0.934426229508'
p1147
aS'60-windowsshell_bind_tcp_xpfw.exe,0.999818996335'
p1148
aS'62-windowsvncinjectbind_tcp.exe,0.999817875518'
p1149
asg998
(lp1150
S'63-windowsupexecbind_nonx_tcp.exe,0.999818836477'
p1151
aS'61-windowsshellreverse_nonx_tcp.raw,1.0'
p1152
aS'62-windowsvncinjectreverse_http.exe,0.56'
p1153
aS'61-windowsshellreverse_ord_tcp.raw,0.999932063679'
p1154
aS'61-windowsshellbind_ipv6_tcp.raw,0.999728254716'
p1155
aS'62-windowsshellreverse_tcp.c,1.0'
p1156
aS'62-windowsvncinjectreverse_tcp_dns.exe,0.54'
p1157
aS'62-windowsvncinjectreverse_tcp.exe,0.53'
p1158
aS'62-windowsvncinjectfind_tag.exe,0.54'
p1159
aS'62-windowsvncinjectreverse_ipv6_http.exe,0.54'
p1160
aS'61-windowsshellreverse_tcp_allports.raw,0.997078738196'
p1161
aS'62-windowsvncinjectreverse_nonx_tcp.exe,0.57'
p1162
aS'66-linuxx86shell_reverse_tcp2.exe,1.0'
p1163
aS'62-windowsvncinjectbind_tcp.exe,0.56'
p1164
asg1004
(lp1165
S'63-windowsupexecbind_nonx_tcp.exe,0.999818651675'
p1166
aS'61-windowsshellreverse_nonx_tcp.raw,1.0'
p1167
aS'62-windowsvncinjectreverse_http.exe,0.5'
p1168
aS'61-windowsshellreverse_ord_tcp.raw,0.999818651675'
p1169
aS'61-windowsshellbind_ipv6_tcp.raw,0.999659971891'
p1170
aS'62-windowsshellreverse_tcp.c,1.0'
p1171
aS'62-windowsvncinjectreverse_tcp_dns.exe,0.54'
p1172
aS'62-windowsvncinjectfind_tag.exe,0.53'
p1173
aS'62-windowsvncinjectreverse_ipv6_http.exe,0.56'
p1174
aS'61-windowsshellreverse_tcp_allports.raw,0.994604887337'
p1175
aS'62-windowsvncinjectreverse_nonx_tcp.exe,0.59'
p1176
aS'66-linuxx86shell_reverse_tcp2.exe,1.0'
p1177
aS'62-windowsvncinjectbind_tcp.exe,0.54'
p1178
asg1005
(lp1179
S'63-windowsupexecbind_nonx_tcp.exe,0.932773109244'
p1180
aS'61-windowsshellreverse_nonx_tcp.raw,0.920212765957'
p1181
aS'62-windowsvncinjectreverse_http.exe,0.999909066109'
p1182
aS'61-windowsshellreverse_ord_tcp.raw,0.90756302521'
p1183
aS'61-windowsshellbind_ipv6_tcp.raw,0.96694214876'
p1184
aS'62-windowsshellreverse_tcp.c,1.0'
p1185
aS'62-windowsvncinjectreverse_tcp_dns.exe,0.99981814462'
p1186
aS'62-windowsvncinjectbind_nonx_tcp.exe,0.999796338621'
p1187
aS'62-windowsvncinjectreverse_tcp.exe,0.999795714545'
p1188
aS'62-windowsvncinjectfind_tag.exe,0.999864173496'
p1189
aS'62-windowsvncinjectreverse_ipv6_http.exe,0.99984099582'
p1190
aS'61-windowsshellreverse_tcp_allports.raw,0.962328767123'
p1191
aS'62-windowsvncinjectreverse_nonx_tcp.exe,0.999751631331'
p1192
aS'60-windowsshell_bind_tcp_xpfw.exe,0.999818996335'
p1193
aS'62-windowsvncinjectbind_tcp.exe,0.999931703319'
p1194
asg901
(lp1195
S'61-windowsshellreverse_nonx_tcp.raw,0.957446808511'
p1196
aS'62-windowsvncinjectreverse_http.exe,0.999818132218'
p1197
aS'61-windowsshellreverse_ord_tcp.raw,0.923076923077'
p1198
aS'61-windowsshellbind_ipv6_tcp.raw,0.977961432507'
p1199
aS'62-windowsshellreverse_tcp.c,0.990686845169'
p1200
aS'62-windowsvncinjectreverse_tcp_dns.exe,0.99981814462'
p1201
aS'62-windowsvncinjectbind_nonx_tcp.exe,0.999818967663'
p1202
aS'62-windowsvncinjectreverse_tcp.exe,0.999818412929'
p1203
aS'62-windowsvncinjectfind_tag.exe,0.999818897994'
p1204
aS'62-windowsvncinjectreverse_ipv6_http.exe,0.999818280938'
p1205
aS'61-windowsshellreverse_tcp_allports.raw,0.972602739726'
p1206
aS'62-windowsvncinjectreverse_nonx_tcp.exe,0.99981936824'
p1207
aS'66-linuxx86shell_reverse_tcp2.exe,0.934426229508'
p1208
aS'60-windowsshell_bind_tcp_xpfw.exe,0.999818996335'
p1209
aS'62-windowsvncinjectbind_tcp.exe,0.999817875518'
p1210
asg1015
(lp1211
S'63-windowsupexecbind_nonx_tcp.exe,0.999818367579'
p1212
aS'61-windowsshellreverse_nonx_tcp.raw,1.0'
p1213
aS'61-windowsshellreverse_ord_tcp.raw,1.0'
p1214
aS'61-windowsshellbind_ipv6_tcp.raw,0.999886479737'
p1215
aS'61-windowsshellreverse_tcp_allports.raw,0.99541378136'
p1216
aS'66-linuxx86shell_reverse_tcp2.exe,1.0'
p1217
asg1010
(lp1218
S'63-windowsupexecbind_nonx_tcp.exe,0.972508591065'
p1219
aS'62-windowsvncinjectreverse_http.exe,1.0'
p1220
aS'62-windowsshellreverse_tcp.c,1.0'
p1221
aS'62-windowsvncinjectreverse_tcp_dns.exe,0.994885317451'
p1222
aS'62-windowsvncinjectbind_nonx_tcp.exe,1.0'
p1223
aS'62-windowsvncinjectreverse_tcp.exe,0.994824768476'
p1224
aS'62-windowsvncinjectfind_tag.exe,1.0'
p1225
aS'62-windowsvncinjectreverse_ipv6_http.exe,1.0'
p1226
aS'62-windowsvncinjectreverse_nonx_tcp.exe,0.999774210301'
p1227
aS'66-linuxx86shell_reverse_tcp2.exe,0.955326460481'
p1228
aS'60-windowsshell_bind_tcp_xpfw.exe,1.0'
p1229
aS'62-windowsvncinjectbind_tcp.exe,0.994946045622'
p1230
asg1001
(lp1231
S'63-windowsupexecbind_nonx_tcp.exe,0.939393939394'
p1232
aS'61-windowsshellreverse_nonx_tcp.raw,0.946808510638'
p1233
aS'62-windowsvncinjectreverse_http.exe,1.0'
p1234
aS'61-windowsshellreverse_ord_tcp.raw,0.931818181818'
p1235
aS'61-windowsshellbind_ipv6_tcp.raw,0.96694214876'
p1236
aS'62-windowsshellreverse_tcp.c,1.0'
p1237
aS'62-windowsvncinjectreverse_tcp_dns.exe,0.999954536155'
p1238
aS'62-windowsvncinjectbind_nonx_tcp.exe,0.999932112874'
p1239
aS'62-windowsvncinjectreverse_tcp.exe,0.999977301616'
p1240
aS'62-windowsvncinjectfind_tag.exe,1.0'
p1241
aS'62-windowsvncinjectreverse_ipv6_http.exe,0.999977285117'
p1242
aS'61-windowsshellreverse_tcp_allports.raw,0.969178082192'
p1243
aS'62-windowsvncinjectreverse_nonx_tcp.exe,0.99986452618'
p1244
aS'60-windowsshell_bind_tcp_xpfw.exe,0.999909498167'
p1245
aS'62-windowsvncinjectbind_tcp.exe,1.0'
p1246
asg1003
(lp1247
S'63-windowsupexecbind_nonx_tcp.exe,0.999818499444'
p1248
aS'61-windowsshellreverse_nonx_tcp.raw,0.999863874583'
p1249
aS'62-windowsvncinjectreverse_http.exe,0.54'
p1250
aS'61-windowsshellreverse_ord_tcp.raw,0.99954624861'
p1251
aS'61-windowsshellbind_ipv6_tcp.raw,1.0'
p1252
aS'62-windowsshellreverse_tcp.c,1.0'
p1253
aS'62-windowsvncinjectreverse_tcp_dns.exe,0.5'
p1254
aS'62-windowsvncinjectreverse_tcp.exe,0.54'
p1255
aS'62-windowsvncinjectfind_tag.exe,0.56'
p1256
aS'62-windowsvncinjectreverse_ipv6_http.exe,0.53'
p1257
aS'61-windowsshellreverse_tcp_allports.raw,1.0'
p1258
aS'62-windowsvncinjectreverse_nonx_tcp.exe,0.53'
p1259
aS'66-linuxx86shell_reverse_tcp2.exe,0.999636998888'
p1260
aS'62-windowsvncinjectbind_tcp.exe,0.54'
p1261
asg1012
(lp1262
S'63-windowsupexecbind_nonx_tcp.exe,0.93893129771'
p1263
aS'61-windowsshellreverse_nonx_tcp.raw,0.946808510638'
p1264
aS'62-windowsvncinjectreverse_http.exe,1.0'
p1265
aS'61-windowsshellreverse_ord_tcp.raw,0.908396946565'
p1266
aS'61-windowsshellbind_ipv6_tcp.raw,0.972451790634'
p1267
aS'62-windowsshellreverse_tcp.c,1.0'
p1268
aS'62-windowsvncinjectreverse_tcp_dns.exe,0.999954536155'
p1269
aS'62-windowsvncinjectbind_nonx_tcp.exe,0.999954741916'
p1270
aS'62-windowsvncinjectreverse_tcp.exe,0.999977301616'
p1271
aS'62-windowsvncinjectfind_tag.exe,1.0'
p1272
aS'62-windowsvncinjectreverse_ipv6_http.exe,0.999977285117'
p1273
aS'61-windowsshellreverse_tcp_allports.raw,0.962328767123'
p1274
aS'62-windowsvncinjectreverse_nonx_tcp.exe,0.99990968412'
p1275
aS'60-windowsshell_bind_tcp_xpfw.exe,0.999954749084'
p1276
aS'62-windowsvncinjectbind_tcp.exe,1.0'
p1277
asg876
(lp1278
S'61-windowsshellreverse_nonx_tcp.raw,0.957446808511'
p1279
aS'62-windowsvncinjectreverse_http.exe,0.999818132218'
p1280
aS'61-windowsshellreverse_ord_tcp.raw,0.923076923077'
p1281
aS'61-windowsshellbind_ipv6_tcp.raw,0.977961432507'
p1282
aS'62-windowsshellreverse_tcp.c,0.990686845169'
p1283
aS'62-windowsvncinjectreverse_tcp_dns.exe,0.99981814462'
p1284
aS'62-windowsvncinjectbind_nonx_tcp.exe,0.999818967663'
p1285
aS'62-windowsvncinjectreverse_tcp.exe,0.999818412929'
p1286
aS'62-windowsvncinjectfind_tag.exe,0.999818897994'
p1287
aS'62-windowsvncinjectreverse_ipv6_http.exe,0.999818280938'
p1288
aS'61-windowsshellreverse_tcp_allports.raw,0.972602739726'
p1289
aS'62-windowsvncinjectreverse_nonx_tcp.exe,0.99981936824'
p1290
aS'66-linuxx86shell_reverse_tcp2.exe,0.934426229508'
p1291
aS'60-windowsshell_bind_tcp_xpfw.exe,0.999818996335'
p1292
aS'62-windowsvncinjectbind_tcp.exe,0.999817875518'
p1293
asg894
(lp1294
S'61-windowsshellreverse_nonx_tcp.raw,0.957446808511'
p1295
aS'62-windowsvncinjectreverse_http.exe,0.999818132218'
p1296
aS'61-windowsshellreverse_ord_tcp.raw,0.923076923077'
p1297
aS'61-windowsshellbind_ipv6_tcp.raw,0.977961432507'
p1298
aS'62-windowsshellreverse_tcp.c,0.990686845169'
p1299
aS'62-windowsvncinjectreverse_tcp_dns.exe,0.99981814462'
p1300
aS'62-windowsvncinjectbind_nonx_tcp.exe,0.999818967663'
p1301
aS'62-windowsvncinjectreverse_tcp.exe,0.999818412929'
p1302
aS'62-windowsvncinjectfind_tag.exe,0.999818897994'
p1303
aS'62-windowsvncinjectreverse_ipv6_http.exe,0.999818280938'
p1304
aS'61-windowsshellreverse_tcp_allports.raw,0.972602739726'
p1305
aS'62-windowsvncinjectreverse_nonx_tcp.exe,0.99981936824'
p1306
aS'66-linuxx86shell_reverse_tcp2.exe,0.934426229508'
p1307
aS'60-windowsshell_bind_tcp_xpfw.exe,0.999818996335'
p1308
aS'62-windowsvncinjectbind_tcp.exe,0.999817875518'
p1309
asg1007
(lp1310
S'63-windowsupexecbind_nonx_tcp.exe,0.999818334582'
p1311
aS'61-windowsshellreverse_nonx_tcp.raw,0.999704793696'
p1312
aS'61-windowsshellreverse_ord_tcp.raw,0.999523128278'
p1313
aS'61-windowsshellbind_ipv6_tcp.raw,1.0'
p1314
aS'62-windowsshellreverse_tcp.c,1.0'
p1315
aS'62-windowsvncinjectreverse_tcp_dns.exe,0.48'
p1316
aS'62-windowsvncinjectreverse_tcp.exe,0.53'
p1317
aS'62-windowsvncinjectfind_tag.exe,0.54'
p1318
aS'62-windowsvncinjectreverse_ipv6_http.exe,0.5'
p1319
aS'61-windowsshellreverse_tcp_allports.raw,1.0'
p1320
aS'66-linuxx86shell_reverse_tcp2.exe,0.999613960987'
p1321
aS'62-windowsvncinjectbind_tcp.exe,0.48'
p1322
asg888
(lp1323
S'61-windowsshellreverse_nonx_tcp.raw,0.957446808511'
p1324
aS'62-windowsvncinjectreverse_http.exe,0.999818132218'
p1325
aS'61-windowsshellreverse_ord_tcp.raw,0.923076923077'
p1326
aS'61-windowsshellbind_ipv6_tcp.raw,0.977961432507'
p1327
aS'62-windowsshellreverse_tcp.c,0.990686845169'
p1328
aS'62-windowsvncinjectreverse_tcp_dns.exe,0.99981814462'
p1329
aS'62-windowsvncinjectbind_nonx_tcp.exe,0.999818967663'
p1330
aS'62-windowsvncinjectreverse_tcp.exe,0.999818412929'
p1331
aS'62-windowsvncinjectfind_tag.exe,0.999818897994'
p1332
aS'62-windowsvncinjectreverse_ipv6_http.exe,0.999818280938'
p1333
aS'61-windowsshellreverse_tcp_allports.raw,0.972602739726'
p1334
aS'62-windowsvncinjectreverse_nonx_tcp.exe,0.99981936824'
p1335
aS'66-linuxx86shell_reverse_tcp2.exe,0.934426229508'
p1336
aS'60-windowsshell_bind_tcp_xpfw.exe,0.999818996335'
p1337
aS'62-windowsvncinjectbind_tcp.exe,0.999817875518'
p1338
asg1016
(lp1339
S'63-windowsupexecbind_nonx_tcp.exe,0.999820345834'
p1340
aS'61-windowsshellreverse_nonx_tcp.raw,1.0'
p1341
aS'62-windowsvncinjectreverse_http.exe,0.5'
p1342
aS'61-windowsshellreverse_ord_tcp.raw,0.999887716146'
p1343
aS'61-windowsshellbind_ipv6_tcp.raw,0.999977543229'
p1344
aS'62-windowsshellreverse_tcp.c,1.0'
p1345
aS'62-windowsvncinjectreverse_tcp_dns.exe,0.54'
p1346
aS'62-windowsvncinjectbind_nonx_tcp.exe,0.57'
p1347
aS'62-windowsvncinjectreverse_tcp.exe,0.54'
p1348
aS'62-windowsvncinjectfind_tag.exe,0.57'
p1349
aS'62-windowsvncinjectreverse_ipv6_http.exe,0.56'
p1350
aS'61-windowsshellreverse_tcp_allports.raw,1.0'
p1351
aS'62-windowsvncinjectreverse_nonx_tcp.exe,0.59'
p1352
aS'66-linuxx86shell_reverse_tcp2.exe,1.0'
p1353
aS'62-windowsvncinjectbind_tcp.exe,0.54'
p1354
asg903
(lp1355
S'61-windowsshellreverse_nonx_tcp.raw,0.957446808511'
p1356
aS'62-windowsvncinjectreverse_http.exe,0.999818132218'
p1357
aS'61-windowsshellreverse_ord_tcp.raw,0.923076923077'
p1358
aS'61-windowsshellbind_ipv6_tcp.raw,0.977961432507'
p1359
aS'62-windowsshellreverse_tcp.c,0.990686845169'
p1360
aS'62-windowsvncinjectreverse_tcp_dns.exe,0.99981814462'
p1361
aS'62-windowsvncinjectbind_nonx_tcp.exe,0.999818967663'
p1362
aS'62-windowsvncinjectreverse_tcp.exe,0.999818412929'
p1363
aS'62-windowsvncinjectfind_tag.exe,0.999818897994'
p1364
aS'62-windowsvncinjectreverse_ipv6_http.exe,0.999818280938'
p1365
aS'61-windowsshellreverse_tcp_allports.raw,0.972602739726'
p1366
aS'62-windowsvncinjectreverse_nonx_tcp.exe,0.99981936824'
p1367
aS'66-linuxx86shell_reverse_tcp2.exe,0.934426229508'
p1368
aS'60-windowsshell_bind_tcp_xpfw.exe,0.999818996335'
p1369
aS'62-windowsvncinjectbind_tcp.exe,0.999817875518'
p1370
asg922
(lp1371
S'61-windowsshellreverse_nonx_tcp.raw,0.957446808511'
p1372
aS'62-windowsvncinjectreverse_http.exe,0.999818132218'
p1373
aS'61-windowsshellreverse_ord_tcp.raw,0.923076923077'
p1374
aS'61-windowsshellbind_ipv6_tcp.raw,0.977961432507'
p1375
aS'62-windowsshellreverse_tcp.c,0.990686845169'
p1376
aS'62-windowsvncinjectreverse_tcp_dns.exe,0.99981814462'
p1377
aS'62-windowsvncinjectbind_nonx_tcp.exe,0.999818967663'
p1378
aS'62-windowsvncinjectreverse_tcp.exe,0.999818412929'
p1379
aS'62-windowsvncinjectfind_tag.exe,0.999818897994'
p1380
aS'62-windowsvncinjectreverse_ipv6_http.exe,0.999818280938'
p1381
aS'61-windowsshellreverse_tcp_allports.raw,0.972602739726'
p1382
aS'62-windowsvncinjectreverse_nonx_tcp.exe,0.99981936824'
p1383
aS'66-linuxx86shell_reverse_tcp2.exe,0.934426229508'
p1384
aS'60-windowsshell_bind_tcp_xpfw.exe,0.999818996335'
p1385
aS'62-windowsvncinjectbind_tcp.exe,0.999817875518'
p1386
asg1000
(lp1387
S'63-windowsupexecbind_nonx_tcp.exe,0.984615384615'
p1388
aS'62-windowsvncinjectreverse_http.exe,1.0'
p1389
aS'62-windowsshellreverse_tcp.c,1.0'
p1390
aS'62-windowsvncinjectreverse_tcp_dns.exe,1.0'
p1391
aS'62-windowsvncinjectbind_nonx_tcp.exe,1.0'
p1392
aS'62-windowsvncinjectreverse_tcp.exe,1.0'
p1393
aS'62-windowsvncinjectfind_tag.exe,1.0'
p1394
aS'62-windowsvncinjectreverse_ipv6_http.exe,1.0'
p1395
aS'62-windowsvncinjectreverse_nonx_tcp.exe,1.0'
p1396
aS'66-linuxx86shell_reverse_tcp2.exe,0.973076923077'
p1397
aS'60-windowsshell_bind_tcp_xpfw.exe,1.0'
p1398
aS'62-windowsvncinjectbind_tcp.exe,1.0'
p1399
asg1013
(lp1400
S'63-windowsupexecbind_nonx_tcp.exe,0.948051948052'
p1401
aS'61-windowsshellreverse_nonx_tcp.raw,0.952127659574'
p1402
aS'62-windowsvncinjectreverse_http.exe,1.0'
p1403
aS'61-windowsshellreverse_ord_tcp.raw,0.941558441558'
p1404
aS'61-windowsshellbind_ipv6_tcp.raw,0.955922865014'
p1405
aS'62-windowsshellreverse_tcp.c,1.0'
p1406
aS'62-windowsvncinjectreverse_tcp_dns.exe,0.999954536155'
p1407
aS'62-windowsvncinjectbind_nonx_tcp.exe,0.999932112874'
p1408
aS'62-windowsvncinjectreverse_tcp.exe,0.999954603232'
p1409
aS'62-windowsvncinjectfind_tag.exe,0.999864173496'
p1410
aS'62-windowsvncinjectreverse_ipv6_http.exe,0.999954570234'
p1411
aS'61-windowsshellreverse_tcp_allports.raw,0.969178082192'
p1412
aS'62-windowsvncinjectreverse_nonx_tcp.exe,0.99995484206'
p1413
aS'60-windowsshell_bind_tcp_xpfw.exe,0.999909498167'
p1414
aS'62-windowsvncinjectbind_tcp.exe,1.0'
p1415
asg1008
(lp1416
S'63-windowsupexecbind_nonx_tcp.exe,0.972972972973'
p1417
aS'62-windowsvncinjectreverse_http.exe,1.0'
p1418
aS'62-windowsshellreverse_tcp.c,1.0'
p1419
aS'62-windowsvncinjectreverse_tcp_dns.exe,0.994453410925'
p1420
aS'62-windowsvncinjectbind_nonx_tcp.exe,1.0'
p1421
aS'62-windowsvncinjectreverse_tcp.exe,0.994416197567'
p1422
aS'62-windowsvncinjectfind_tag.exe,1.0'
p1423
aS'62-windowsvncinjectreverse_ipv6_http.exe,1.0'
p1424
aS'62-windowsvncinjectreverse_nonx_tcp.exe,0.99981936824'
p1425
aS'66-linuxx86shell_reverse_tcp2.exe,0.959459459459'
p1426
aS'60-windowsshell_bind_tcp_xpfw.exe,1.0'
p1427
aS'62-windowsvncinjectbind_tcp.exe,0.993443518645'
p1428
asg1002
(lp1429
S'63-windowsupexecbind_nonx_tcp.exe,0.999818404685'
p1430
aS'61-windowsshellreverse_nonx_tcp.raw,0.999727607028'
p1431
aS'62-windowsvncinjectreverse_http.exe,0.46'
p1432
aS'61-windowsshellreverse_ord_tcp.raw,0.997888954465'
p1433
aS'61-windowsshellbind_ipv6_tcp.raw,1.0'
p1434
aS'62-windowsshellreverse_tcp.c,1.0'
p1435
aS'62-windowsvncinjectreverse_tcp_dns.exe,0.5'
p1436
aS'62-windowsvncinjectreverse_tcp.exe,0.54'
p1437
aS'62-windowsvncinjectfind_tag.exe,0.59'
p1438
aS'62-windowsvncinjectreverse_ipv6_http.exe,0.51'
p1439
aS'61-windowsshellreverse_tcp_allports.raw,0.999137422255'
p1440
aS'62-windowsvncinjectreverse_nonx_tcp.exe,0.56'
p1441
aS'66-linuxx86shell_reverse_tcp2.exe,0.99963680937'
p1442
aS'62-windowsvncinjectbind_tcp.exe,0.54'
p1443
asg999
(lp1444
S'63-windowsupexecbind_nonx_tcp.exe,0.940740740741'
p1445
aS'61-windowsshellreverse_nonx_tcp.raw,0.93085106383'
p1446
aS'62-windowsvncinjectreverse_http.exe,0.999886332636'
p1447
aS'61-windowsshellreverse_ord_tcp.raw,0.933333333333'
p1448
aS'61-windowsshellbind_ipv6_tcp.raw,0.96694214876'
p1449
aS'62-windowsshellreverse_tcp.c,1.0'
p1450
aS'62-windowsvncinjectreverse_tcp_dns.exe,0.999840876543'
p1451
aS'62-windowsvncinjectbind_nonx_tcp.exe,0.999841596705'
p1452
aS'62-windowsvncinjectreverse_tcp.exe,0.999841111313'
p1453
aS'62-windowsvncinjectfind_tag.exe,0.999932086748'
p1454
aS'62-windowsvncinjectreverse_ipv6_http.exe,0.99984099582'
p1455
aS'61-windowsshellreverse_tcp_allports.raw,0.969178082192'
p1456
aS'62-windowsvncinjectreverse_nonx_tcp.exe,0.99981936824'
p1457
aS'60-windowsshell_bind_tcp_xpfw.exe,0.999818996335'
p1458
aS'62-windowsvncinjectbind_tcp.exe,0.999908937759'
p1459
asg1014
(lp1460
S'63-windowsupexecbind_nonx_tcp.exe,0.999817875518'
p1461
aS'61-windowsshellreverse_nonx_tcp.raw,0.999362564313'
p1462
aS'61-windowsshellreverse_ord_tcp.raw,0.999544688795'
p1463
aS'61-windowsshellbind_ipv6_tcp.raw,0.999043846469'
p1464
aS'61-windowsshellreverse_tcp_allports.raw,0.998998315349'
p1465
aS'66-linuxx86shell_reverse_tcp2.exe,0.999635751036'
p1466
as.