(dp0
S'24'
p1
(lp2
S'X-f1047767508120e85bc9033c4298455d'
p3
aS'X-735cfdb0fdf65297e870874fd639144c'
p4
asS'25'
p5
(lp6
S'X-e3173170378f294fecea500ee36f978c'
p7
asS'20'
p8
(lp9
S'X-1bc7730b896ee7a9ff23633d3a320426'
p10
aS'X-84007c49e3ba46d4e4b20b60a64c62ad'
p11
aS'X-b1aa12dd78548f743c80e0170933f231'
p12
aS'X-44f423f66c869f4c9015eb9004051d64'
p13
aS'X-92b60a5247cd8947fde797e044de5c59'
p14
aS'X-b2951ecf331e30c4f67b8c9619e98762'
p15
aS'X-d2bde6c6c161d6b7c2b7113ff2c134d6'
p16
aS'X-329e4ddd8cb770d3ca08153f09672269'
p17
aS'X-cf56afef560a1e116973d9153cf713e9'
p18
aS'X-9fc1662057f0f5b74389153efabd866d'
p19
aS'X-612e88797211219c08d554f2bcd3983e'
p20
aS'X-4af55923a89f444d88c0deb9325b31a1'
p21
aS'X-d77359adaa134d4019b38e311df11c60'
p22
aS'X-e788991348ef679caa1dffd99dac921c'
p23
aS'X-5403992b14e29feed7ff2bf8b6ffa7b9'
p24
aS'X-c69065f1942b7dbc1fb9d9c1ffb44796'
p25
aS'X-c21ba620aef16977332cca54020c40a5'
p26
aS'X-afe08efaba8ea3a2a8ecf8045db248db'
p27
aS'X-05a6173bf1df05e6da48c88153f01be9'
p28
aS'X-b3f70814b7b6474f21b061b9e6a2dd5d'
p29
aS'X-bbbca3173ffc2f614681a3ff0803ba1f'
p30
aS'X-bd64d03ca5865ee451af73e0da4a52f2'
p31
aS'X-b3032cce47fb803a43faf687002ed159'
p32
aS'X-8bd9ecf43eecbf9a1d22953187ed1fac'
p33
aS'X-6fde343034337c3f219b1efda5145b67'
p34
aS'X-23214e9c5b8475eb5ab78cd89ed05a27'
p35
aS'X-c7f8932f90da8b029157fe1a56d1975c'
p36
aS'X-772a2f338a45cc51f5a6dee4f1113883'
p37
aS'X-b8ee537b9ee9d87435b5137ffafee59e'
p38
aS'X-4614d92cb575ea0c113c799aa388bd20'
p39
aS'X-78fcb2f3eb19826cf6a0ac2e787ac913'
p40
aS'X-ef607644ad2102ab03556ecbd824ad27'
p41
aS'X-f688d75f04282658a73a664f31180e3a'
p42
aS'X-ce071e701810a9442e71062899c74145'
p43
aS'X-cc52c97b42d0dc2658eb7f9ad108565d'
p44
aS'X-e5f14011fb325cdbfc569aea683180b3'
p45
aS'X-769fe718c8c4d7ce735b02323b301fa2'
p46
aS'X-d42a45406d1af20791659e8092c73e95'
p47
aS'X-673944da0681b9008ae1e14faf5ccb9a'
p48
aS'X-b6ffeff674641a5095a1438019ecbe0c'
p49
aS'X-03fad3803448b250bce237ac224bb81a'
p50
aS'X-04bd10f48ea55f9bc668e9621aa806d5'
p51
aS'X-44c2d68f4fe2156e734a8b99075e35bb'
p52
aS'X-ffc9b15d997f6a180b60fc0327c1c5c3'
p53
aS'X-f363ab6a9f0231f6ae27ad8d12390396'
p54
aS'X-8ecb7d7af5ff8a8dfd33c5a8b19bac8f'
p55
aS'X-925184f7d7067a634558133ce6036c08'
p56
aS'X-ce281aef20e8a6c3cfe21df7a34d9481'
p57
aS'X-638edba5c6c2d8da326d35b8415980a8'
p58
aS'X-e40a6321537de678114a0cdc86fae124'
p59
aS'X-54fd34514b136e3fbc86b87ac285a3c1'
p60
aS'X-58a656187505655ac6086533da7cc8ae'
p61
aS'X-7270f158b44e7690130265f704758036'
p62
asS'32'
p63
(lp64
S'X-1a633f515c003ffddfe3a2ab2894936e'
p65
aS'X-6b1839154bd96c14277684e5d24af5b0'
p66
aS'X-d62172dcee067c02b2cb547d23546bb2'
p67
aS'X-9b9ee2aa9a755f4d570d2214ece4acef'
p68
aS'X-b1af22dd59790228013d68636d88baf4'
p69
aS'X-e740710ff89069890bef3410055f1e66'
p70
aS'X-e534ed3a7c81ef2a0078c9bfb252963f'
p71
aS'X-356d1e7b1a5992e42d583cf73e7abaf4'
p72
aS'X-a34e5d9aa39b8ff0671e21bffeeabcf6'
p73
aS'X-ba4fccccd651f973cbe64a8cde3a90ad'
p74
aS'X-09b7c2734e797499294d75ba1e657d95'
p75
aS'X-7b3a33249a429d1a58b37aac9c85ca1e'
p76
aS'X-474157f07e304d50986b635a076c7926'
p77
aS'X-be655f217dc7778dfbff549f9dc7dbda'
p78
aS'X-32060eeeea3e3b90b04b114e5f29cf66'
p79
aS'X-f8529f797fb5ebcd2a49b048bc5112fe'
p80
aS'X-225531b3d853630b3fb5bf02d5acc672'
p81
aS'X-bf22cea85664816f7fff02bf3fbab3fe'
p82
aS'X-4128b52d0b49a73cf0ef98b38a432fc2'
p83
aS'X-ed55443d9713e0b64abe37275d56f755'
p84
aS'X-9e5e209dd156c003bb0ae7fcc1fa7fe8'
p85
aS'X-8b15e574dc0c1c9cd8f8bfc8770f5909'
p86
aS'X-d47757cde1c610f40a37608d0bc704d6'
p87
aS'X-ec32c0281abcdf31d2d451a304aba3b7'
p88
aS'X-55ce28e667b5168aa8e77b19efcae4ca'
p89
aS'X-f4b4bfc68b0e49e3d78d88c9944d5883'
p90
aS'X-d14c0ba77f5cd66dff6c27c12fbeeb13'
p91
aS'X-064a805023f7085e90bb167e5242b5b1'
p92
aS'X-5ea98adda24458ea0473236da677e4dc'
p93
aS'X-5fb0f8a5449f8a9f0c73b3ef8046091e'
p94
aS'X-2f1d9ac4c6e9be335d7c62b53e700607'
p95
aS'X-1f22035efcad15ea03c4e3e7d7b47053'
p96
aS'X-82aab3127f4eb42c58d20dcf1fdfbe0b'
p97
aS'X-35ff2d098cb6f3503469cc040bbe074f'
p98
aS'X-14fb2310991a11b4eae06d28d9ae9b2e'
p99
aS'X-c70625d3cb9aa9fe537f772ab1df446a'
p100
aS'X-6948272d72aaa83ff903c12810b6272c'
p101
aS'X-ab9cf53b592afadf832bab5946d42ab3'
p102
aS'X-853d432d7ebcd9af031ad733157232ae'
p103
aS'X-e7d2aeb7abd00ab5abec82ab08061356'
p104
aS'X-11b40ec1c1d72cffb80e2dd34db7b45d'
p105
aS'X-54689b136ff08b7b607638e150fb8934'
p106
aS'X-871d0ab133a42f70c0a54088370baaf4'
p107
aS'X-08e89391cc724e52a6cca9a914ba7481'
p108
aS'X-05e43fffcd1cf970b1aa01f3d6471b27'
p109
aS'X-593881b06242bc19f2c10bff99a93e5d'
p110
aS'X-3fddc8d7d15d781a3159ad5f1cb96150'
p111
aS'X-a6036ea7c781eb72daca46c8e22743b8'
p112
aS'X-b7ba37d022bdf89c0f9a99e063db1042'
p113
aS'X-3f123c9b8d480c6e99e6319dbfa7b66a'
p114
aS'X-60bdddd606b3187bfc2cb477a7314a96'
p115
asS'30'
p116
(lp117
S'X-21f90e257238d6a3fb6f53c3e8cc2fd8'
p118
aS'X-3e62c0d6d650f981a04b862824ac9005'
p119
aS'X-b7e9813c1a0a728b80e3593f8dd330ac'
p120
aS'X-141d257fc7a50457c8c9090073eb78f1'
p121
aS'X-099de92a06ecceaee3fb947599e237f5'
p122
aS'X-101fbc50bd7dc8fceac006117caf0eb6'
p123
aS'X-3c6bad681344172d199de0536895d09d'
p124
aS'X-0a5159b1e2e290ea4a2657ec4420f8d4'
p125
aS'X-4418a2d7b6ae2daf762201dba427be12'
p126
aS'X-d042d94b4392928cc4c249ee9439c1ca'
p127
aS'X-794e7a0aac0e8d2ee0830e898a2046a4'
p128
aS'X-330622601a7647162e2f33d5a9f4c5d1'
p129
aS'X-a7b315f8648cc1fb552fde2ecfdb8b53'
p130
aS'X-c18ab1c26e471206f3dc04babeabb488'
p131
aS'X-2ab549a59be3d89f2e5c2af2f2eab264'
p132
aS'X-8424c6b0ff1491179e4c443fbcecac6e'
p133
aS'X-381d0eb7658fcc1869b763f202e47e5a'
p134
aS'X-dc5ef84af3074264b9917641d0ad0f37'
p135
aS'X-7fa1c39cd1bdeb4bcb6641056a66608a'
p136
aS'X-633f136e1a7458476f5e3baad1105a6a'
p137
aS'X-dd62b6725f5bf4ce3058f945887bbd76'
p138
aS'X-6209ff2e053a6092032fb6cdb848ce97'
p139
aS'X-75d30628f8a7228d70d917872c53d374'
p140
aS'X-435365892f13cecf830b99b7d1c569e7'
p141
aS'X-894c176517aea0aa6d88a4a44c3ba85d'
p142
aS'X-e1e37ee8ad8a95fe9aae2fbdf3410872'
p143
aS'X-bb523a8c7173eb4819012a9506ba70cb'
p144
aS'X-7852261bdb442d328de93ae7800f5780'
p145
aS'X-b2578272da28cb8a22baaaf842c9455a'
p146
aS'X-d7e92b27556a4381df972ed6450c24ce'
p147
aS'X-732b2d6c1447b8d0a65debeff7f4cab3'
p148
aS'X-8c5c3605f593ff7ca766363c42db5743'
p149
aS'X-6131c6f1ab4bc4704ded05ef816409aa'
p150
aS'X-3c6331a4f59207375252163972c5ab64'
p151
aS'X-63d2c8aa7986a35f3005db308a75e101'
p152
aS'X-738507d2d219fd5b97fc7bc90a49cab1'
p153
aS'X-571220f5f59b26438860709c5432db05'
p154
aS'X-b09d37f1fbc1418bcb3a25fb53534990'
p155
aS'X-c10c9d6be5dc7a44918367fe1e6bbd45'
p156
aS'X-07361150da3620c934e5e86d1c98d5b4'
p157
aS'X-1b41f46821f093124817b2950b362d62'
p158
aS'X-43a1fb4712e9123cd5a5e12996dc135f'
p159
aS'X-4049f23d2cfdfcb9a2dc9af48d88d6bb'
p160
aS'X-00feea4a357dccf21b47e6946980865d'
p161
asS'29'
p162
(lp163
S'X-e7a4c608d15686c1f3af1a4e3c64cdd4'
p164
asS'2'
p165
(lp166
S'X-36b199911f1302f06e024159aff21d54'
p167
aS'X-0d7848ef3f5db9ac7665ab34690e8d0d'
p168
aS'X-0a986294c226383a13010e69e3182bcb'
p169
aS'X-679f666fddbd37901631b14b47376c35'
p170
aS'X-4cacf6ab7717e73441efc30f797fd387'
p171
aS'X-bea5f26719db054addd040694aa51da2'
p172
asS'18'
p173
(lp174
S'X-0a8ead81bef975756c87a48a83a26d6c'
p175
asS'X'
p176
(lp177
g118
ag119
ag120
ag167
ag65
ag7
ag10
ag11
ag66
ag67
ag168
ag121
ag12
ag68
ag69
ag70
ag71
ag13
ag72
ag73
ag74
ag14
ag15
ag75
ag16
ag17
ag122
ag123
ag18
ag124
ag76
ag125
ag77
ag126
ag127
ag128
ag19
ag3
ag20
ag129
ag21
ag130
ag131
ag78
ag132
ag22
ag133
ag23
ag134
ag24
ag135
ag25
ag79
ag169
ag80
ag81
ag26
ag170
ag27
ag136
ag28
ag137
ag29
ag30
ag4
ag138
ag82
ag139
ag140
ag83
ag31
ag84
ag32
ag141
ag85
ag86
ag87
ag33
ag142
ag88
ag34
ag89
ag143
ag144
ag35
ag90
ag164
ag91
ag36
ag145
ag92
ag146
ag37
ag38
ag39
ag40
ag175
ag147
ag148
ag93
ag94
ag95
ag171
ag41
ag149
ag96
ag42
ag43
ag150
ag151
ag44
ag97
ag152
ag98
ag153
ag45
ag154
ag99
ag46
ag155
ag100
ag101
ag47
ag102
ag156
ag103
ag104
ag48
ag49
ag105
ag106
ag50
ag107
ag51
ag52
ag172
ag108
ag53
ag54
ag109
ag110
ag111
ag55
ag56
ag157
ag112
ag57
ag158
ag58
ag159
ag59
ag60
ag61
ag62
ag160
ag113
ag161
ag114
ag115
as.