(dp0
S'24'
p1
(lp2
S'24.2-a641b4d1a37d9a53b81c53f44de5c011.raw'
p3
asS'25'
p4
(lp5
S'25-e3173170378f294fecea500ee36f978c.raw'
p6
asS'26'
p7
(lp8
S'26-52957384c31989b60220038ac726544d.raw'
p9
asS'27'
p10
(lp11
S'27.1-ab179e4c4ac589ed3c62709ac7a303db.raw'
p12
asS'20'
p13
(lp14
S'20-9fe5317a305e0281b9565a65af03da0e.raw'
p15
asS'21'
p16
(lp17
S'21.2-850614dd2159b299ebb070fe238f0faa.raw'
p18
asS'22'
p19
(lp20
S'22.3.2-7ea4921beff80e610ebf67cff4add312.raw'
p21
asS'23'
p22
(lp23
S'23-22d6e30971b1ed67ee14bcf0711b3027.raw'
p24
asS'28'
p25
(lp26
S'28-7b2695c036cb9224db54f73e5326f135.raw'
p27
asS'29'
p28
(lp29
S'29-7d153ea9f08017d5b539621d88792597.raw'
p30
asS'3'
p31
(lp32
S'3-87937439c24a34f5eaef3422a3424d54.raw'
p33
asS'2'
p34
(lp35
S'2-4c6784225bb509cd6d33e2ed852d22d1.raw'
p36
asS'5'
p37
(lp38
S'5.2-1b1f137c7c020fb02936967ac3f90af4.raw'
p39
asS'4'
p40
(lp41
S'4.2-0c46eace7006b062883311d87a6ddcac.raw'
p42
asS'7'
p43
(lp44
S'7-27bfdaaa288c4f28018cb2f4ed871a27.raw'
p45
asS'6'
p46
(lp47
S'6.2-3ca4908cf4fc08e5fc0e7a07e92f6df8.raw'
p48
asS'8'
p49
(lp50
S'8-2868ff07e1bc760488962955a850a7be.raw'
p51
asS'11'
p52
(lp53
S'11-3a28452fc0b7572a345514aa66a5e628.raw'
p54
asS'13'
p55
(lp56
S'13.3-b3350817df8b4325a32beb9fbe3c6dee.raw'
p57
asS'12'
p58
(lp59
S'12-b9fe2c1354670d81c61a3d222cfa587f.raw'
p60
asS'15'
p61
(lp62
S'15-ca25c55fd256d92b48b81cb36f1a6db7.raw'
p63
asS'14'
p64
(lp65
S'14.6-5c8c0cf8755b027234eb50717723113e.raw'
p66
asS'16'
p67
(lp68
S'16-bd63683b8461833784a25c0c5103318f.raw'
p69
asS'19'
p70
(lp71
S'19-abbb2c6849cb68b0da4601eb181ad5b0.raw'
p72
asS'18'
p73
(lp74
S'18-d7535adefffd3895cd099a6a63a3ba76.raw'
p75
as.