(dp0
S'18-fe5e8c1bd8291d61eaeb791821a20885.raw'
p1
(lp2
S'18-d7535adefffd3895cd099a6a63a3ba76.raw'
p3
asS'4.2-1b0b292f998270f06d3dfd5ce0e09bfe.raw'
p4
(lp5
S'4.2-0c46eace7006b062883311d87a6ddcac.raw'
p6
asS'27.1-9287789d5fa163b76fb37324d72439e8.raw'
p7
(lp8
S'27.1-ab179e4c4ac589ed3c62709ac7a303db.raw'
p9
asS'5.2-5a63cd881fbb0e8e949435af162f66a1.raw'
p10
(lp11
S'5.2-1b1f137c7c020fb02936967ac3f90af4.raw'
p12
asS'27.1-c6271d80e2ee3fa6cfb23bb9aa2f3990.raw'
p13
(lp14
S'27.1-ab179e4c4ac589ed3c62709ac7a303db.raw'
p15
asS'18-2aa9591f791c94e68eec402e2cd4001c.raw'
p16
(lp17
S'18-d7535adefffd3895cd099a6a63a3ba76.raw'
p18
asS'18-ad82c7ae9ac6e8fe687bd1564874c72c.raw'
p19
(lp20
S'18-d7535adefffd3895cd099a6a63a3ba76.raw'
p21
asS'22.3.2-08b44d3ce119d92d63d71d84d8a06cec.raw'
p22
(lp23
S'22.3.2-7ea4921beff80e610ebf67cff4add312.raw'
p24
asS'18-d54518652204bf0176d138f7e13d2620.raw'
p25
(lp26
S'18-d7535adefffd3895cd099a6a63a3ba76.raw'
p27
asS'12-be64d678f26456582854796b5ff13bf6.raw'
p28
(lp29
S'12-b9fe2c1354670d81c61a3d222cfa587f.raw'
p30
asS'18-ec9d093dcc76aa1b0e7fc85fe1d4908a.raw'
p31
(lp32
S'18-d7535adefffd3895cd099a6a63a3ba76.raw'
p33
asS'14.6-76e8f6f9bd06d43aaccfbe7177742f76.raw'
p34
(lp35
S'14.6-5c8c0cf8755b027234eb50717723113e.raw'
p36
asS'27.1-ef24332132de511c670eab43b6f9e4b3.raw'
p37
(lp38
S'27.1-ab179e4c4ac589ed3c62709ac7a303db.raw'
p39
asS'18-a007919d3b6c2269a0ac5ec40c270c3b.raw'
p40
(lp41
S'18-d7535adefffd3895cd099a6a63a3ba76.raw'
p42
asS'27'
p43
(lp44
S'27.1-3941138ef3c32bff63426686c636ac91.raw'
p45
ag7
aS'27.1-ab179e4c4ac589ed3c62709ac7a303db.raw'
p46
aS'27.1-398710d6fa8388dcc4fdf1c75b3750fe.raw'
p47
ag37
ag13
aS'27.1-afda9cbcae6e14cb124e69e01c1097ad.raw'
p48
aS'27.1-c5b561e02d256335c664d72a5902ebd8.raw'
p49
aS'27.1-ec959179d203cda789049ab3e9941d5a.raw'
p50
asS'20'
p51
(lp52
S'20-8f2c131566e0fa0797167136e4c66f68.raw'
p53
aS'20-0201aa1bf4a1200a54d236f1c49449fa.raw'
p54
aS'20-1dc8b8cf46b4a7cef873e8cbb3ea481f.raw'
p55
aS'20-9fe5317a305e0281b9565a65af03da0e.raw'
p56
aS'20-14ae103e4740fce8665807cdab0349ff.raw'
p57
aS'20-2d4b0f06e65449a9f94540f58eca448e.raw'
p58
aS'20-79d83b3d5e58ded9eb9e6503e2a5493b.raw'
p59
aS'20-3fff1e94006e74e16e0c47605950b546.raw'
p60
aS'20-6e9220159317af01785a33b283f4002d.raw'
p61
aS'20-8d68920c4c2ae30980aa45c55fbe797e.raw'
p62
asS'22'
p63
(lp64
S'22.3.2-7ea4921beff80e610ebf67cff4add312.raw'
p65
aS'22.3.2-0aeeab04849a80ac395535ee41a5d99f.raw'
p66
aS'22.3.2-25ac72d71808c9d02a6769c3fc74ebe0.raw'
p67
aS'22.3.2-0a99a3d3fc48a8ade8a484d1d333d2f8.raw'
p68
aS'22.3.2-6c08abd154da88a98e70e9d87340d01c.raw'
p69
aS'22.3.2-5b97311bdf1099fa994dbd2168300e12.raw'
p70
aS'22.3.2-3f2ff1cc7837880a76ff903f018e3710.raw'
p71
ag22
asS'11-78ef0a12b949f2cbac528610ceb59f14.raw'
p72
(lp73
S'11-3a28452fc0b7572a345514aa66a5e628.raw'
p74
asS'29'
p75
(lp76
S'29-8d216fb284c55725d577c8506418dff4.raw'
p77
aS'29-7e1342bba879767880aaf65d9e6859c9.raw'
p78
aS'29-50eba7c78b50c61d5e964c3bccad2ec4.raw'
p79
aS'29-20cfefbca05c2faa7fe643cd0fe6487c.raw'
p80
aS'29-15af40c347a16f4206b564d4d5e58be2.raw'
p81
aS'29-28689bc4d451c05931e7903d0ee17d2f.raw'
p82
aS'29-55bd961af45636738c7c5e1891bc53a9.raw'
p83
aS'29-31dc126226fbefdc012bee8dce22539d.raw'
p84
aS'29-8da56c9d1ed977fc2aec41e085241b4c.raw'
p85
aS'29.1-257cc578a26560b7ae9ec7888f54a1ad.raw'
p86
aS'29-7d153ea9f08017d5b539621d88792597.raw'
p87
asS'18-e8946c832dce383383ef8f8556a0830e.raw'
p88
(lp89
S'18-d7535adefffd3895cd099a6a63a3ba76.raw'
p90
asS'13.3-af18f4527ec7c85a6abfeb25e3b4e62c.raw'
p91
(lp92
S'13.3-b3350817df8b4325a32beb9fbe3c6dee.raw'
p93
asg55
(lp94
S'20-9fe5317a305e0281b9565a65af03da0e.raw'
p95
asS'4.2-0d0127fea275480b67f0b2cc281dfcff.raw'
p96
(lp97
S'4.2-0c46eace7006b062883311d87a6ddcac.raw'
p98
asS'4'
p99
(lp100
S'4.2-f2c84f2faea8e4493988ad3b0bad761c.raw'
p101
aS'4.2-3d65196a475c37ee0d3832471b1611c3.raw'
p102
aS'4.2-1a69e53297a98207ddff7dfd84294ab7.raw'
p103
aS'4.2-0c46eace7006b062883311d87a6ddcac.raw'
p104
aS'4.2-0d74503c28746d410a1ec27bebb6b39f.raw'
p105
aS'4.2-0a9857941967e55cc74dd84c1b208581.raw'
p106
aS'4.2-0ad5a75da3d7773120fa04c92cd3db6c.raw'
p107
aS'4.2-2ecc12bbfeac1010c7e0401f0951be9e.raw'
p108
ag4
aS'4.2-0e8c2a74252999e50b36112bbe8ecd82.raw'
p109
ag96
asg60
(lp110
S'20-9fe5317a305e0281b9565a65af03da0e.raw'
p111
asS'18-7f361fd51036a64ba60fb9d71d270966.raw'
p112
(lp113
S'18-d7535adefffd3895cd099a6a63a3ba76.raw'
p114
asS'8'
p115
(lp116
S'8-6ebb313ee65a5915aadd971df455ce02.raw'
p117
aS'8-6c5b9065372dddec27eb4fb49fe160d8.raw'
p118
aS'8-0b7d99c126630c338d6dc51fc387d0b8.raw'
p119
aS'8-6bf6cb9da054e0d5b22b0f4c5f54f59a.raw'
p120
aS'8-2a83e7f5b96d7e36e1512fef88bc0de6.raw'
p121
aS'8-5d1055fe2e8bc8697474fc261336b476.raw'
p122
aS'8-ddc13f738bfde488e90a7ef5a71a6db1.raw'
p123
aS'8-0b24deaba05f352d96b58df0ffac475a.raw'
p124
aS'8-2868ff07e1bc760488962955a850a7be.raw'
p125
aS'8-2f949a63fccdb4458a081aa33172b0a0.raw'
p126
aS'8-4a549a6dbcf2ee4c2bc220b644278cf5.raw'
p127
asS'12-056b991a69facc31a7c0add58eacb05b.raw'
p128
(lp129
S'12-b9fe2c1354670d81c61a3d222cfa587f.raw'
p130
asS'11-1e5efe8964d4ff3255f415e51a8781e8.raw'
p131
(lp132
S'11-3a28452fc0b7572a345514aa66a5e628.raw'
p133
asg83
(lp134
S'29-7e1342bba879767880aaf65d9e6859c9.raw'
p135
aS'29-7d153ea9f08017d5b539621d88792597.raw'
p136
asS'18-97866e8a5c0b4b40263850ec909ab410.raw'
p137
(lp138
S'18-d7535adefffd3895cd099a6a63a3ba76.raw'
p139
asg118
(lp140
S'8-2868ff07e1bc760488962955a850a7be.raw'
p141
asS'14.6-10ba8d0e754458237fb50442d3c2ca42.raw'
p142
(lp143
S'14.6-5c8c0cf8755b027234eb50717723113e.raw'
p144
asS'18-07fe449397be518966075d35851d910e.raw'
p145
(lp146
S'18-d7535adefffd3895cd099a6a63a3ba76.raw'
p147
asg121
(lp148
S'8-2868ff07e1bc760488962955a850a7be.raw'
p149
asS'18-e8e976b95b6372bea0cd186bbe4e7a08.raw'
p150
(lp151
S'18-d7535adefffd3895cd099a6a63a3ba76.raw'
p152
asS'14.1.2-c3b69b7940ffab4f7ab1c6776621c174.raw'
p153
(lp154
S'14.6-5c8c0cf8755b027234eb50717723113e.raw'
p155
asS'18-f762208ebf755a34e3b2c66c7d66f4e0.raw'
p156
(lp157
S'18-d7535adefffd3895cd099a6a63a3ba76.raw'
p158
asS'13.3-d88a44af955b31b0510976f14e2fbd78.raw'
p159
(lp160
S'13.3-b3350817df8b4325a32beb9fbe3c6dee.raw'
p161
asS'18-1e736444770b6d0133bd4c6172e7452f.raw'
p162
(lp163
S'18-d7535adefffd3895cd099a6a63a3ba76.raw'
p164
asS'18-00c8670e9b3dcb9cdb85537c244dda5e.raw'
p165
(lp166
S'18-d7535adefffd3895cd099a6a63a3ba76.raw'
p167
asg66
(lp168
S'22.3.2-7ea4921beff80e610ebf67cff4add312.raw'
p169
asS'5.2-1b1f137c7c020fb02936967ac3f90af4.raw'
p170
(lp171
S'5.2-1b1f137c7c020fb02936967ac3f90af4.raw'
p172
ag170
asS'18-09bacec6a7af20f8eac8d241a6b782cf.raw'
p173
(lp174
S'18-d7535adefffd3895cd099a6a63a3ba76.raw'
p175
asS'14.5-392b618c7ab897ccfe8cbdad9a1531db.raw'
p176
(lp177
S'14.6-5c8c0cf8755b027234eb50717723113e.raw'
p178
asS'18-1cac979a552ce0ede9994ed05c42210d.raw'
p179
(lp180
S'18-d7535adefffd3895cd099a6a63a3ba76.raw'
p181
asS'18-738b03b782750f86b5ab5397a3bf5191.raw'
p182
(lp183
S'18-d7535adefffd3895cd099a6a63a3ba76.raw'
p184
asS'14'
p185
(lp186
S'14.1.2-883516c63f6ca421f208f02e0a53dfda.raw'
p187
aS'14.6-afb3a89e813e29b90a1ed791577a3100.raw'
p188
aS'14.6-727db1fdb8bb6e9b18cf2cace89dbd74.raw'
p189
aS'14.1.2-a83d8b396c494895f572bc3988952a7c.raw'
p190
aS'14.6-0af88469d89e56e428a2cd0c70fdf905.raw'
p191
ag153
aS'14.1.2-ae4652b546a10c092c22036bbc0db641.raw'
p192
aS'14.6-0c7de3e28d712110b9693c97e55cda73.raw'
p193
aS'14.5-47248b4882fdd25c8ffbdec4401233ff.raw'
p194
aS'14.1.2-bb50eab41b5b5da6811b498ba787ebd0.raw'
p195
aS'14.1.2-ad85fd04665793ec30b30cd2c7952ce0.raw'
p196
aS'14.5-7f7e973fe844fa162f3025843cf4782e.raw'
p197
aS'14.1.2-ab5267f5c1bd6b8ec1b52aabccb083a7.raw'
p198
aS'14.1.2-c2ebd8e7c451ee66d3be2c0d4bc8fa3a.raw'
p199
aS'14.5-0f142c762c2ee6a43998a9b1eab39bf9.raw'
p200
aS'14.6-18e21d0add83d0452212a39cc4f30cc3.raw'
p201
aS'14.5-035d206e2b3b4810e7f12f8fffd903d4.raw'
p202
aS'14.5-0f02ed7e077d741b8e93c5f1084c055a.raw'
p203
aS'14.5-c0e600b27a7de6714e7d75c66967151f.raw'
p204
ag176
aS'14.6-5c8c0cf8755b027234eb50717723113e.raw'
p205
aS'14.1.2-545358c4de6b0f3b7a4ae540ccf16732.raw'
p206
aS'14.5-821e9c215d84e3db9f8bd1fc0fecb3dc.raw'
p207
aS'14.1.2-29303771b81258c99d79d852ad1bb56d.raw'
p208
aS'14.6-60edf812cf3e97b888713d6b695e5e1b.raw'
p209
aS'14.6-35d864d008ed3f859bc0152e399b7cf7.raw'
p210
ag142
ag34
aS'14.6-95ae2769884f19218ea4e2983c69d6d7.raw'
p211
aS'14.5-b5c50b8bd0b9db915fdfed483f87f3fc.raw'
p212
aS'14.5-561bd3c9ec7acc959e13d005efe759c1.raw'
p213
asg62
(lp214
S'20-9fe5317a305e0281b9565a65af03da0e.raw'
p215
asS'18-4ac46cfee13e9bb90c17a46fe3cc725c.raw'
p216
(lp217
S'18-d7535adefffd3895cd099a6a63a3ba76.raw'
p218
asS'18-0a1a36f2686601e1686fcb8b216781b1.raw'
p219
(lp220
S'18-d7535adefffd3895cd099a6a63a3ba76.raw'
p221
asg212
(lp222
S'14.6-5c8c0cf8755b027234eb50717723113e.raw'
p223
asS'18-21ae24a37ec25b92cd724f298b8cf957.raw'
p224
(lp225
S'18-d7535adefffd3895cd099a6a63a3ba76.raw'
p226
asS'11-3a28452fc0b7572a345514aa66a5e628.raw'
p227
(lp228
S'11-3a28452fc0b7572a345514aa66a5e628.raw'
p229
ag227
ag72
aS'11-86a20bfefe2b942b9c105963480e81a7.raw'
p230
aS'11-48d2ab64c90e4a2983ba1b1e76442b07.raw'
p231
aS'11-55e418aed640087cd142b9f2a6d9e448.raw'
p232
asS'18-03b01a356aa089eac02cb26579ed4636.raw'
p233
(lp234
S'18-d7535adefffd3895cd099a6a63a3ba76.raw'
p235
asg203
(lp236
S'14.6-5c8c0cf8755b027234eb50717723113e.raw'
p237
asS'18-536283fa71e99605b7e9342464c49577.raw'
p238
(lp239
S'18-d7535adefffd3895cd099a6a63a3ba76.raw'
p240
asS'18'
p241
(lp242
g40
aS'18-c71bbef5badcc5ce2a5cc81992caf45e.raw'
p243
aS'18-0d77888a42f45fa665ae01d586131c4e.raw'
p244
aS'18-b1b4dd0426ce83bd540701f2d5a6085f.raw'
p245
aS'18-22cb7f661306c1582aac7b18d03b10bd.raw'
p246
ag162
aS'18-7a834510fdd8483c812d160b46efb968.raw'
p247
aS'18-b041a0875916f3a813c68a6e18016a99.raw'
p248
aS'18-431ca0464b4870d9d3ee6cde69d563fd.raw'
p249
aS'18-52869b2b96962f9595d3be817f197f56.raw'
p250
aS'18-d7535adefffd3895cd099a6a63a3ba76.raw'
p251
aS'18-25ef57a63dd8af2be2a23ee1860ff01b.raw'
p252
aS'18-8792bfc7820a187d423af9845722ec8c.raw'
p253
aS'18-4f78788fdab1c0bada019581ec0809a4.raw'
p254
ag145
aS'18-c3f19c50d945f9c54c93656e971d5c56.raw'
p255
aS'18-cda5d2462c981d13dd1084550441c206.raw'
p256
aS'18-9eff7063aab80022ebc0057189374766.raw'
p257
ag19
aS'18-432013eae7d7ed9672a37cd48be125c0.raw'
p258
aS'18-b9dc80adcd578aaf5aa4e56d0bc62e81.raw'
p259
ag182
aS'18-ea29bc79d019326cbe80da5e821c2d97.raw'
p260
aS'18-2e4a3fd553eb340bac869bf2e128bdde.raw'
p261
aS'18-7f3c1808e399d4c8a364a7a64534ccbd.raw'
p262
aS'18-0a3da9cf8edbba354126ddea59fbdec9.raw'
p263
aS'18-62680d51f0eed9d5b30da59624433951.raw'
p264
ag137
ag150
ag112
aS'18-d253f8cfb2aaa5ebc66c5acc8a7ab44d.raw'
p265
aS'18-fa1e34c4f1dee7d8e22e28521199c9a7.raw'
p266
aS'18-a4dc863524161559c929e8fc983f01ee.raw'
p267
aS'18-1f0137d6a8c3cf2f146c74730cf6403c.raw'
p268
aS'18-4e3bcaa89a686ce1506cad15213ca37f.raw'
p269
ag216
ag16
aS'18-01f111a0dda50c0bd24efe1a0b8538dd.raw'
p270
aS'18-4d4389f51f9075ebebb71222a08f7a91.raw'
p271
ag173
aS'18-5c377b9fa6b4c4b9d9c0fb184aa6ecc8.raw'
p272
aS'18-b3a5751f62c1bd25d9f09425534c711e.raw'
p273
aS'18-0f85140b6693a5be55a3dbccd169ab60.raw'
p274
aS'18-1d35d9b1e0e63ff42fc2def8a250fd29.raw'
p275
aS'18-47cc34218b9eea15774c07d3b5c3503b.raw'
p276
aS'18-c9d74bcde672cf1d40b04d8ee0e1c42f.raw'
p277
aS'18-2009a521d8d7453e8943396368ac9921.raw'
p278
aS'18-0a5c969937b9cd958b52af8983a249ec.raw'
p279
aS'18-28ef904d3cec7b4b374eb978b9b7acc3.raw'
p280
ag233
aS'18-0a2d6f20fb149e9943e3da6342e3aa00.raw'
p281
aS'18-5042199e2f891cfe8098cbcde37d8ae4.raw'
p282
ag31
aS'18-c37ddfb8d9f8a9500e6169e66a1ca363.raw'
p283
aS'18-12c610d9613de9ad0d00c57e3e8a60a9.raw'
p284
aS'18-0970d69bb15e898b21f7ad1f0eed40d0.raw'
p285
aS'18-e32a55b2ac18903b592f5993e6784f01.raw'
p286
ag224
aS'18-5dea7a120851d481f84f5651f5ca9c44.raw'
p287
aS'18-c7f6675859468a6de41d39c8722dad4b.raw'
p288
aS'18-d73aa09a7ac1baf852f79a5ef73ab38e.raw'
p289
ag165
aS'18-340312a531c18855acc977bae124ec80.raw'
p290
ag219
aS'18-88577f56a2e4eda6fbc80f4b10cc93e0.raw'
p291
aS'18-3bff94f44da43a07f352bda4d18221a3.raw'
p292
ag156
aS'18-00f18888317e19dba8f68e704cb08ae7.raw'
p293
aS'18-0a3b842dd9b5f65edd4b2e7dda2fb8ff.raw'
p294
aS'18-041f233ce21cec16c886fd890d9e192b.raw'
p295
aS'18-0a6b21081220a224bc00f3f7bb8a37e5.raw'
p296
aS'18-bbdc4e5c0717432a13573f2491c1e3a8.raw'
p297
aS'18-3cf87e06b8210342de94016336d9ea16.raw'
p298
aS'18-0a6c12bfbfbc5760a44576e4b69a8edd.raw'
p299
aS'18-d616249939c90baacd7e9848f6b075b3.raw'
p300
ag88
aS'18-95d81076c2728cef687f3bb7e2b06d50.raw'
p301
aS'18-f7258187cb15af382820a8e1934659b7.raw'
p302
aS'18-912b48ccaa4a1b3a58417d32e6af22ac.raw'
p303
aS'18-9d484817327e5204821c4e6f1443325f.raw'
p304
aS'18-6179da1735dbe728081cc9777e34a943.raw'
p305
ag179
aS'18-14ec5a8be4dd7b4a7c1cb9cc650e69e7.raw'
p306
ag238
aS'18-2778ea0fff795b00a7e53651bd0d0918.raw'
p307
aS'18-0a4f49f012d9e6d3d351429d21067f80.raw'
p308
ag1
aS'18-b94fa95baf38c5ef2fd86c3cb0a4df80.raw'
p309
aS'18-381cc747998d7051190bc664320adb02.raw'
p310
aS'18-c81009dff546a60518b8ec0e2ae585ef.raw'
p311
aS'18-0a2e7517f212cfdb07e53fb40ca88a3b.raw'
p312
aS'18-e2b1b4e0bf4b90990a40f7a34ae948b1.raw'
p313
aS'18-44215390c24722a1f3312ff6c971ed5d.raw'
p314
aS'18-b2ebf70fe337f60aca09b08324f1298f.raw'
p315
aS'18-ac2043756687ae5c577a9c5536b1be4f.raw'
p316
aS'18-55a908af392f7b0fa3610429bd41d261.raw'
p317
aS'18-b77a92b99fc1b9901b025a88f2f53223.raw'
p318
aS'18-57df85db3da0ff1579711c2951fdcf8e.raw'
p319
ag25
aS'18-64cb3200922af17f409aa0c5cb06d821.raw'
p320
asg304
(lp321
S'18-9d484817327e5204821c4e6f1443325f.raw'
p322
ag304
asg307
(lp323
S'18-d7535adefffd3895cd099a6a63a3ba76.raw'
p324
asg189
(lp325
S'14.6-5c8c0cf8755b027234eb50717723113e.raw'
p326
asg277
(lp327
S'18-d7535adefffd3895cd099a6a63a3ba76.raw'
p328
asg78
(lp329
S'29-7e1342bba879767880aaf65d9e6859c9.raw'
p330
ag78
aS'29-7d153ea9f08017d5b539621d88792597.raw'
p331
ag79
ag80
ag81
ag82
ag83
ag84
ag85
ag87
asg309
(lp332
S'18-d7535adefffd3895cd099a6a63a3ba76.raw'
p333
asg127
(lp334
S'8-2868ff07e1bc760488962955a850a7be.raw'
p335
asg206
(lp336
S'14.6-5c8c0cf8755b027234eb50717723113e.raw'
p337
asg319
(lp338
S'18-d7535adefffd3895cd099a6a63a3ba76.raw'
p339
asg193
(lp340
S'14.6-5c8c0cf8755b027234eb50717723113e.raw'
p341
asg191
(lp342
S'14.6-5c8c0cf8755b027234eb50717723113e.raw'
p343
asg80
(lp344
S'29-7e1342bba879767880aaf65d9e6859c9.raw'
p345
aS'29-7d153ea9f08017d5b539621d88792597.raw'
p346
asg313
(lp347
S'18-d7535adefffd3895cd099a6a63a3ba76.raw'
p348
asg314
(lp349
S'18-d7535adefffd3895cd099a6a63a3ba76.raw'
p350
asg54
(lp351
S'20-9fe5317a305e0281b9565a65af03da0e.raw'
p352
asg58
(lp353
S'20-9fe5317a305e0281b9565a65af03da0e.raw'
p354
asg84
(lp355
S'29-7e1342bba879767880aaf65d9e6859c9.raw'
p356
aS'29-7d153ea9f08017d5b539621d88792597.raw'
p357
asg208
(lp358
S'14.6-5c8c0cf8755b027234eb50717723113e.raw'
p359
asg285
(lp360
S'18-d7535adefffd3895cd099a6a63a3ba76.raw'
p361
asg292
(lp362
S'18-d7535adefffd3895cd099a6a63a3ba76.raw'
p363
asg248
(lp364
S'18-d7535adefffd3895cd099a6a63a3ba76.raw'
p365
asg124
(lp366
S'8-2868ff07e1bc760488962955a850a7be.raw'
p367
asg87
(lp368
S'29-7e1342bba879767880aaf65d9e6859c9.raw'
p369
aS'29-7d153ea9f08017d5b539621d88792597.raw'
p370
aS'29-7d153ea9f08017d5b539621d88792597.raw'
p371
asg204
(lp372
S'14.6-5c8c0cf8755b027234eb50717723113e.raw'
p373
asg253
(lp374
S'18-d7535adefffd3895cd099a6a63a3ba76.raw'
p375
asS'13.1-288c8038afd9b6cc56c3f5caafc46659.raw'
p376
(lp377
S'13.3-b3350817df8b4325a32beb9fbe3c6dee.raw'
p378
asg301
(lp379
S'18-d7535adefffd3895cd099a6a63a3ba76.raw'
p380
asg295
(lp381
S'18-d7535adefffd3895cd099a6a63a3ba76.raw'
p382
asg276
(lp383
S'18-d7535adefffd3895cd099a6a63a3ba76.raw'
p384
asg317
(lp385
S'18-d7535adefffd3895cd099a6a63a3ba76.raw'
p386
asS'2-3175eb2416c74a21578880850279a9b9.raw'
p387
(lp388
S'2-4c6784225bb509cd6d33e2ed852d22d1.raw'
p389
asg199
(lp390
S'14.6-5c8c0cf8755b027234eb50717723113e.raw'
p391
asg318
(lp392
S'18-d7535adefffd3895cd099a6a63a3ba76.raw'
p393
asg69
(lp394
S'22.3.2-7ea4921beff80e610ebf67cff4add312.raw'
p395
asg45
(lp396
S'27.1-ab179e4c4ac589ed3c62709ac7a303db.raw'
p397
asS'5.2-6c46afb635caee9a2a0507755f9d3bf5.raw'
p398
(lp399
S'5.2-1b1f137c7c020fb02936967ac3f90af4.raw'
p400
asS'2-3198a859272ea31824e4ed89a323e25d.raw'
p401
(lp402
S'2-4c6784225bb509cd6d33e2ed852d22d1.raw'
p403
asg250
(lp404
S'18-d7535adefffd3895cd099a6a63a3ba76.raw'
p405
asg107
(lp406
S'4.2-0c46eace7006b062883311d87a6ddcac.raw'
p407
asS'12-841c1f8c7c3ed9e12d557080b43b2d15.raw'
p408
(lp409
S'12-b9fe2c1354670d81c61a3d222cfa587f.raw'
p410
asS'13.4-47ea273905201c9e02e0fe09b7fb9f8f.raw'
p411
(lp412
S'13.3-b3350817df8b4325a32beb9fbe3c6dee.raw'
p413
asg210
(lp414
S'14.6-5c8c0cf8755b027234eb50717723113e.raw'
p415
asS'13.4-abd246a1cbdc0cde74e6b1cd53452538.raw'
p416
(lp417
S'13.3-b3350817df8b4325a32beb9fbe3c6dee.raw'
p418
asg201
(lp419
S'14.6-5c8c0cf8755b027234eb50717723113e.raw'
p420
asS'13.3-45866d6a2a2b63c23fea2a4add3f45e7.raw'
p421
(lp422
S'13.3-b3350817df8b4325a32beb9fbe3c6dee.raw'
p423
asg302
(lp424
S'18-d7535adefffd3895cd099a6a63a3ba76.raw'
p425
asg65
(lp426
S'22.3.2-7ea4921beff80e610ebf67cff4add312.raw'
p427
ag65
ag66
ag67
ag68
ag69
ag70
ag71
ag22
asS'13.3-a3a326578f510500d496da838e861e39.raw'
p428
(lp429
S'13.3-b3350817df8b4325a32beb9fbe3c6dee.raw'
p430
asg70
(lp431
S'22.3.2-7ea4921beff80e610ebf67cff4add312.raw'
p432
asS'11-8d3ab9604c4b711df7a62725e00d200f.raw'
p433
(lp434
S'11-3a28452fc0b7572a345514aa66a5e628.raw'
p435
asS'2-46f0a11bf9418eb4f7d17aa5921068ff.raw'
p436
(lp437
S'2-4c6784225bb509cd6d33e2ed852d22d1.raw'
p438
asg81
(lp439
S'29-7e1342bba879767880aaf65d9e6859c9.raw'
p440
aS'29-7d153ea9f08017d5b539621d88792597.raw'
p441
asg106
(lp442
S'4.2-0c46eace7006b062883311d87a6ddcac.raw'
p443
asg200
(lp444
S'14.6-5c8c0cf8755b027234eb50717723113e.raw'
p445
asg311
(lp446
S'18-d7535adefffd3895cd099a6a63a3ba76.raw'
p447
asg195
(lp448
S'14.6-5c8c0cf8755b027234eb50717723113e.raw'
p449
asS'5.3-718a9b08a38c979146cece8ff674ecd2.raw'
p450
(lp451
S'5.3-718a9b08a38c979146cece8ff674ecd2.raw'
p452
ag450
asS'13.3-5146ee29ac94df89999dbae30adbcbce.raw'
p453
(lp454
S'13.3-b3350817df8b4325a32beb9fbe3c6dee.raw'
p455
asg202
(lp456
S'14.6-5c8c0cf8755b027234eb50717723113e.raw'
p457
asS'12-377ef3eb6fc66dca14c689ba50093822.raw'
p458
(lp459
S'12-b9fe2c1354670d81c61a3d222cfa587f.raw'
p460
asg230
(lp461
S'11-3a28452fc0b7572a345514aa66a5e628.raw'
p462
asg265
(lp463
S'18-d7535adefffd3895cd099a6a63a3ba76.raw'
p464
asg268
(lp465
S'18-d7535adefffd3895cd099a6a63a3ba76.raw'
p466
asS'13.4-94fffddce8696589bf864bde06f9c404.raw'
p467
(lp468
S'13.3-b3350817df8b4325a32beb9fbe3c6dee.raw'
p469
asg243
(lp470
S'18-d7535adefffd3895cd099a6a63a3ba76.raw'
p471
asg273
(lp472
S'18-d7535adefffd3895cd099a6a63a3ba76.raw'
p473
asS'13.4-c6a0c5b1cc5d0a0f8b394c09d8e73898.raw'
p474
(lp475
S'13.3-b3350817df8b4325a32beb9fbe3c6dee.raw'
p476
asS'11-6c1bc1614d57c66fe536d3c31a05cafd.raw'
p477
(lp478
S'11-3a28452fc0b7572a345514aa66a5e628.raw'
p479
asS'13.4-53150ca0f9e16cef2cf5049671377fce.raw'
p480
(lp481
S'13.3-b3350817df8b4325a32beb9fbe3c6dee.raw'
p482
asg85
(lp483
S'29-7e1342bba879767880aaf65d9e6859c9.raw'
p484
aS'29-7d153ea9f08017d5b539621d88792597.raw'
p485
asg209
(lp486
S'14.6-5c8c0cf8755b027234eb50717723113e.raw'
p487
asS'12-9cd1d6aaefada16a119db43a95c6c99d.raw'
p488
(lp489
S'12-b9fe2c1354670d81c61a3d222cfa587f.raw'
p490
asS'13.4-0607a0bf149c643e03c78d5af2e8d0ba.raw'
p491
(lp492
S'13.3-b3350817df8b4325a32beb9fbe3c6dee.raw'
p493
asg305
(lp494
S'18-d7535adefffd3895cd099a6a63a3ba76.raw'
p495
asS'13.3-b9464dc3399bf9a7b16fe79a7228addb.raw'
p496
(lp497
S'13.3-b3350817df8b4325a32beb9fbe3c6dee.raw'
p498
asg48
(lp499
S'27.1-ab179e4c4ac589ed3c62709ac7a303db.raw'
p500
asS'13.4-9103109fb14ae9a52874887a738ef1e3.raw'
p501
(lp502
S'13.3-b3350817df8b4325a32beb9fbe3c6dee.raw'
p503
asg290
(lp504
S'18-d7535adefffd3895cd099a6a63a3ba76.raw'
p505
asg306
(lp506
S'18-d7535adefffd3895cd099a6a63a3ba76.raw'
p507
asS'2-8b95ea1626adbeb7a0320dbbcc1a5ca9.raw'
p508
(lp509
S'2-4c6784225bb509cd6d33e2ed852d22d1.raw'
p510
asg264
(lp511
S'18-d7535adefffd3895cd099a6a63a3ba76.raw'
p512
asg57
(lp513
S'20-9fe5317a305e0281b9565a65af03da0e.raw'
p514
asg312
(lp515
S'18-d7535adefffd3895cd099a6a63a3ba76.raw'
p516
asg205
(lp517
S'14.6-5c8c0cf8755b027234eb50717723113e.raw'
p518
ag205
ag206
ag207
ag208
ag209
ag210
ag142
ag34
ag211
ag212
ag213
asg103
(lp519
S'4.2-0c46eace7006b062883311d87a6ddcac.raw'
p520
asS'2-07102bc47086fd712224bb9f153ebfcc.raw'
p521
(lp522
S'2-4c6784225bb509cd6d33e2ed852d22d1.raw'
p523
asS'5.2-4e062f22fb165a7dafbd4f3aaea7a3e9.raw'
p524
(lp525
S'5.2-1b1f137c7c020fb02936967ac3f90af4.raw'
p526
asg279
(lp527
S'18-d7535adefffd3895cd099a6a63a3ba76.raw'
p528
asg46
(lp529
S'27.1-ab179e4c4ac589ed3c62709ac7a303db.raw'
p530
ag46
ag47
ag37
ag13
ag48
ag49
ag50
asg261
(lp531
S'18-d7535adefffd3895cd099a6a63a3ba76.raw'
p532
asS'12-63f4ef9fedf2e6cb56ffecc61154e040.raw'
p533
(lp534
S'12-b9fe2c1354670d81c61a3d222cfa587f.raw'
p535
asg291
(lp536
S'18-d7535adefffd3895cd099a6a63a3ba76.raw'
p537
asg299
(lp538
S'18-d7535adefffd3895cd099a6a63a3ba76.raw'
p539
asg257
(lp540
S'18-d7535adefffd3895cd099a6a63a3ba76.raw'
p541
asS'2'
p542
(lp543
S'2-1ab33f0980ffdaf71a80fa1e9b34a8da.raw'
p544
aS'2-4c6784225bb509cd6d33e2ed852d22d1.raw'
p545
ag508
ag436
ag401
aS'2-9fc3f20b92dc5b2a2d39e4f3c39465eb.raw'
p546
aS'2-1d58be103d9de9739318d1428d6aaaad.raw'
p547
ag387
ag521
asg282
(lp548
S'18-d7535adefffd3895cd099a6a63a3ba76.raw'
p549
asS'5.2-2ad3ffa74c561a87cdf03e6edd4f0e66.raw'
p550
(lp551
S'5.2-1b1f137c7c020fb02936967ac3f90af4.raw'
p552
asS'11-3b8daf3643167e3d7395ad71074b2e7e.raw'
p553
(lp554
S'11-3a28452fc0b7572a345514aa66a5e628.raw'
p555
asS'13.3-af5ac74936f3423dda283bda6eaec5f3.raw'
p556
(lp557
S'13.3-b3350817df8b4325a32beb9fbe3c6dee.raw'
p558
asg259
(lp559
S'18-d7535adefffd3895cd099a6a63a3ba76.raw'
p560
asg196
(lp561
S'14.6-5c8c0cf8755b027234eb50717723113e.raw'
p562
asg281
(lp563
S'18-d7535adefffd3895cd099a6a63a3ba76.raw'
p564
asg109
(lp565
S'4.2-0c46eace7006b062883311d87a6ddcac.raw'
p566
asS'13.3-648f3855faf8e9d978649435a9b6c668.raw'
p567
(lp568
S'13.3-b3350817df8b4325a32beb9fbe3c6dee.raw'
p569
asS'11-5f09831df5e3d93b56c5d0b628f0dec2.raw'
p570
(lp571
S'11-3a28452fc0b7572a345514aa66a5e628.raw'
p572
asg77
(lp573
S'29-7e1342bba879767880aaf65d9e6859c9.raw'
p574
aS'29-7d153ea9f08017d5b539621d88792597.raw'
p575
asg286
(lp576
S'18-d7535adefffd3895cd099a6a63a3ba76.raw'
p577
asS'5.2-3eebecf1fb743037423b711d06bab4e6.raw'
p578
(lp579
S'5.2-1b1f137c7c020fb02936967ac3f90af4.raw'
p580
asg231
(lp581
S'11-3a28452fc0b7572a345514aa66a5e628.raw'
p582
asg119
(lp583
S'8-2868ff07e1bc760488962955a850a7be.raw'
p584
asg232
(lp585
S'11-3a28452fc0b7572a345514aa66a5e628.raw'
p586
asg194
(lp587
S'14.6-5c8c0cf8755b027234eb50717723113e.raw'
p588
asS'5.2-6c0d6173e751df0bfa8e7d872b7a2475.raw'
p589
(lp590
S'5.2-1b1f137c7c020fb02936967ac3f90af4.raw'
p591
asg59
(lp592
S'20-9fe5317a305e0281b9565a65af03da0e.raw'
p593
asS'13.4-5910c183bfb66d874a7b0978b42eb786.raw'
p594
(lp595
S'13.3-b3350817df8b4325a32beb9fbe3c6dee.raw'
p596
asg50
(lp597
S'27.1-ab179e4c4ac589ed3c62709ac7a303db.raw'
p598
asg254
(lp599
S'18-d7535adefffd3895cd099a6a63a3ba76.raw'
p600
asg71
(lp601
S'22.3.2-7ea4921beff80e610ebf67cff4add312.raw'
p602
asg269
(lp603
S'18-d7535adefffd3895cd099a6a63a3ba76.raw'
p604
asg61
(lp605
S'20-9fe5317a305e0281b9565a65af03da0e.raw'
p606
asg188
(lp607
S'14.6-5c8c0cf8755b027234eb50717723113e.raw'
p608
asg300
(lp609
S'18-d7535adefffd3895cd099a6a63a3ba76.raw'
p610
asg275
(lp611
S'18-d7535adefffd3895cd099a6a63a3ba76.raw'
p612
asS'12-28e53f7f15e38ffc3d3bb6f6b00fdf71.raw'
p613
(lp614
S'12-b9fe2c1354670d81c61a3d222cfa587f.raw'
p615
asS'13'
p616
(lp617
S'13.4-623d1927af531d6fb99c39868a14d943.raw'
p618
ag159
ag376
ag428
ag501
ag480
aS'13.4-0cb632c320b38a27aaacf609f569dca2.raw'
p619
ag491
ag594
ag453
ag474
ag567
ag421
aS'13.3-b3350817df8b4325a32beb9fbe3c6dee.raw'
p620
ag496
ag416
ag91
ag467
ag411
aS'13.3-7615402ce799c327e8045c070a389762.raw'
p621
ag556
asS'12'
p622
(lp623
g533
ag28
ag613
ag408
aS'12-a217768c5844790c5c90a2fe1f09be8c.raw'
p624
ag458
ag488
ag128
aS'12-b9fe2c1354670d81c61a3d222cfa587f.raw'
p625
asg297
(lp626
S'18-d7535adefffd3895cd099a6a63a3ba76.raw'
p627
asg545
(lp628
S'2-4c6784225bb509cd6d33e2ed852d22d1.raw'
p629
ag545
ag508
ag436
ag401
ag546
ag547
ag387
ag521
asg284
(lp630
S'18-d7535adefffd3895cd099a6a63a3ba76.raw'
p631
asg192
(lp632
S'14.6-5c8c0cf8755b027234eb50717723113e.raw'
p633
asS'5.2-4cd886b30d0e401c15e6e77f84ec82ff.raw'
p634
(lp635
S'5.2-1b1f137c7c020fb02936967ac3f90af4.raw'
p636
asg122
(lp637
S'8-2868ff07e1bc760488962955a850a7be.raw'
p638
asg625
(lp639
S'12-b9fe2c1354670d81c61a3d222cfa587f.raw'
p640
ag625
asg293
(lp641
S'18-d7535adefffd3895cd099a6a63a3ba76.raw'
p642
asg117
(lp643
S'8-2868ff07e1bc760488962955a850a7be.raw'
p644
asg198
(lp645
S'14.6-5c8c0cf8755b027234eb50717723113e.raw'
p646
asg79
(lp647
S'29-7e1342bba879767880aaf65d9e6859c9.raw'
p648
aS'29-7d153ea9f08017d5b539621d88792597.raw'
p649
asg101
(lp650
S'4.2-0c46eace7006b062883311d87a6ddcac.raw'
p651
asg303
(lp652
S'18-d7535adefffd3895cd099a6a63a3ba76.raw'
p653
asg315
(lp654
S'18-d7535adefffd3895cd099a6a63a3ba76.raw'
p655
asg271
(lp656
S'18-d7535adefffd3895cd099a6a63a3ba76.raw'
p657
asg125
(lp658
S'8-2868ff07e1bc760488962955a850a7be.raw'
p659
ag125
ag126
ag127
asg272
(lp660
S'18-d7535adefffd3895cd099a6a63a3ba76.raw'
p661
asg624
(lp662
S'12-b9fe2c1354670d81c61a3d222cfa587f.raw'
p663
asg67
(lp664
S'22.3.2-7ea4921beff80e610ebf67cff4add312.raw'
p665
asg252
(lp666
S'18-d7535adefffd3895cd099a6a63a3ba76.raw'
p667
asg251
(lp668
S'18-d7535adefffd3895cd099a6a63a3ba76.raw'
p669
ag251
ag252
ag253
ag254
ag145
ag255
ag256
ag257
ag19
ag258
ag259
ag182
ag260
ag261
ag262
ag263
ag264
ag137
ag150
ag112
ag265
ag266
ag267
ag268
ag269
ag216
ag16
ag270
ag271
ag173
ag272
ag273
ag274
ag275
ag276
ag277
ag278
ag279
ag280
ag233
ag281
ag282
ag31
ag283
ag284
ag285
ag286
ag224
ag287
ag288
ag289
ag165
ag290
ag219
ag291
ag292
ag156
ag293
ag294
ag295
ag296
ag297
ag298
ag299
ag300
ag88
ag301
ag302
ag303
ag305
ag179
ag306
ag238
ag307
ag308
ag1
ag309
ag310
ag311
ag312
ag313
ag314
ag315
ag316
ag317
ag318
ag319
ag25
ag320
asg245
(lp670
S'18-d7535adefffd3895cd099a6a63a3ba76.raw'
p671
asg267
(lp672
S'18-d7535adefffd3895cd099a6a63a3ba76.raw'
p673
asg56
(lp674
S'20-9fe5317a305e0281b9565a65af03da0e.raw'
p675
ag56
ag57
ag58
ag59
ag60
ag61
ag62
asg82
(lp676
S'29-7e1342bba879767880aaf65d9e6859c9.raw'
p677
aS'29-7d153ea9f08017d5b539621d88792597.raw'
p678
asg86
(lp679
S'29.1-257cc578a26560b7ae9ec7888f54a1ad.raw'
p680
ag86
asg249
(lp681
S'18-d7535adefffd3895cd099a6a63a3ba76.raw'
p682
asS'5.2-1ebf3a323982d3b61617f866ed3b5551.raw'
p683
(lp684
S'5.2-1b1f137c7c020fb02936967ac3f90af4.raw'
p685
asg53
(lp686
S'20-9fe5317a305e0281b9565a65af03da0e.raw'
p687
asg102
(lp688
S'4.2-0c46eace7006b062883311d87a6ddcac.raw'
p689
asg621
(lp690
S'13.3-b3350817df8b4325a32beb9fbe3c6dee.raw'
p691
asg190
(lp692
S'14.6-5c8c0cf8755b027234eb50717723113e.raw'
p693
asg68
(lp694
S'22.3.2-7ea4921beff80e610ebf67cff4add312.raw'
p695
asS'11'
p696
(lp697
g477
ag553
ag570
ag433
ag131
ag227
ag72
ag230
ag231
ag232
asg308
(lp698
S'18-d7535adefffd3895cd099a6a63a3ba76.raw'
p699
asS'5.2-6e7354142c10c6937f8dec04728b2454.raw'
p700
(lp701
S'5.2-1b1f137c7c020fb02936967ac3f90af4.raw'
p702
asg310
(lp703
S'18-d7535adefffd3895cd099a6a63a3ba76.raw'
p704
asg256
(lp705
S'18-d7535adefffd3895cd099a6a63a3ba76.raw'
p706
asg274
(lp707
S'18-d7535adefffd3895cd099a6a63a3ba76.raw'
p708
asg247
(lp709
S'18-d7535adefffd3895cd099a6a63a3ba76.raw'
p710
asg49
(lp711
S'27.1-ab179e4c4ac589ed3c62709ac7a303db.raw'
p712
asg207
(lp713
S'14.6-5c8c0cf8755b027234eb50717723113e.raw'
p714
asg104
(lp715
S'4.2-0c46eace7006b062883311d87a6ddcac.raw'
p716
ag104
ag105
ag106
ag107
ag108
ag4
ag109
ag96
asS'5'
p717
(lp718
g10
ag634
ag578
ag450
ag550
ag398
ag683
ag589
ag700
ag524
ag170
asg619
(lp719
S'13.3-b3350817df8b4325a32beb9fbe3c6dee.raw'
p720
asg320
(lp721
S'18-d7535adefffd3895cd099a6a63a3ba76.raw'
p722
asg289
(lp723
S'18-d7535adefffd3895cd099a6a63a3ba76.raw'
p724
asg123
(lp725
S'8-2868ff07e1bc760488962955a850a7be.raw'
p726
asg278
(lp727
S'18-d7535adefffd3895cd099a6a63a3ba76.raw'
p728
asg287
(lp729
S'18-d7535adefffd3895cd099a6a63a3ba76.raw'
p730
asg288
(lp731
S'18-d7535adefffd3895cd099a6a63a3ba76.raw'
p732
asg197
(lp733
S'14.6-5c8c0cf8755b027234eb50717723113e.raw'
p734
asg316
(lp735
S'18-d7535adefffd3895cd099a6a63a3ba76.raw'
p736
asg213
(lp737
S'14.6-5c8c0cf8755b027234eb50717723113e.raw'
p738
asg246
(lp739
S'18-d7535adefffd3895cd099a6a63a3ba76.raw'
p740
asg187
(lp741
S'14.6-5c8c0cf8755b027234eb50717723113e.raw'
p742
asg263
(lp743
S'18-d7535adefffd3895cd099a6a63a3ba76.raw'
p744
asg262
(lp745
S'18-d7535adefffd3895cd099a6a63a3ba76.raw'
p746
asg266
(lp747
S'18-d7535adefffd3895cd099a6a63a3ba76.raw'
p748
asg47
(lp749
S'27.1-ab179e4c4ac589ed3c62709ac7a303db.raw'
p750
asg270
(lp751
S'18-d7535adefffd3895cd099a6a63a3ba76.raw'
p752
asg260
(lp753
S'18-d7535adefffd3895cd099a6a63a3ba76.raw'
p754
asg544
(lp755
S'2-4c6784225bb509cd6d33e2ed852d22d1.raw'
p756
asg244
(lp757
S'18-d7535adefffd3895cd099a6a63a3ba76.raw'
p758
asg620
(lp759
S'13.3-b3350817df8b4325a32beb9fbe3c6dee.raw'
p760
ag620
ag496
ag416
ag91
ag467
ag411
ag621
ag556
asg255
(lp761
S'18-d7535adefffd3895cd099a6a63a3ba76.raw'
p762
asg108
(lp763
S'4.2-0c46eace7006b062883311d87a6ddcac.raw'
p764
asg126
(lp765
S'8-2868ff07e1bc760488962955a850a7be.raw'
p766
asg258
(lp767
S'18-d7535adefffd3895cd099a6a63a3ba76.raw'
p768
asg296
(lp769
S'18-d7535adefffd3895cd099a6a63a3ba76.raw'
p770
asg298
(lp771
S'18-d7535adefffd3895cd099a6a63a3ba76.raw'
p772
asg105
(lp773
S'4.2-0c46eace7006b062883311d87a6ddcac.raw'
p774
asg211
(lp775
S'14.6-5c8c0cf8755b027234eb50717723113e.raw'
p776
asg294
(lp777
S'18-d7535adefffd3895cd099a6a63a3ba76.raw'
p778
asg547
(lp779
S'2-4c6784225bb509cd6d33e2ed852d22d1.raw'
p780
asg280
(lp781
S'18-d7535adefffd3895cd099a6a63a3ba76.raw'
p782
asg618
(lp783
S'13.3-b3350817df8b4325a32beb9fbe3c6dee.raw'
p784
asg120
(lp785
S'8-6bf6cb9da054e0d5b22b0f4c5f54f59a.raw'
p786
ag120
asg283
(lp787
S'18-d7535adefffd3895cd099a6a63a3ba76.raw'
p788
asg546
(lp789
S'2-4c6784225bb509cd6d33e2ed852d22d1.raw'
p790
as.