(dp0
S'24'
p1
(lp2
S'X-f1047767508120e85bc9033c4298455d'
p3
aS'X-735cfdb0fdf65297e870874fd639144c'
p4
asS'25'
p5
(lp6
S'X-e3173170378f294fecea500ee36f978c'
p7
asS'20'
p8
(lp9
S'X-1bc7730b896ee7a9ff23633d3a320426'
p10
aS'X-84007c49e3ba46d4e4b20b60a64c62ad'
p11
aS'X-b1aa12dd78548f743c80e0170933f231'
p12
aS'X-44f423f66c869f4c9015eb9004051d64'
p13
aS'X-92b60a5247cd8947fde797e044de5c59'
p14
aS'X-b2951ecf331e30c4f67b8c9619e98762'
p15
aS'X-d2bde6c6c161d6b7c2b7113ff2c134d6'
p16
aS'X-329e4ddd8cb770d3ca08153f09672269'
p17
aS'X-cf56afef560a1e116973d9153cf713e9'
p18
aS'X-9fc1662057f0f5b74389153efabd866d'
p19
aS'X-612e88797211219c08d554f2bcd3983e'
p20
aS'X-4af55923a89f444d88c0deb9325b31a1'
p21
aS'X-d77359adaa134d4019b38e311df11c60'
p22
aS'X-e788991348ef679caa1dffd99dac921c'
p23
aS'X-5403992b14e29feed7ff2bf8b6ffa7b9'
p24
aS'X-c69065f1942b7dbc1fb9d9c1ffb44796'
p25
aS'X-c21ba620aef16977332cca54020c40a5'
p26
aS'X-afe08efaba8ea3a2a8ecf8045db248db'
p27
aS'X-05a6173bf1df05e6da48c88153f01be9'
p28
aS'X-b3f70814b7b6474f21b061b9e6a2dd5d'
p29
aS'X-bbbca3173ffc2f614681a3ff0803ba1f'
p30
aS'X-bd64d03ca5865ee451af73e0da4a52f2'
p31
aS'X-b3032cce47fb803a43faf687002ed159'
p32
aS'X-8bd9ecf43eecbf9a1d22953187ed1fac'
p33
aS'X-6fde343034337c3f219b1efda5145b67'
p34
aS'X-23214e9c5b8475eb5ab78cd89ed05a27'
p35
aS'X-c7f8932f90da8b029157fe1a56d1975c'
p36
aS'X-772a2f338a45cc51f5a6dee4f1113883'
p37
aS'X-b8ee537b9ee9d87435b5137ffafee59e'
p38
aS'X-4614d92cb575ea0c113c799aa388bd20'
p39
aS'X-78fcb2f3eb19826cf6a0ac2e787ac913'
p40
aS'X-ef607644ad2102ab03556ecbd824ad27'
p41
aS'X-f688d75f04282658a73a664f31180e3a'
p42
aS'X-ce071e701810a9442e71062899c74145'
p43
aS'X-cc52c97b42d0dc2658eb7f9ad108565d'
p44
aS'X-e5f14011fb325cdbfc569aea683180b3'
p45
aS'X-769fe718c8c4d7ce735b02323b301fa2'
p46
aS'X-d42a45406d1af20791659e8092c73e95'
p47
aS'X-673944da0681b9008ae1e14faf5ccb9a'
p48
aS'X-b6ffeff674641a5095a1438019ecbe0c'
p49
aS'X-03fad3803448b250bce237ac224bb81a'
p50
aS'X-04bd10f48ea55f9bc668e9621aa806d5'
p51
aS'X-44c2d68f4fe2156e734a8b99075e35bb'
p52
aS'X-ffc9b15d997f6a180b60fc0327c1c5c3'
p53
aS'X-f363ab6a9f0231f6ae27ad8d12390396'
p54
aS'X-8ecb7d7af5ff8a8dfd33c5a8b19bac8f'
p55
aS'X-925184f7d7067a634558133ce6036c08'
p56
aS'X-ce281aef20e8a6c3cfe21df7a34d9481'
p57
aS'X-638edba5c6c2d8da326d35b8415980a8'
p58
aS'X-e40a6321537de678114a0cdc86fae124'
p59
aS'X-54fd34514b136e3fbc86b87ac285a3c1'
p60
aS'X-58a656187505655ac6086533da7cc8ae'
p61
aS'X-7270f158b44e7690130265f704758036'
p62
asS'18'
p63
(lp64
S'X-0a8ead81bef975756c87a48a83a26d6c'
p65
asS'2'
p66
(lp67
S'X-36b199911f1302f06e024159aff21d54'
p68
aS'X-0d7848ef3f5db9ac7665ab34690e8d0d'
p69
aS'X-679f666fddbd37901631b14b47376c35'
p70
aS'X-4cacf6ab7717e73441efc30f797fd387'
p71
aS'X-bea5f26719db054addd040694aa51da2'
p72
asS'X'
p73
(lp74
g68
ag7
ag10
ag11
ag69
ag12
ag13
ag14
ag15
ag16
ag17
ag18
ag19
ag3
ag20
ag21
ag22
ag23
ag24
ag25
ag26
ag70
ag27
ag28
ag29
ag30
ag4
ag31
ag32
ag33
ag34
ag35
ag36
ag37
ag38
ag39
ag40
ag65
ag71
ag41
ag42
ag43
ag44
ag45
ag46
ag47
ag48
ag49
ag50
ag51
ag52
ag72
ag53
ag54
ag55
ag56
ag57
ag58
ag59
ag60
ag61
ag62
as.