(dp0
S'18-fe5e8c1bd8291d61eaeb791821a20885.raw'
p1
(lp2
S'18-d7535adefffd3895cd099a6a63a3ba76.raw'
p3
asS'6.2-b6928a9b23914dd4576c42f8e1283a15.raw'
p4
(lp5
S'6.2-3ca4908cf4fc08e5fc0e7a07e92f6df8.raw'
p6
asS'27.1-9287789d5fa163b76fb37324d72439e8.raw'
p7
(lp8
S'27.1-ab179e4c4ac589ed3c62709ac7a303db.raw'
p9
asS'5.2-5a63cd881fbb0e8e949435af162f66a1.raw'
p10
(lp11
S'5.2-1b1f137c7c020fb02936967ac3f90af4.raw'
p12
asS'27.1-c6271d80e2ee3fa6cfb23bb9aa2f3990.raw'
p13
(lp14
S'27.1-ab179e4c4ac589ed3c62709ac7a303db.raw'
p15
asS'18-2aa9591f791c94e68eec402e2cd4001c.raw'
p16
(lp17
S'18-d7535adefffd3895cd099a6a63a3ba76.raw'
p18
asS'18-c81009dff546a60518b8ec0e2ae585ef.raw'
p19
(lp20
S'18-d7535adefffd3895cd099a6a63a3ba76.raw'
p21
asS'18-ad82c7ae9ac6e8fe687bd1564874c72c.raw'
p22
(lp23
S'18-d7535adefffd3895cd099a6a63a3ba76.raw'
p24
asS'22.3.2-08b44d3ce119d92d63d71d84d8a06cec.raw'
p25
(lp26
S'22.3.2-7ea4921beff80e610ebf67cff4add312.raw'
p27
asS'18-d54518652204bf0176d138f7e13d2620.raw'
p28
(lp29
S'18-d7535adefffd3895cd099a6a63a3ba76.raw'
p30
asS'15'
p31
(lp32
S'15-ca25c55fd256d92b48b81cb36f1a6db7.raw'
p33
asS'12-be64d678f26456582854796b5ff13bf6.raw'
p34
(lp35
S'12-b9fe2c1354670d81c61a3d222cfa587f.raw'
p36
asS'25-e3173170378f294fecea500ee36f978c.raw'
p37
(lp38
S'25-e3173170378f294fecea500ee36f978c.raw'
p39
ag37
asS'14.6-76e8f6f9bd06d43aaccfbe7177742f76.raw'
p40
(lp41
S'14.6-5c8c0cf8755b027234eb50717723113e.raw'
p42
asS'27.1-ef24332132de511c670eab43b6f9e4b3.raw'
p43
(lp44
S'27.1-ab179e4c4ac589ed3c62709ac7a303db.raw'
p45
asS'24'
p46
(lp47
S'24.1-735cfdb0fdf65297e870874fd639144c.raw'
p48
aS'24.2-a641b4d1a37d9a53b81c53f44de5c011.raw'
p49
asS'18-a007919d3b6c2269a0ac5ec40c270c3b.raw'
p50
(lp51
S'18-d7535adefffd3895cd099a6a63a3ba76.raw'
p52
asS'26'
p53
(lp54
S'26-52957384c31989b60220038ac726544d.raw'
p55
asS'27'
p56
(lp57
S'27.1-3941138ef3c32bff63426686c636ac91.raw'
p58
ag7
aS'27.1-ab179e4c4ac589ed3c62709ac7a303db.raw'
p59
aS'27.1-398710d6fa8388dcc4fdf1c75b3750fe.raw'
p60
ag43
ag13
aS'27.1-afda9cbcae6e14cb124e69e01c1097ad.raw'
p61
aS'27.1-c5b561e02d256335c664d72a5902ebd8.raw'
p62
aS'27.1-ec959179d203cda789049ab3e9941d5a.raw'
p63
asS'20'
p64
(lp65
S'20-8f2c131566e0fa0797167136e4c66f68.raw'
p66
aS'20-0201aa1bf4a1200a54d236f1c49449fa.raw'
p67
aS'20-1dc8b8cf46b4a7cef873e8cbb3ea481f.raw'
p68
aS'20-9fe5317a305e0281b9565a65af03da0e.raw'
p69
aS'20-14ae103e4740fce8665807cdab0349ff.raw'
p70
aS'20-2d4b0f06e65449a9f94540f58eca448e.raw'
p71
aS'20-79d83b3d5e58ded9eb9e6503e2a5493b.raw'
p72
aS'20-3fff1e94006e74e16e0c47605950b546.raw'
p73
aS'20-6e9220159317af01785a33b283f4002d.raw'
p74
aS'20-8d68920c4c2ae30980aa45c55fbe797e.raw'
p75
asS'21'
p76
(lp77
S'21.2-850614dd2159b299ebb070fe238f0faa.raw'
p78
aS'21.2-249467f529746fba9990c0b9f2ccb95d.raw'
p79
asS'22'
p80
(lp81
S'22.3.2-7ea4921beff80e610ebf67cff4add312.raw'
p82
aS'22.3.2-0aeeab04849a80ac395535ee41a5d99f.raw'
p83
aS'22.3.2-25ac72d71808c9d02a6769c3fc74ebe0.raw'
p84
aS'22.3.2-0a99a3d3fc48a8ade8a484d1d333d2f8.raw'
p85
aS'22.3.2-6c08abd154da88a98e70e9d87340d01c.raw'
p86
aS'22.3.2-2d55436efdcf261469b7f74447d6c49a.raw'
p87
aS'22.3.2-0e9d98ae4246bf29697bb8618ad56770.raw'
p88
aS'22.3.2-5b97311bdf1099fa994dbd2168300e12.raw'
p89
aS'22.3.2-3f2ff1cc7837880a76ff903f018e3710.raw'
p90
ag25
asS'23'
p91
(lp92
S'23-22d6e30971b1ed67ee14bcf0711b3027.raw'
p93
asS'12-23fa60e4782edfada8ba8bb071a54a07.raw'
p94
(lp95
S'12-b9fe2c1354670d81c61a3d222cfa587f.raw'
p96
asS'28'
p97
(lp98
S'28-7b2695c036cb9224db54f73e5326f135.raw'
p99
asS'29'
p100
(lp101
S'29-22fd724b05b00687fa19a10b7357a8ac.raw'
p102
aS'29-8d216fb284c55725d577c8506418dff4.raw'
p103
aS'29-7e1342bba879767880aaf65d9e6859c9.raw'
p104
aS'29-50eba7c78b50c61d5e964c3bccad2ec4.raw'
p105
aS'29-20cfefbca05c2faa7fe643cd0fe6487c.raw'
p106
aS'29-15af40c347a16f4206b564d4d5e58be2.raw'
p107
aS'29-28689bc4d451c05931e7903d0ee17d2f.raw'
p108
aS'29-55bd961af45636738c7c5e1891bc53a9.raw'
p109
aS'29-31dc126226fbefdc012bee8dce22539d.raw'
p110
aS'29-8da56c9d1ed977fc2aec41e085241b4c.raw'
p111
aS'29.1-257cc578a26560b7ae9ec7888f54a1ad.raw'
p112
aS'29-7d153ea9f08017d5b539621d88792597.raw'
p113
asS'18-e8946c832dce383383ef8f8556a0830e.raw'
p114
(lp115
S'18-d7535adefffd3895cd099a6a63a3ba76.raw'
p116
asS'13.3-af18f4527ec7c85a6abfeb25e3b4e62c.raw'
p117
(lp118
S'13.3-b3350817df8b4325a32beb9fbe3c6dee.raw'
p119
asg68
(lp120
S'20-9fe5317a305e0281b9565a65af03da0e.raw'
p121
asS'4.2-0d0127fea275480b67f0b2cc281dfcff.raw'
p122
(lp123
S'4.2-0c46eace7006b062883311d87a6ddcac.raw'
p124
asS'4'
p125
(lp126
S'4.2-f2c84f2faea8e4493988ad3b0bad761c.raw'
p127
aS'4.2-3d65196a475c37ee0d3832471b1611c3.raw'
p128
aS'4.2-1a69e53297a98207ddff7dfd84294ab7.raw'
p129
aS'4.2-0c46eace7006b062883311d87a6ddcac.raw'
p130
aS'4.2-0d74503c28746d410a1ec27bebb6b39f.raw'
p131
aS'4.2-0a9857941967e55cc74dd84c1b208581.raw'
p132
aS'4.2-0ad5a75da3d7773120fa04c92cd3db6c.raw'
p133
aS'4.2-2ecc12bbfeac1010c7e0401f0951be9e.raw'
p134
aS'4.2-1b0b292f998270f06d3dfd5ce0e09bfe.raw'
p135
aS'4.2-0e8c2a74252999e50b36112bbe8ecd82.raw'
p136
ag122
asg73
(lp137
S'20-9fe5317a305e0281b9565a65af03da0e.raw'
p138
asS'18-7f361fd51036a64ba60fb9d71d270966.raw'
p139
(lp140
S'18-d7535adefffd3895cd099a6a63a3ba76.raw'
p141
asS'12-056b991a69facc31a7c0add58eacb05b.raw'
p142
(lp143
S'12-b9fe2c1354670d81c61a3d222cfa587f.raw'
p144
asS'11-1e5efe8964d4ff3255f415e51a8781e8.raw'
p145
(lp146
S'11-3a28452fc0b7572a345514aa66a5e628.raw'
p147
asg109
(lp148
S'29-7e1342bba879767880aaf65d9e6859c9.raw'
p149
aS'29-7d153ea9f08017d5b539621d88792597.raw'
p150
asS'11'
p151
(lp152
S'11-6c1bc1614d57c66fe536d3c31a05cafd.raw'
p153
aS'11-3b8daf3643167e3d7395ad71074b2e7e.raw'
p154
aS'11-5f09831df5e3d93b56c5d0b628f0dec2.raw'
p155
aS'11-8d3ab9604c4b711df7a62725e00d200f.raw'
p156
ag145
aS'11-3a28452fc0b7572a345514aa66a5e628.raw'
p157
aS'11-78ef0a12b949f2cbac528610ceb59f14.raw'
p158
aS'11-86a20bfefe2b942b9c105963480e81a7.raw'
p159
aS'11-48d2ab64c90e4a2983ba1b1e76442b07.raw'
p160
aS'11-55e418aed640087cd142b9f2a6d9e448.raw'
p161
asg69
(lp162
S'20-9fe5317a305e0281b9565a65af03da0e.raw'
p163
ag69
ag70
ag71
ag72
ag73
ag74
ag75
asg93
(lp164
S'23-22d6e30971b1ed67ee14bcf0711b3027.raw'
p165
ag93
asS'18-95d81076c2728cef687f3bb7e2b06d50.raw'
p166
(lp167
S'18-d7535adefffd3895cd099a6a63a3ba76.raw'
p168
asS'18-07fe449397be518966075d35851d910e.raw'
p169
(lp170
S'18-d7535adefffd3895cd099a6a63a3ba76.raw'
p171
asS'18-e8e976b95b6372bea0cd186bbe4e7a08.raw'
p172
(lp173
S'18-d7535adefffd3895cd099a6a63a3ba76.raw'
p174
asS'14.1.2-c3b69b7940ffab4f7ab1c6776621c174.raw'
p175
(lp176
S'14.1.2-ae4652b546a10c092c22036bbc0db641.raw'
p177
asS'18-f762208ebf755a34e3b2c66c7d66f4e0.raw'
p178
(lp179
S'18-d7535adefffd3895cd099a6a63a3ba76.raw'
p180
asS'13.3-d88a44af955b31b0510976f14e2fbd78.raw'
p181
(lp182
S'13.3-b3350817df8b4325a32beb9fbe3c6dee.raw'
p183
asS'18-1e736444770b6d0133bd4c6172e7452f.raw'
p184
(lp185
S'18-d7535adefffd3895cd099a6a63a3ba76.raw'
p186
asS'18-00c8670e9b3dcb9cdb85537c244dda5e.raw'
p187
(lp188
S'18-d7535adefffd3895cd099a6a63a3ba76.raw'
p189
asg83
(lp190
S'22.3.2-7ea4921beff80e610ebf67cff4add312.raw'
p191
asS'3-1bd0f2aaf90e93037ebbd1729f758c70.raw'
p192
(lp193
S'3-87937439c24a34f5eaef3422a3424d54.raw'
p194
asS'6.2-dd4bc0c9faaa062059a36be4fc15b53a.raw'
p195
(lp196
S'6.2-3ca4908cf4fc08e5fc0e7a07e92f6df8.raw'
p197
asS'5.2-1b1f137c7c020fb02936967ac3f90af4.raw'
p198
(lp199
S'5.2-1b1f137c7c020fb02936967ac3f90af4.raw'
p200
ag198
asS'18-09bacec6a7af20f8eac8d241a6b782cf.raw'
p201
(lp202
S'18-d7535adefffd3895cd099a6a63a3ba76.raw'
p203
asg161
(lp204
S'11-3a28452fc0b7572a345514aa66a5e628.raw'
p205
asS'18-738b03b782750f86b5ab5397a3bf5191.raw'
p206
(lp207
S'18-d7535adefffd3895cd099a6a63a3ba76.raw'
p208
asS'14.6-35d864d008ed3f859bc0152e399b7cf7.raw'
p209
(lp210
S'14.6-5c8c0cf8755b027234eb50717723113e.raw'
p211
asg75
(lp212
S'20-9fe5317a305e0281b9565a65af03da0e.raw'
p213
asS'18-4ac46cfee13e9bb90c17a46fe3cc725c.raw'
p214
(lp215
S'18-d7535adefffd3895cd099a6a63a3ba76.raw'
p216
asg49
(lp217
S'24.2-a641b4d1a37d9a53b81c53f44de5c011.raw'
p218
ag49
asS'18-0a1a36f2686601e1686fcb8b216781b1.raw'
p219
(lp220
S'18-d7535adefffd3895cd099a6a63a3ba76.raw'
p221
asS'14.5-b5c50b8bd0b9db915fdfed483f87f3fc.raw'
p222
(lp223
S'14.6-5c8c0cf8755b027234eb50717723113e.raw'
p224
asS'18-21ae24a37ec25b92cd724f298b8cf957.raw'
p225
(lp226
S'18-d7535adefffd3895cd099a6a63a3ba76.raw'
p227
asg157
(lp228
S'11-3a28452fc0b7572a345514aa66a5e628.raw'
p229
ag157
ag158
ag159
ag160
ag161
asS'18-03b01a356aa089eac02cb26579ed4636.raw'
p230
(lp231
S'18-d7535adefffd3895cd099a6a63a3ba76.raw'
p232
asS'19'
p233
(lp234
S'19-abbb2c6849cb68b0da4601eb181ad5b0.raw'
p235
asS'6.1.2-eff838940f72ba3f05c25b6e82196862.raw'
p236
(lp237
S'6.1.2-eff838940f72ba3f05c25b6e82196862.raw'
p238
ag236
aS'6.1.1-1c180ddd078f527cff087763507853b5.raw'
p239
asS'14.5-0f02ed7e077d741b8e93c5f1084c055a.raw'
p240
(lp241
S'14.6-5c8c0cf8755b027234eb50717723113e.raw'
p242
asS'25'
p243
(lp244
g37
asS'18-536283fa71e99605b7e9342464c49577.raw'
p245
(lp246
S'18-d7535adefffd3895cd099a6a63a3ba76.raw'
p247
asS'18'
p248
(lp249
g50
aS'18-c71bbef5badcc5ce2a5cc81992caf45e.raw'
p250
aS'18-0d77888a42f45fa665ae01d586131c4e.raw'
p251
aS'18-b1b4dd0426ce83bd540701f2d5a6085f.raw'
p252
aS'18-22cb7f661306c1582aac7b18d03b10bd.raw'
p253
ag184
aS'18-7a834510fdd8483c812d160b46efb968.raw'
p254
aS'18-b041a0875916f3a813c68a6e18016a99.raw'
p255
aS'18-431ca0464b4870d9d3ee6cde69d563fd.raw'
p256
aS'18-52869b2b96962f9595d3be817f197f56.raw'
p257
aS'18-d7535adefffd3895cd099a6a63a3ba76.raw'
p258
aS'18-25ef57a63dd8af2be2a23ee1860ff01b.raw'
p259
aS'18-8792bfc7820a187d423af9845722ec8c.raw'
p260
aS'18-4f78788fdab1c0bada019581ec0809a4.raw'
p261
ag169
aS'18-c3f19c50d945f9c54c93656e971d5c56.raw'
p262
aS'18-cda5d2462c981d13dd1084550441c206.raw'
p263
aS'18-9eff7063aab80022ebc0057189374766.raw'
p264
ag22
aS'18-432013eae7d7ed9672a37cd48be125c0.raw'
p265
aS'18-b9dc80adcd578aaf5aa4e56d0bc62e81.raw'
p266
ag206
aS'18-ea29bc79d019326cbe80da5e821c2d97.raw'
p267
aS'18-2e4a3fd553eb340bac869bf2e128bdde.raw'
p268
aS'18-7f3c1808e399d4c8a364a7a64534ccbd.raw'
p269
aS'18-0a3da9cf8edbba354126ddea59fbdec9.raw'
p270
aS'18-62680d51f0eed9d5b30da59624433951.raw'
p271
aS'18-97866e8a5c0b4b40263850ec909ab410.raw'
p272
ag172
ag139
aS'18-d253f8cfb2aaa5ebc66c5acc8a7ab44d.raw'
p273
aS'18-fa1e34c4f1dee7d8e22e28521199c9a7.raw'
p274
aS'18-a4dc863524161559c929e8fc983f01ee.raw'
p275
aS'18-1f0137d6a8c3cf2f146c74730cf6403c.raw'
p276
aS'18-4e3bcaa89a686ce1506cad15213ca37f.raw'
p277
ag214
ag16
aS'18-01f111a0dda50c0bd24efe1a0b8538dd.raw'
p278
aS'18-4d4389f51f9075ebebb71222a08f7a91.raw'
p279
ag201
aS'18-5c377b9fa6b4c4b9d9c0fb184aa6ecc8.raw'
p280
aS'18-b3a5751f62c1bd25d9f09425534c711e.raw'
p281
aS'18-0f85140b6693a5be55a3dbccd169ab60.raw'
p282
aS'18-1d35d9b1e0e63ff42fc2def8a250fd29.raw'
p283
aS'18-47cc34218b9eea15774c07d3b5c3503b.raw'
p284
aS'18-c9d74bcde672cf1d40b04d8ee0e1c42f.raw'
p285
aS'18-2009a521d8d7453e8943396368ac9921.raw'
p286
aS'18-0a5c969937b9cd958b52af8983a249ec.raw'
p287
aS'18-28ef904d3cec7b4b374eb978b9b7acc3.raw'
p288
ag230
aS'18-0a2d6f20fb149e9943e3da6342e3aa00.raw'
p289
aS'18-5042199e2f891cfe8098cbcde37d8ae4.raw'
p290
aS'18-ec9d093dcc76aa1b0e7fc85fe1d4908a.raw'
p291
aS'18-c37ddfb8d9f8a9500e6169e66a1ca363.raw'
p292
aS'18-12c610d9613de9ad0d00c57e3e8a60a9.raw'
p293
aS'18-0970d69bb15e898b21f7ad1f0eed40d0.raw'
p294
aS'18-e32a55b2ac18903b592f5993e6784f01.raw'
p295
ag225
aS'18-5dea7a120851d481f84f5651f5ca9c44.raw'
p296
aS'18-c7f6675859468a6de41d39c8722dad4b.raw'
p297
aS'18-d73aa09a7ac1baf852f79a5ef73ab38e.raw'
p298
ag187
aS'18-340312a531c18855acc977bae124ec80.raw'
p299
ag219
aS'18-88577f56a2e4eda6fbc80f4b10cc93e0.raw'
p300
aS'18-3bff94f44da43a07f352bda4d18221a3.raw'
p301
ag178
aS'18-00f18888317e19dba8f68e704cb08ae7.raw'
p302
aS'18-0a3b842dd9b5f65edd4b2e7dda2fb8ff.raw'
p303
aS'18-041f233ce21cec16c886fd890d9e192b.raw'
p304
aS'18-0a6b21081220a224bc00f3f7bb8a37e5.raw'
p305
aS'18-bbdc4e5c0717432a13573f2491c1e3a8.raw'
p306
aS'18-3cf87e06b8210342de94016336d9ea16.raw'
p307
aS'18-0a6c12bfbfbc5760a44576e4b69a8edd.raw'
p308
aS'18-d616249939c90baacd7e9848f6b075b3.raw'
p309
ag114
ag166
aS'18-f7258187cb15af382820a8e1934659b7.raw'
p310
aS'18-912b48ccaa4a1b3a58417d32e6af22ac.raw'
p311
aS'18-9d484817327e5204821c4e6f1443325f.raw'
p312
aS'18-6179da1735dbe728081cc9777e34a943.raw'
p313
aS'18-1cac979a552ce0ede9994ed05c42210d.raw'
p314
aS'18-14ec5a8be4dd7b4a7c1cb9cc650e69e7.raw'
p315
ag245
aS'18-2778ea0fff795b00a7e53651bd0d0918.raw'
p316
aS'18-0a4f49f012d9e6d3d351429d21067f80.raw'
p317
ag1
aS'18-b94fa95baf38c5ef2fd86c3cb0a4df80.raw'
p318
aS'18-381cc747998d7051190bc664320adb02.raw'
p319
ag19
aS'18-0a2e7517f212cfdb07e53fb40ca88a3b.raw'
p320
aS'18-e2b1b4e0bf4b90990a40f7a34ae948b1.raw'
p321
aS'18-44215390c24722a1f3312ff6c971ed5d.raw'
p322
aS'18-b2ebf70fe337f60aca09b08324f1298f.raw'
p323
aS'18-ac2043756687ae5c577a9c5536b1be4f.raw'
p324
aS'18-55a908af392f7b0fa3610429bd41d261.raw'
p325
aS'18-b77a92b99fc1b9901b025a88f2f53223.raw'
p326
aS'18-57df85db3da0ff1579711c2951fdcf8e.raw'
p327
ag28
aS'18-64cb3200922af17f409aa0c5cb06d821.raw'
p328
asg235
(lp329
S'19-abbb2c6849cb68b0da4601eb181ad5b0.raw'
p330
ag235
asS'14.6-727db1fdb8bb6e9b18cf2cace89dbd74.raw'
p331
(lp332
S'14.6-5c8c0cf8755b027234eb50717723113e.raw'
p333
asg285
(lp334
S'18-d7535adefffd3895cd099a6a63a3ba76.raw'
p335
asg104
(lp336
S'29-7e1342bba879767880aaf65d9e6859c9.raw'
p337
ag104
aS'29-7d153ea9f08017d5b539621d88792597.raw'
p338
ag105
ag106
ag107
ag108
ag109
ag110
ag111
ag113
asg318
(lp339
S'18-d7535adefffd3895cd099a6a63a3ba76.raw'
p340
asg48
(lp341
S'24.1-735cfdb0fdf65297e870874fd639144c.raw'
p342
ag48
asg327
(lp343
S'18-d7535adefffd3895cd099a6a63a3ba76.raw'
p344
asS'14.6-0c7de3e28d712110b9693c97e55cda73.raw'
p345
(lp346
S'14.6-5c8c0cf8755b027234eb50717723113e.raw'
p347
asg301
(lp348
S'18-d7535adefffd3895cd099a6a63a3ba76.raw'
p349
asS'14.6-0af88469d89e56e428a2cd0c70fdf905.raw'
p350
(lp351
S'14.6-5c8c0cf8755b027234eb50717723113e.raw'
p352
asg106
(lp353
S'29-7e1342bba879767880aaf65d9e6859c9.raw'
p354
aS'29-7d153ea9f08017d5b539621d88792597.raw'
p355
asg321
(lp356
S'18-d7535adefffd3895cd099a6a63a3ba76.raw'
p357
asg293
(lp358
S'18-d7535adefffd3895cd099a6a63a3ba76.raw'
p359
asg67
(lp360
S'20-9fe5317a305e0281b9565a65af03da0e.raw'
p361
asg71
(lp362
S'20-9fe5317a305e0281b9565a65af03da0e.raw'
p363
asg110
(lp364
S'29-7e1342bba879767880aaf65d9e6859c9.raw'
p365
aS'29-7d153ea9f08017d5b539621d88792597.raw'
p366
asS'14.1.2-29303771b81258c99d79d852ad1bb56d.raw'
p367
(lp368
S'14.1.2-ae4652b546a10c092c22036bbc0db641.raw'
p369
asS'16-deed6260b7892f632f1347bd448bdc77.raw'
p370
(lp371
S'16-bd63683b8461833784a25c0c5103318f.raw'
p372
asS'16-bd63683b8461833784a25c0c5103318f.raw'
p373
(lp374
S'16-bd63683b8461833784a25c0c5103318f.raw'
p375
ag373
aS'16-592ff16e8d85bf25599d85144dfd7de5.raw'
p376
ag370
asg291
(lp377
S'18-d7535adefffd3895cd099a6a63a3ba76.raw'
p378
asS'6.2-8ea1d559bad8810d470a38100048b63f.raw'
p379
(lp380
S'6.2-3ca4908cf4fc08e5fc0e7a07e92f6df8.raw'
p381
asg255
(lp382
S'18-d7535adefffd3895cd099a6a63a3ba76.raw'
p383
asg113
(lp384
S'29-7e1342bba879767880aaf65d9e6859c9.raw'
p385
aS'29-7d153ea9f08017d5b539621d88792597.raw'
p386
aS'29-7d153ea9f08017d5b539621d88792597.raw'
p387
asS'3'
p388
(lp389
S'3-87937439c24a34f5eaef3422a3424d54.raw'
p390
ag192
asg260
(lp391
S'18-d7535adefffd3895cd099a6a63a3ba76.raw'
p392
asS'13.1-288c8038afd9b6cc56c3f5caafc46659.raw'
p393
(lp394
S'13.3-b3350817df8b4325a32beb9fbe3c6dee.raw'
p395
asS'7'
p396
(lp397
S'7-013198d337c7eb393654cfcec61932fc.raw'
p398
aS'7-27bfdaaa288c4f28018cb2f4ed871a27.raw'
p399
asg304
(lp400
S'18-d7535adefffd3895cd099a6a63a3ba76.raw'
p401
asg284
(lp402
S'18-d7535adefffd3895cd099a6a63a3ba76.raw'
p403
asg325
(lp404
S'18-d7535adefffd3895cd099a6a63a3ba76.raw'
p405
asS'13.3-af5ac74936f3423dda283bda6eaec5f3.raw'
p406
(lp407
S'13.3-b3350817df8b4325a32beb9fbe3c6dee.raw'
p408
asS'14.1.2-c2ebd8e7c451ee66d3be2c0d4bc8fa3a.raw'
p409
(lp410
S'14.1.2-ae4652b546a10c092c22036bbc0db641.raw'
p411
asg326
(lp412
S'18-d7535adefffd3895cd099a6a63a3ba76.raw'
p413
asg86
(lp414
S'22.3.2-7ea4921beff80e610ebf67cff4add312.raw'
p415
asg58
(lp416
S'27.1-ab179e4c4ac589ed3c62709ac7a303db.raw'
p417
asS'5.2-6c46afb635caee9a2a0507755f9d3bf5.raw'
p418
(lp419
S'5.2-1b1f137c7c020fb02936967ac3f90af4.raw'
p420
asg257
(lp421
S'18-d7535adefffd3895cd099a6a63a3ba76.raw'
p422
asg133
(lp423
S'4.2-0c46eace7006b062883311d87a6ddcac.raw'
p424
asS'12-841c1f8c7c3ed9e12d557080b43b2d15.raw'
p425
(lp426
S'12-b9fe2c1354670d81c61a3d222cfa587f.raw'
p427
asg390
(lp428
S'3-87937439c24a34f5eaef3422a3424d54.raw'
p429
ag390
ag192
asS'13.4-47ea273905201c9e02e0fe09b7fb9f8f.raw'
p430
(lp431
S'13.3-b3350817df8b4325a32beb9fbe3c6dee.raw'
p432
asS'13.4-abd246a1cbdc0cde74e6b1cd53452538.raw'
p433
(lp434
S'13.3-b3350817df8b4325a32beb9fbe3c6dee.raw'
p435
asS'14.6-18e21d0add83d0452212a39cc4f30cc3.raw'
p436
(lp437
S'14.6-5c8c0cf8755b027234eb50717723113e.raw'
p438
asg398
(lp439
S'7-27bfdaaa288c4f28018cb2f4ed871a27.raw'
p440
asg316
(lp441
S'18-d7535adefffd3895cd099a6a63a3ba76.raw'
p442
asg290
(lp443
S'18-d7535adefffd3895cd099a6a63a3ba76.raw'
p444
asS'13.3-45866d6a2a2b63c23fea2a4add3f45e7.raw'
p445
(lp446
S'13.3-b3350817df8b4325a32beb9fbe3c6dee.raw'
p447
asg310
(lp448
S'18-d7535adefffd3895cd099a6a63a3ba76.raw'
p449
asg82
(lp450
S'22.3.2-7ea4921beff80e610ebf67cff4add312.raw'
p451
ag82
ag83
ag84
ag85
ag86
ag87
ag88
ag89
ag90
ag25
asS'13.3-a3a326578f510500d496da838e861e39.raw'
p452
(lp453
S'13.3-b3350817df8b4325a32beb9fbe3c6dee.raw'
p454
asg89
(lp455
S'22.3.2-7ea4921beff80e610ebf67cff4add312.raw'
p456
asg156
(lp457
S'11-3a28452fc0b7572a345514aa66a5e628.raw'
p458
asS'6.1.2-f7c308dace8147077204149e0712a329.raw'
p459
(lp460
S'6.1.2-eff838940f72ba3f05c25b6e82196862.raw'
p461
asg107
(lp462
S'29-7e1342bba879767880aaf65d9e6859c9.raw'
p463
aS'29-7d153ea9f08017d5b539621d88792597.raw'
p464
asg132
(lp465
S'4.2-0c46eace7006b062883311d87a6ddcac.raw'
p466
asS'14.5-0f142c762c2ee6a43998a9b1eab39bf9.raw'
p467
(lp468
S'14.6-5c8c0cf8755b027234eb50717723113e.raw'
p469
asS'6.2-a57d95916bf2a84e9dacdc9ae2c7b498.raw'
p470
(lp471
S'6.2-3ca4908cf4fc08e5fc0e7a07e92f6df8.raw'
p472
asS'14.1.2-bb50eab41b5b5da6811b498ba787ebd0.raw'
p473
(lp474
S'14.1.2-ae4652b546a10c092c22036bbc0db641.raw'
p475
asS'5.3-718a9b08a38c979146cece8ff674ecd2.raw'
p476
(lp477
S'5.3-718a9b08a38c979146cece8ff674ecd2.raw'
p478
ag476
asS'13.3-5146ee29ac94df89999dbae30adbcbce.raw'
p479
(lp480
S'13.3-b3350817df8b4325a32beb9fbe3c6dee.raw'
p481
asS'14.5-035d206e2b3b4810e7f12f8fffd903d4.raw'
p482
(lp483
S'14.6-5c8c0cf8755b027234eb50717723113e.raw'
p484
asg376
(lp485
S'16-bd63683b8461833784a25c0c5103318f.raw'
p486
asg159
(lp487
S'11-3a28452fc0b7572a345514aa66a5e628.raw'
p488
asg99
(lp489
S'28-7b2695c036cb9224db54f73e5326f135.raw'
p490
ag99
asg276
(lp491
S'18-d7535adefffd3895cd099a6a63a3ba76.raw'
p492
asS'13.4-94fffddce8696589bf864bde06f9c404.raw'
p493
(lp494
S'13.3-b3350817df8b4325a32beb9fbe3c6dee.raw'
p495
asg250
(lp496
S'18-d7535adefffd3895cd099a6a63a3ba76.raw'
p497
asg281
(lp498
S'18-d7535adefffd3895cd099a6a63a3ba76.raw'
p499
asS'13.4-c6a0c5b1cc5d0a0f8b394c09d8e73898.raw'
p500
(lp501
S'13.3-b3350817df8b4325a32beb9fbe3c6dee.raw'
p502
asS'6.2-98151bd5161160491570d9afc73237f0.raw'
p503
(lp504
S'6.2-3ca4908cf4fc08e5fc0e7a07e92f6df8.raw'
p505
asg153
(lp506
S'11-3a28452fc0b7572a345514aa66a5e628.raw'
p507
asg262
(lp508
S'18-d7535adefffd3895cd099a6a63a3ba76.raw'
p509
asg111
(lp510
S'29-7e1342bba879767880aaf65d9e6859c9.raw'
p511
aS'29-7d153ea9f08017d5b539621d88792597.raw'
p512
asS'14.6-60edf812cf3e97b888713d6b695e5e1b.raw'
p513
(lp514
S'14.6-5c8c0cf8755b027234eb50717723113e.raw'
p515
asS'12-9cd1d6aaefada16a119db43a95c6c99d.raw'
p516
(lp517
S'12-b9fe2c1354670d81c61a3d222cfa587f.raw'
p518
asS'13.4-0607a0bf149c643e03c78d5af2e8d0ba.raw'
p519
(lp520
S'13.3-b3350817df8b4325a32beb9fbe3c6dee.raw'
p521
asg313
(lp522
S'18-d7535adefffd3895cd099a6a63a3ba76.raw'
p523
asg88
(lp524
S'22.3.2-7ea4921beff80e610ebf67cff4add312.raw'
p525
asg158
(lp526
S'11-3a28452fc0b7572a345514aa66a5e628.raw'
p527
asS'13.3-b9464dc3399bf9a7b16fe79a7228addb.raw'
p528
(lp529
S'13.3-b3350817df8b4325a32beb9fbe3c6dee.raw'
p530
asg61
(lp531
S'27.1-ab179e4c4ac589ed3c62709ac7a303db.raw'
p532
asS'13.4-9103109fb14ae9a52874887a738ef1e3.raw'
p533
(lp534
S'13.3-b3350817df8b4325a32beb9fbe3c6dee.raw'
p535
asg299
(lp536
S'18-d7535adefffd3895cd099a6a63a3ba76.raw'
p537
asg315
(lp538
S'18-d7535adefffd3895cd099a6a63a3ba76.raw'
p539
asg135
(lp540
S'4.2-0c46eace7006b062883311d87a6ddcac.raw'
p541
asg271
(lp542
S'18-d7535adefffd3895cd099a6a63a3ba76.raw'
p543
asg70
(lp544
S'20-9fe5317a305e0281b9565a65af03da0e.raw'
p545
asg239
(lp546
S'6.1.2-eff838940f72ba3f05c25b6e82196862.raw'
p547
asg320
(lp548
S'18-d7535adefffd3895cd099a6a63a3ba76.raw'
p549
asS'14.6-5c8c0cf8755b027234eb50717723113e.raw'
p550
(lp551
S'14.6-5c8c0cf8755b027234eb50717723113e.raw'
p552
ag550
aS'14.5-821e9c215d84e3db9f8bd1fc0fecb3dc.raw'
p553
ag513
ag209
aS'14.6-10ba8d0e754458237fb50442d3c2ca42.raw'
p554
ag40
aS'14.6-95ae2769884f19218ea4e2983c69d6d7.raw'
p555
ag222
aS'14.5-561bd3c9ec7acc959e13d005efe759c1.raw'
p556
asg129
(lp557
S'4.2-0c46eace7006b062883311d87a6ddcac.raw'
p558
asg312
(lp559
S'18-9d484817327e5204821c4e6f1443325f.raw'
p560
ag312
asS'5.2-4e062f22fb165a7dafbd4f3aaea7a3e9.raw'
p561
(lp562
S'5.2-1b1f137c7c020fb02936967ac3f90af4.raw'
p563
asg287
(lp564
S'18-d7535adefffd3895cd099a6a63a3ba76.raw'
p565
asg59
(lp566
S'27.1-ab179e4c4ac589ed3c62709ac7a303db.raw'
p567
ag59
ag60
ag43
ag13
ag61
ag62
ag63
asg268
(lp568
S'18-d7535adefffd3895cd099a6a63a3ba76.raw'
p569
asS'6.2-3ca4908cf4fc08e5fc0e7a07e92f6df8.raw'
p570
(lp571
S'6.2-3ca4908cf4fc08e5fc0e7a07e92f6df8.raw'
p572
ag570
aS'6.2-a518eb6b69f96b5742f6438af2685526.raw'
p573
ag503
ag470
ag379
ag195
asS'12-63f4ef9fedf2e6cb56ffecc61154e040.raw'
p574
(lp575
S'12-b9fe2c1354670d81c61a3d222cfa587f.raw'
p576
asg300
(lp577
S'18-d7535adefffd3895cd099a6a63a3ba76.raw'
p578
asg308
(lp579
S'18-d7535adefffd3895cd099a6a63a3ba76.raw'
p580
asg264
(lp581
S'18-d7535adefffd3895cd099a6a63a3ba76.raw'
p582
asg102
(lp583
S'29-7e1342bba879767880aaf65d9e6859c9.raw'
p584
aS'29-7d153ea9f08017d5b539621d88792597.raw'
p585
asS'5.2-2ad3ffa74c561a87cdf03e6edd4f0e66.raw'
p586
(lp587
S'5.2-1b1f137c7c020fb02936967ac3f90af4.raw'
p588
asS'6'
p589
(lp590
g4
ag570
ag459
ag573
ag236
ag503
ag470
ag239
ag379
ag195
asg78
(lp591
S'21.2-850614dd2159b299ebb070fe238f0faa.raw'
p592
ag78
ag79
asg266
(lp593
S'18-d7535adefffd3895cd099a6a63a3ba76.raw'
p594
asS'14.1.2-ad85fd04665793ec30b30cd2c7952ce0.raw'
p595
(lp596
S'14.1.2-ae4652b546a10c092c22036bbc0db641.raw'
p597
asg289
(lp598
S'18-d7535adefffd3895cd099a6a63a3ba76.raw'
p599
asg136
(lp600
S'4.2-0c46eace7006b062883311d87a6ddcac.raw'
p601
asS'13.3-648f3855faf8e9d978649435a9b6c668.raw'
p602
(lp603
S'13.3-b3350817df8b4325a32beb9fbe3c6dee.raw'
p604
asg155
(lp605
S'11-3a28452fc0b7572a345514aa66a5e628.raw'
p606
asg103
(lp607
S'29-7e1342bba879767880aaf65d9e6859c9.raw'
p608
aS'29-7d153ea9f08017d5b539621d88792597.raw'
p609
asg295
(lp610
S'18-d7535adefffd3895cd099a6a63a3ba76.raw'
p611
asS'5.2-3eebecf1fb743037423b711d06bab4e6.raw'
p612
(lp613
S'5.2-1b1f137c7c020fb02936967ac3f90af4.raw'
p614
asg160
(lp615
S'11-3a28452fc0b7572a345514aa66a5e628.raw'
p616
asg314
(lp617
S'18-d7535adefffd3895cd099a6a63a3ba76.raw'
p618
asg154
(lp619
S'11-3a28452fc0b7572a345514aa66a5e628.raw'
p620
asS'14.5-47248b4882fdd25c8ffbdec4401233ff.raw'
p621
(lp622
S'14.6-5c8c0cf8755b027234eb50717723113e.raw'
p623
asS'5.2-6c0d6173e751df0bfa8e7d872b7a2475.raw'
p624
(lp625
S'5.2-1b1f137c7c020fb02936967ac3f90af4.raw'
p626
asg72
(lp627
S'20-9fe5317a305e0281b9565a65af03da0e.raw'
p628
asS'13.4-5910c183bfb66d874a7b0978b42eb786.raw'
p629
(lp630
S'13.3-b3350817df8b4325a32beb9fbe3c6dee.raw'
p631
asg63
(lp632
S'27.1-ab179e4c4ac589ed3c62709ac7a303db.raw'
p633
asg261
(lp634
S'18-d7535adefffd3895cd099a6a63a3ba76.raw'
p635
asg90
(lp636
S'22.3.2-7ea4921beff80e610ebf67cff4add312.raw'
p637
asg277
(lp638
S'18-d7535adefffd3895cd099a6a63a3ba76.raw'
p639
asg74
(lp640
S'20-9fe5317a305e0281b9565a65af03da0e.raw'
p641
asS'14.6-afb3a89e813e29b90a1ed791577a3100.raw'
p642
(lp643
S'14.6-5c8c0cf8755b027234eb50717723113e.raw'
p644
asg309
(lp645
S'18-d7535adefffd3895cd099a6a63a3ba76.raw'
p646
asg283
(lp647
S'18-d7535adefffd3895cd099a6a63a3ba76.raw'
p648
asS'12-28e53f7f15e38ffc3d3bb6f6b00fdf71.raw'
p649
(lp650
S'12-b9fe2c1354670d81c61a3d222cfa587f.raw'
p651
asS'13'
p652
(lp653
S'13.4-623d1927af531d6fb99c39868a14d943.raw'
p654
ag181
ag393
ag452
ag533
aS'13.4-53150ca0f9e16cef2cf5049671377fce.raw'
p655
aS'13.4-0cb632c320b38a27aaacf609f569dca2.raw'
p656
ag519
ag629
ag479
ag500
ag602
ag445
aS'13.3-b3350817df8b4325a32beb9fbe3c6dee.raw'
p657
ag528
ag433
ag117
ag493
ag430
aS'13.3-7615402ce799c327e8045c070a389762.raw'
p658
ag406
asS'12'
p659
(lp660
g574
ag34
ag649
ag425
ag94
aS'12-a217768c5844790c5c90a2fe1f09be8c.raw'
p661
aS'12-377ef3eb6fc66dca14c689ba50093822.raw'
p662
ag516
ag142
aS'12-b9fe2c1354670d81c61a3d222cfa587f.raw'
p663
asg306
(lp664
S'18-d7535adefffd3895cd099a6a63a3ba76.raw'
p665
asS'14'
p666
(lp667
S'14.1.2-883516c63f6ca421f208f02e0a53dfda.raw'
p668
ag642
ag331
aS'14.1.2-a83d8b396c494895f572bc3988952a7c.raw'
p669
ag350
ag175
aS'14.1.2-ae4652b546a10c092c22036bbc0db641.raw'
p670
ag345
ag621
ag473
ag595
aS'14.1.2-ab5267f5c1bd6b8ec1b52aabccb083a7.raw'
p671
ag409
ag467
ag436
ag482
ag240
ag550
aS'14.1.2-545358c4de6b0f3b7a4ae540ccf16732.raw'
p672
ag553
ag367
ag513
ag209
ag554
ag40
ag555
ag222
ag556
asS'16'
p673
(lp674
g373
ag376
ag370
asg670
(lp675
S'14.1.2-ae4652b546a10c092c22036bbc0db641.raw'
p676
ag670
ag473
ag595
ag671
ag409
ag672
ag367
asS'5.2-4cd886b30d0e401c15e6e77f84ec82ff.raw'
p677
(lp678
S'5.2-1b1f137c7c020fb02936967ac3f90af4.raw'
p679
asg79
(lp680
S'21.2-850614dd2159b299ebb070fe238f0faa.raw'
p681
asg663
(lp682
S'12-b9fe2c1354670d81c61a3d222cfa587f.raw'
p683
ag663
asg672
(lp684
S'14.1.2-ae4652b546a10c092c22036bbc0db641.raw'
p685
asg302
(lp686
S'18-d7535adefffd3895cd099a6a63a3ba76.raw'
p687
asg671
(lp688
S'14.1.2-ae4652b546a10c092c22036bbc0db641.raw'
p689
asg105
(lp690
S'29-7e1342bba879767880aaf65d9e6859c9.raw'
p691
aS'29-7d153ea9f08017d5b539621d88792597.raw'
p692
asg127
(lp693
S'4.2-0c46eace7006b062883311d87a6ddcac.raw'
p694
asg311
(lp695
S'18-d7535adefffd3895cd099a6a63a3ba76.raw'
p696
asg323
(lp697
S'18-d7535adefffd3895cd099a6a63a3ba76.raw'
p698
asg279
(lp699
S'18-d7535adefffd3895cd099a6a63a3ba76.raw'
p700
asg662
(lp701
S'12-b9fe2c1354670d81c61a3d222cfa587f.raw'
p702
asg280
(lp703
S'18-d7535adefffd3895cd099a6a63a3ba76.raw'
p704
asg661
(lp705
S'12-b9fe2c1354670d81c61a3d222cfa587f.raw'
p706
asg272
(lp707
S'18-d7535adefffd3895cd099a6a63a3ba76.raw'
p708
asg84
(lp709
S'22.3.2-7ea4921beff80e610ebf67cff4add312.raw'
p710
asg259
(lp711
S'18-d7535adefffd3895cd099a6a63a3ba76.raw'
p712
asg258
(lp713
S'18-d7535adefffd3895cd099a6a63a3ba76.raw'
p714
ag258
ag259
ag260
ag261
ag169
ag262
ag263
ag264
ag22
ag265
ag266
ag206
ag267
ag268
ag269
ag270
ag271
ag272
ag172
ag139
ag273
ag274
ag275
ag276
ag277
ag214
ag16
ag278
ag279
ag201
ag280
ag281
ag282
ag283
ag284
ag285
ag286
ag287
ag288
ag230
ag289
ag290
ag291
ag292
ag293
ag294
ag295
ag225
ag296
ag297
ag298
ag187
ag299
ag219
ag300
ag301
ag178
ag302
ag303
ag304
ag305
ag306
ag307
ag308
ag309
ag114
ag166
ag310
ag311
ag313
ag314
ag315
ag245
ag316
ag317
ag1
ag318
ag319
ag19
ag320
ag321
ag322
ag323
ag324
ag325
ag326
ag327
ag28
ag328
asg252
(lp715
S'18-d7535adefffd3895cd099a6a63a3ba76.raw'
p716
asg275
(lp717
S'18-d7535adefffd3895cd099a6a63a3ba76.raw'
p718
asg108
(lp719
S'29-7e1342bba879767880aaf65d9e6859c9.raw'
p720
aS'29-7d153ea9f08017d5b539621d88792597.raw'
p721
asg112
(lp722
S'29.1-257cc578a26560b7ae9ec7888f54a1ad.raw'
p723
ag112
asg322
(lp724
S'18-d7535adefffd3895cd099a6a63a3ba76.raw'
p725
asg573
(lp726
S'6.2-3ca4908cf4fc08e5fc0e7a07e92f6df8.raw'
p727
asg399
(lp728
S'7-27bfdaaa288c4f28018cb2f4ed871a27.raw'
p729
ag399
asg256
(lp730
S'18-d7535adefffd3895cd099a6a63a3ba76.raw'
p731
asS'5.2-1ebf3a323982d3b61617f866ed3b5551.raw'
p732
(lp733
S'5.2-1b1f137c7c020fb02936967ac3f90af4.raw'
p734
asg66
(lp735
S'20-9fe5317a305e0281b9565a65af03da0e.raw'
p736
asg128
(lp737
S'4.2-0c46eace7006b062883311d87a6ddcac.raw'
p738
asg658
(lp739
S'13.3-b3350817df8b4325a32beb9fbe3c6dee.raw'
p740
asg669
(lp741
S'14.1.2-ae4652b546a10c092c22036bbc0db641.raw'
p742
asg85
(lp743
S'22.3.2-7ea4921beff80e610ebf67cff4add312.raw'
p744
asg273
(lp745
S'18-d7535adefffd3895cd099a6a63a3ba76.raw'
p746
asg317
(lp747
S'18-d7535adefffd3895cd099a6a63a3ba76.raw'
p748
asS'5.2-6e7354142c10c6937f8dec04728b2454.raw'
p749
(lp750
S'5.2-1b1f137c7c020fb02936967ac3f90af4.raw'
p751
asg319
(lp752
S'18-d7535adefffd3895cd099a6a63a3ba76.raw'
p753
asg263
(lp754
S'18-d7535adefffd3895cd099a6a63a3ba76.raw'
p755
asg282
(lp756
S'18-d7535adefffd3895cd099a6a63a3ba76.raw'
p757
asg254
(lp758
S'18-d7535adefffd3895cd099a6a63a3ba76.raw'
p759
asg62
(lp760
S'27.1-ab179e4c4ac589ed3c62709ac7a303db.raw'
p761
asg553
(lp762
S'14.6-5c8c0cf8755b027234eb50717723113e.raw'
p763
asg130
(lp764
S'4.2-0c46eace7006b062883311d87a6ddcac.raw'
p765
ag130
ag131
ag132
ag133
ag134
ag135
ag136
ag122
asS'5'
p766
(lp767
g10
ag677
ag612
ag476
ag586
ag418
ag732
ag624
ag749
ag561
ag198
asg656
(lp768
S'13.3-b3350817df8b4325a32beb9fbe3c6dee.raw'
p769
asg328
(lp770
S'18-d7535adefffd3895cd099a6a63a3ba76.raw'
p771
asg298
(lp772
S'18-d7535adefffd3895cd099a6a63a3ba76.raw'
p773
asg286
(lp774
S'18-d7535adefffd3895cd099a6a63a3ba76.raw'
p775
asg296
(lp776
S'18-d7535adefffd3895cd099a6a63a3ba76.raw'
p777
asg297
(lp778
S'18-d7535adefffd3895cd099a6a63a3ba76.raw'
p779
asg324
(lp780
S'18-d7535adefffd3895cd099a6a63a3ba76.raw'
p781
asg556
(lp782
S'14.6-5c8c0cf8755b027234eb50717723113e.raw'
p783
asg253
(lp784
S'18-d7535adefffd3895cd099a6a63a3ba76.raw'
p785
asg668
(lp786
S'14.1.2-ae4652b546a10c092c22036bbc0db641.raw'
p787
asg270
(lp788
S'18-d7535adefffd3895cd099a6a63a3ba76.raw'
p789
asg269
(lp790
S'18-d7535adefffd3895cd099a6a63a3ba76.raw'
p791
asg274
(lp792
S'18-d7535adefffd3895cd099a6a63a3ba76.raw'
p793
asg60
(lp794
S'27.1-ab179e4c4ac589ed3c62709ac7a303db.raw'
p795
asg278
(lp796
S'18-d7535adefffd3895cd099a6a63a3ba76.raw'
p797
asg87
(lp798
S'22.3.2-7ea4921beff80e610ebf67cff4add312.raw'
p799
asg267
(lp800
S'18-d7535adefffd3895cd099a6a63a3ba76.raw'
p801
asg288
(lp802
S'18-d7535adefffd3895cd099a6a63a3ba76.raw'
p803
asg251
(lp804
S'18-d7535adefffd3895cd099a6a63a3ba76.raw'
p805
asg657
(lp806
S'13.3-b3350817df8b4325a32beb9fbe3c6dee.raw'
p807
ag657
ag528
ag433
ag117
ag493
ag430
ag658
ag406
asg655
(lp808
S'13.3-b3350817df8b4325a32beb9fbe3c6dee.raw'
p809
asg134
(lp810
S'4.2-0c46eace7006b062883311d87a6ddcac.raw'
p811
asg265
(lp812
S'18-d7535adefffd3895cd099a6a63a3ba76.raw'
p813
asg305
(lp814
S'18-d7535adefffd3895cd099a6a63a3ba76.raw'
p815
asg307
(lp816
S'18-d7535adefffd3895cd099a6a63a3ba76.raw'
p817
asg131
(lp818
S'4.2-0c46eace7006b062883311d87a6ddcac.raw'
p819
asg555
(lp820
S'14.6-5c8c0cf8755b027234eb50717723113e.raw'
p821
asg303
(lp822
S'18-d7535adefffd3895cd099a6a63a3ba76.raw'
p823
asg294
(lp824
S'18-d7535adefffd3895cd099a6a63a3ba76.raw'
p825
asg654
(lp826
S'13.3-b3350817df8b4325a32beb9fbe3c6dee.raw'
p827
asg55
(lp828
S'26-52957384c31989b60220038ac726544d.raw'
p829
ag55
asg33
(lp830
S'15-ca25c55fd256d92b48b81cb36f1a6db7.raw'
p831
ag33
asg292
(lp832
S'18-d7535adefffd3895cd099a6a63a3ba76.raw'
p833
asg554
(lp834
S'14.6-5c8c0cf8755b027234eb50717723113e.raw'
p835
as.