(dp0
S'Comspec'
p1
(lp2
S'Comspec-bd155386c19091298be6269ba958751d'
p3
asS'Fewster'
p4
(lp5
S'Fewster-c5568b4701ce33fff28e5b0c59ec5389'
p6
asS'V'
p7
(lp8
S'V.1L-6795622fb8209d8d968e3cb7cbe118d7'
p9
asS'Golgi'
p10
(lp11
S'Golgi-e7b53c0f1b420cb6347c67a31f0ce623'
p12
asS'Hydra'
p13
(lp14
S'Hydra.3-c398ecf3202cb98ebfd4236a20c6a28e'
p15
aS'Hydra.3-96ba89511584d5aff27e537198fcf661'
p16
aS'Hydra.3-2c523c3a5fd3de9cd6b433508ccab667'
p17
aS'Hydra.3-8eeb89d620d8442fbcfaa9a587547af2'
p18
asS'Bailey'
p19
(lp20
S'Bailey.334-b01eb72005ebca103d9b5fa7c6582399'
p21
asS'Virdem'
p22
(lp23
S'Virdem.Family-9250e879bd12b2c829acd4c8aa442976'
p24
aS'Virdem.Family-928b52cd2f61eb9a4d22f2413b905804'
p25
aS'Virdem.Family-7164cc08c6375d65fa4b67a0b67fd3c6'
p26
asS'Geek'
p27
(lp28
S'Geek-ca60ef101f89e89c4e4254f665472f8b'
p29
asS'G2'
p30
(lp31
S'G2.based-d229d988711bd4059d475555c2ebe427'
p32
asS'BadTaste'
p33
(lp34
S'BadTaste-a16f8cb8605d0abf2591f4a481da88b0'
p35
aS'BadTaste-0c6581448cbed084eb85ae5496ebdc9d'
p36
aS'BadTaste-0572472c0e9bd815dc8e65264d3091df'
p37
aS'BadTaste-90386e4792b490eee480b8c81133b5b5'
p38
aS'BadTaste-a0062ea9e6c5a5822ff8c66df96f1388'
p39
aS'BadTaste-2e8ba69c8e6ebc84b6bc45a09ba6ba13'
p40
aS'BadTaste-2e8ba69c8e6ebc84b6bc45a09ba6ba13'
p41
aS'BadTaste-9e54ab4726262099d6520b652e496e24'
p42
aS'BadTaste-478c0d98d419f909feb083d3ed76a9ff'
p43
asS'_0279_0001_001'
p44
(lp45
S'_0279_0001_001-b873a65efada55b77c815428fe5ccfc1'
p46
asS'Virus'
p47
(lp48
S'Virus.484-bd9e012ec95f8e177b2575b897eeabff'
p49
asS'Intruder'
p50
(lp51
S'Intruder.2336-e2f35d43aef739c6114713000f073f5f'
p52
aS'Intruder.1555-37246357b4df7c8391100928e7bd453c'
p53
asS'Shirley'
p54
(lp55
S'Shirley-3f8384733b5f9fe6911fe0c23e34f7f9'
p56
asS'Ear'
p57
(lp58
S'Ear.1025-5ccc9d93e342e0ce0e75c452649c95ac'
p59
aS'Ear.1-6519c1037c63dcd939f11fc575647eb8'
p60
asS'Day'
p61
(lp62
S'Day.10-fa8a71849b9724b15aebee38f2d5f0a1'
p63
asS'BlackJec'
p64
(lp65
S'BlackJec.300-98a8f9da36af9eb0b5147a346cf6200b'
p66
asS'Cossiga'
p67
(lp68
S'Cossiga.3-af5cb7e8e584b32121586bcf91e1e888'
p69
aS'Cossiga.3-46ebf8830e009b75da0d4345ffb84571'
p70
asS'Nanite'
p71
(lp72
S'Nanite-5c953fd56e965d943fa9cb0026d62705'
p73
asS'Canadian'
p74
(lp75
S'Canadian-8f6b499fea81a23d9af6aadff3799f38'
p76
asS'VirusConstructionSet'
p77
(lp78
S'VirusConstructionSet-09da16bcfe5f2561e7c2bfc485409ea8'
p79
asS'Stoned'
p80
(lp81
S'Stoned.2-2ca0586f9074377caef6af976b1618ab'
p82
aS'Stoned.2-2ca0586f9074377caef6af976b1618ab'
p83
aS'Stoned.2-86895ff9ab3714f1e5e8894f09357559'
p84
aS'Stoned.2-86895ff9ab3714f1e5e8894f09357559'
p85
aS'Stoned.2-dcc2c673082d369aa6a377e6ae0d699e'
p86
aS'Stoned.2-dcc2c673082d369aa6a377e6ae0d699e'
p87
aS'Stoned.2-f5f8c730eff59920db1c8ce49146719d'
p88
aS'Stoned.2-f5f8c730eff59920db1c8ce49146719d'
p89
aS'Stoned.2-6f1c377f232bf6c02e3711271ff6234b'
p90
aS'Stoned.2-6f1c377f232bf6c02e3711271ff6234b'
p91
aS'Stoned.2-ef299b247d773be7003973851e82814e'
p92
aS'Stoned.2-ef299b247d773be7003973851e82814e'
p93
aS'Stoned.2-1e7199fd5c6fbc391e3b31bceb40938f'
p94
aS'Stoned.2-1e7199fd5c6fbc391e3b31bceb40938f'
p95
aS'Stoned.2-46072a6574ba48b00bcbaa882b108a52'
p96
aS'Stoned.2-46072a6574ba48b00bcbaa882b108a52'
p97
aS'Stoned.2-9f8578ef92a179b8f2224c2a584792b9'
p98
aS'Stoned.2-9f8578ef92a179b8f2224c2a584792b9'
p99
aS'Stoned.2-9b1d3a393a7e6a6bbdff63fd65d781f0'
p100
aS'Stoned.2-9b1d3a393a7e6a6bbdff63fd65d781f0'
p101
aS'Stoned.2-6c40d98b76bc1fcb1cea0c7101b8986e'
p102
aS'Stoned.2-6c40d98b76bc1fcb1cea0c7101b8986e'
p103
aS'Stoned.A-7be8f26b5e1cf682e8c57afec4acfac7'
p104
asS'Gergana'
p105
(lp106
S'Gergana.222-7bbd758c90b8cb0d96007be24b9bcf9d'
p107
aS'Gergana.300-35f5c7eca021b4ff33adf9a285cdcab7'
p108
asS'Yeke'
p109
(lp110
S'Yeke.1204-1af3db65977f96832e79abeeb794a64d'
p111
asS'Willow'
p112
(lp113
S'Willow-ba0fd3877b084689f6fba4ed692b3c59'
p114
asS'EVC'
p115
(lp116
S'EVC.10-7b57e5eec688796bbfa39ac36dd21547'
p117
aS'EVC.10-b10b15cf5f5927c73b0e5fe6a9f15688'
p118
asS'Euro1992'
p119
(lp120
S'Euro1992-a0c600d2808f9a005125467bab55f9a2'
p121
asS'DotKiller'
p122
(lp123
S'DotKiller.1-43704a4964ab663cd7a95a22505b806d'
p124
asS'Ravage'
p125
(lp126
S'Ravage-12e406f63a2a25aa150e87b41ff69ac7'
p127
asS'Slovakia'
p128
(lp129
S'Slovakia.1956-4ca9121371d4447d53fe0b8af7a72605'
p130
asS'Sathanyc'
p131
(lp132
S'Sathanyc.Necrop-7f2e3622b5ccc8c23f177a8d36693a43'
p133
asS'Panic'
p134
(lp135
S'Panic.2-225cc03e9786dcee81ac8196be08d162'
p136
asS'Gosia'
p137
(lp138
S'Gosia.4-55e5e1d577541460775159afcd86cc0b'
p139
asS'Stimp'
p140
(lp141
S'Stimp-377b05a8d77db6f34360902a2b76675f'
p142
asS'Neverone'
p143
(lp144
S'Neverone-05c4e0b0a17f1a26281ce86701c79d93'
p145
asS'Companion'
p146
(lp147
S'Companion.100-c073e36294e67663e220fcc2286ccb32'
p148
aS'Companion.102-928c2eb1c4129b4e2297e96179e3f163'
p149
asS'Kode'
p150
(lp151
S'Kode.399-91d16730695accbbcb4798844efa5089'
p152
asS'ZK'
p153
(lp154
S'ZK.900.C-20d755fc5d4f279491414e41e68a21e9'
p155
asS'Semtex'
p156
(lp157
S'Semtex.1-5705a1362f86e7de9fa0f1f3b09050fb'
p158
asS'Fich'
p159
(lp160
S'Fich.V.3-def2bf5e9615f204e215897ff783b3f6'
p161
asS'PowerPump'
p162
(lp163
S'PowerPump.1-4032872426749c66624891aa2d2a4d0b'
p164
asS'Silence'
p165
(lp166
S'Silence-48d3773106da5e1e7ac49f0b0ec84a27'
p167
asS'MG'
p168
(lp169
S'MG.3-3ac888caae066e87d1111269bdd0db46'
p170
aS'MG.3-47e835fb9d735652ad5e6c168637debe'
p171
aS'MG.3-be2d88de1fe2773f6c2e9a0840197f2e'
p172
asS'Pfeiffer'
p173
(lp174
S'Pfeiffer.Scramble-da083f9c120c73669d46d30c1086ed1c'
p175
asS'Tequila'
p176
(lp177
S'Tequila.2468-4a41d175fabfee20f776eba2d8c7d36a'
p178
asS'Ginger'
p179
(lp180
S'Ginger.2782-ca495f6f175bde6d0665fe2b77d252b6'
p181
aS'Ginger.2782-5e60cb98f84bd480ca0fa8c927081d44'
p182
asS'Immortal'
p183
(lp184
S'Immortal-c8fae4a61d546dc39724f86a15549724'
p185
asS'MegaStealth'
p186
(lp187
S'MegaStealth-48895a433f05cebdc0649f7365962447'
p188
asS'Bootache'
p189
(lp190
S'Bootache.2048-7fd69c7d7ef95a3cd3b30bf8fd524d63'
p191
asS'Clipper'
p192
(lp193
S'Clipper-30d3bb40dfb62b0d98b55fcfc33dc28b'
p194
asS'Star_One'
p195
(lp196
S'Star_One-8fd08daaf16f21b51fd837fc5ca8c85f'
p197
asS'CAZ'
p198
(lp199
S'CAZ.2.1-27e1d584ac5f9bda4164bf1ebfcf3f42'
p200
asS'Boot'
p201
(lp202
S'Boot.Tequila.2-9fdff0ea2a95a1a21801af751da56d43'
p203
aS'Boot.Diskkiller-3f9537f62d5f3822fe6aec2656dc8e0b'
p204
aS'Boot.K.O.H-34eb3977549c1e2287e0f9adae63c797'
p205
aS'Boot.ExeBug-8e6eb80e78b7095e9473fb967269b299'
p206
aS'Boot.Hi.Dos-16ca92a55c227c3be507524a6fc207a8'
p207
aS'Boot.C.B.R-53fec2d79fe57ebd211b6f66765071e2'
p208
aS'Boot.Funface-4b81169c6f2f7bf41caf8e9fb3165f1b'
p209
aS'Boot.Nichols.1-4be70f4a5303a249346dba5ae4103042'
p210
aS'Boot.X3A.ICE9-597e602d5facd818a7c4b472f32358d6'
p211
aS'Boot.Funface-44f558cf58fc972f9d78743f6c8be23c'
p212
aS'Boot.Emonk-dee71b780f7061cf9737e2bcd659c483'
p213
asS'Spyer'
p214
(lp215
S'Spyer.2-cc937bff648458d5ae26c2376588bfc2'
p216
aS'Spyer.2-2d5d36fe88a1825d9863a132a5c02703'
p217
aS'Spyer.2-93a1c1e12838d9c2a7b19e5c3a850c21'
p218
asS'Icecream'
p219
(lp220
S'Icecream-f08ebd4be3c6c58ef3e28ffe570cb81a'
p221
asS'Satan'
p222
(lp223
S'Satan3.00-5facea4bc5c5968955a567bae97f44b3'
p224
aS'Satan2.03-aaa9917016f9228f40e73cf624a350a6'
p225
asS'Frisk'
p226
(lp227
S'Frisk-278770ea9ed05fc7a805d671197547bb'
p228
asS'DOS'
p229
(lp230
S'DOS.Vgen.2-e098f43395f9ff7734b9e60f72824043'
p231
aS'DOS.Neuroquila.4544.B.1-26157634647730f5310bb970e3a65242'
p232
aS'DOS.Cascade.1704.S-3037b6f337288af21abbd7dffe1e7cb2'
p233
aS'Dos7.376-b547413177525602c62f6b5a7f007bbb'
p234
aS'DOS.Abraxas.1-4dd20823c10c49e4b8908a8032c50b74'
p235
aS'DOS.Arara.1057-9d127dcb682a7205b8e6d1785a98a068'
p236
aS'DOS.Leprosy.666-324163414a167c4318b3811a6f85756e'
p237
aS'DOS.Simulated.Virus-c7c76758a017faf547d006691fdf575d'
p238
aS'DOS..10842-6bb04ad8b3c7f6ffe3cd596273003db2'
p239
aS'DOS.PS.MPC.322-8bfd628342db9755467c6235f7b035aa'
p240
aS'DOS.PS.MPC.857-584889ac91fd9f8d0acca9568dc8769e'
p241
aS'DOS.England.334-067cb88e44d23bcd40b9ec3f70de06e1'
p242
aS'DOS.Leprosy.666-0c2d1ba928dcf1f17bd645fc4dff0b70'
p243
aS'DOS.Abraxas-0cf9f33e5cfa50d7cdee0ed536856ff7'
p244
aS'Dos7.419-0b4a318803aa1b9b6a0dcc55cefcb7ce'
p245
aS'DOS.Simulated.Virus-9435eae54f53fb1e7517b2dbad8e4caf'
p246
aS'DOS.Ontario.1024-02422674abfae45dbee80c183219e327'
p247
aS'DOS.Chemmy.A-a19a0d7cba33f964f08193d3fb46294e'
p248
aS'DOS.Vgen.4-88b7b3ea30551ce529ecdd5203d12bf7'
p249
aS'DOS..10842-19d2a99413e6cc05049b82e050269496'
p250
aS'DOS.Flip-2bc48c1229b3f762300cb0b36bdc6fc4'
p251
aS'Dos7.342-b5a079f14f0d8a7cdd71c2e8fb8df932'
p252
aS'DOS.X.2.Gen-4cba31730b7d67d7f36692154a3f5124'
p253
asS'Leech'
p254
(lp255
S'Leech.1-6d0d5297dc1d08deeb4ab93f0e626552'
p256
asS'LockJaw'
p257
(lp258
S'Lockjaw.808-cf699a326a5e8a1709d630e118650ed1'
p259
aS'LockJaw-68291ebc8dcdc0221d6a80deb6dad2ce'
p260
aS'LockJaw-ecf8129d97166eabafd8ebd1798e1d03'
p261
aS'Lockjaw.808-12832afe5f71a9b096e5767daaee8324'
p262
asS'Star'
p263
(lp264
S'Star.Dot.3-6782a0a7793e113cd474c16f85f23a29'
p265
asS'Mannequin'
p266
(lp267
S'Mannequin.2-ae65098b26aea620beadb53a116bb5aa'
p268
aS'Mannequin.2-c53713c38b30a456f2f9619b3ab03e22'
p269
asS'CaptainTrips'
p270
(lp271
S'CaptainTrips-2fcb3c514b92b50982ad655b1acc466d'
p272
aS'CaptainTrips-a3ad9d2d5f6533208d2756fe579b1dc9'
p273
aS'CaptainTrips-7739255736ee3d22e0eb537422df4ef2'
p274
asS'Magnitogorsk'
p275
(lp276
S'Magnitogorsk.1-a8c3ad3ffda11bdcb1ddbe1829807148'
p277
aS'Magnitogorsk.1-065455d9f0e52723ebc7a496d5ae8ebc'
p278
aS'Magnitogorsk.1-01c62b47c1d4bbc19d712e6715e32557'
p279
asS'Checksum'
p280
(lp281
S'Checksum-560132509f5873be50b619b9e9b5dc73'
p282
asS'F'
p283
(lp284
S'F.You.635-5787ffdd8297267fab6120fb7a206efc'
p285
asS'Fingers'
p286
(lp287
S'Fingers.1-c425eba2cc7d270c6f179284ee36d7f5'
p288
asS'Maaike'
p289
(lp290
S'Maaike.E-c68123edf8311b167a65cdb53cb19627'
p291
asS'Amoeba'
p292
(lp293
S'Amoeba.1-e47c6b69fe8424baa650c571b9ab3587'
p294
asS'ChristmasViolator'
p295
(lp296
S'ChristmasViolator-a7bb2e1f3c87e7013c4c753bfe443f48'
p297
aS'ChristmasViolator-c8b2520ea6a950366b4c583c13efa567'
p298
asS'SillyCOM'
p299
(lp300
S'SillyCOM.290-2b1165f5e29faaf3a9ec1568674b48e3'
p301
asS'Diskspoiler'
p302
(lp303
S'Diskspoiler-0b0157e4ade9fe09f1aa59d02a162f14'
p304
asS'Bryansk'
p305
(lp306
S'Bryansk-2794ad93a1b734719679d233e3d496ed'
p307
asS'SK'
p308
(lp309
S'SK-80c6db4f5e0e3daa3cf38dfb199374e2'
p310
aS'SK-1697797f721fd353403ca0bd0efbacb8'
p311
aS'SK-5b8979300e3a3019ea447959870514c0'
p312
aS'SK.A-9691be4eb2bb99a3d3e579342a5a9298'
p313
asS'Orion'
p314
(lp315
S'Orion.365-c125a7ea85c554c2ee164450eb42febc'
p316
aS'Orion.365-9f978d4b128872fcbd6236432095852a'
p317
asS'NoHope'
p318
(lp319
S'NoHope-1680b38a2a9405f268996b1e0594093c'
p320
asS'Poem'
p321
(lp322
S'Poem.2-8980e96c4c36cf3f0b325a5f959ab8ce'
p323
aS'Poem.2-6d95d41068a64de65a93e044115332fa'
p324
asS'Piter'
p325
(lp326
S'Piter.2-58411bb28c19da4de9b2da59ecd45d3b'
p327
aS'Piter.2-5dd155055dcf72e9dda8128f083bf0e3'
p328
aS'Piter.2-642d4365aae1c77137136ffadb8f9be8'
p329
aS'Piter.2-c3e8b4ef9520fbfa9aa54e6535d28e18'
p330
asS'Cruncher'
p331
(lp332
S'Cruncher-5eb639a29f3300141f3f1eb41658d73f'
p333
asS'Kohn6'
p334
(lp335
S'Kohn6.638-859c14ea9981fd7ec8dfe3a861f61b14'
p336
aS'Kohn6.633-12d6281817bbcb6fbd644e514812853b'
p337
asS'Timemark'
p338
(lp339
S'Timemark.1062-68cfb7f7c9876938ed31752b2619c102'
p340
asS'Mix'
p341
(lp342
S'Mix.664-b67362b215e162c6db81ccbe8e55ff51'
p343
aS'Mix.664-28408a619f94fa9161ab6bb771535cac'
p344
aS'Mix.664-140a65db06bac59eadba219254f1db83'
p345
asS'Michelandrop'
p346
(lp347
S'Michelandrop-bcabc6fef8a8c869fcd5bf2f4360f14f'
p348
asS'Dutch'
p349
(lp350
S'Dutch124-ab12ac29312274cd415373ce92e7583f'
p351
asS'Squawk'
p352
(lp353
S'Squawk.1-ab402d66be9bc452dd759eda49352d44'
p354
asS'Massacre'
p355
(lp356
S'Massacre-b464574842afd8c55b0f93023c5d6633'
p357
asS'Munich'
p358
(lp359
S'Munich-a2f42236fa2a2e62bc92fbc0d9de46dd'
p360
asS'Wave'
p361
(lp362
S'Wave-94f52db02a1a253a78103c2473193cbe'
p363
asS'LittlePieces'
p364
(lp365
S'LittlePieces.1-c626a0795fe47813189d952048ce4517'
p366
aS'LittlePieces.1-a4e6cf5c476dff0646dfafe2f762fbe8'
p367
asS'Atom'
p368
(lp369
S'Atom.350-06f31660048bd3267b5a98bef0ac5ae1'
p370
asS'Whale'
p371
(lp372
S'Whale.22-d70346d0e90ddc09edde1142041e2175'
p373
aS'Whale.22-d462bcaa4cd791a781968335f045b04c'
p374
aS'Whale.22-31213f13dccefd33f126492ece8028b8'
p375
asS'Ohlala'
p376
(lp377
S'Ohlala-70b793b939e18f4544690b16a5c1223a'
p378
asS'Timid'
p379
(lp380
S'Timid.305-0de44ce6a90beefaeff357d515ae8e79'
p381
asS'MPS'
p382
(lp383
S'MPS.3.1.A-ba3ba344edca6245b7567a101a2aa87f'
p384
asS'ABC'
p385
(lp386
S'ABC-d86d8292097c3d3f62e8ffeacbe247dd'
p387
asS'V2000'
p388
(lp389
S'V2000-d784b1b29626c312dae7c011bf9b349b'
p390
aS'V2000-238467f71bebeb7c859a5c6e263a80a6'
p391
asS'Yale'
p392
(lp393
S'Yale.2-8d6fdbbd7b603370a4400eeb4c028a23'
p394
asS'DarkApoc'
p395
(lp396
S'DarkApoc.1016-d7f136c7a00aa6236bec5ed852929a8f'
p397
asS'NymphoMitosis'
p398
(lp399
S'NymphoMitosis-055c0bd7a7fa81826ed0e6bcbbc5201d'
p400
asS'Multiplex'
p401
(lp402
S'Multiplex.815-2abbf782309f5938c451a11e904859eb'
p403
asS'Signs'
p404
(lp405
S'Signs-8e154653ffcd628b119306b64fdeeeb2'
p406
asS'Praying'
p407
(lp408
S'Praying-0d3446bbadb72b5a1cdd2548c389de57'
p409
asS'Trivial'
p410
(lp411
S'Trivial.Ansibomb-25e51990d9817bc1298c425f92f621f4'
p412
aS'Trivial.42-8a44f220fcbed94bdf58057b11d9e343'
p413
aS'Trivial.75-4cdd7e77d2c79fd04ffaf6c5ef448475'
p414
aS'Trivial.102-52199312a9f1a1f4791adc7b7807e066'
p415
aS'Trivial.Mini35-49834a0f717737b13c8f75643650a4ef'
p416
aS'Trivial.37.A-e5d5719f416154a0ae2755beed55f2b9'
p417
aS'Trivial.46.E-f8a8f12e5a3a25887cc9aa1a2deb53da'
p418
aS'Trivial.25-2d660d3acc48812b0acd11a3f00b6c71'
p419
aS'Trivial.28.A-0acdeaa2de0f997c9e3c023a6bf848e1'
p420
aS'Trivial.31-6014fbde26b79fb0f309026afb4fa296'
p421
aS'Trivial.98-8b3c9af1ca978acbd5df45fecc02ec76'
p422
aS'Trivial.64-67152182cf1987144d9eddb3f54bce83'
p423
aS'Trivial.44.A-cad12c9d6f2041e0b0911511b5e78d6b'
p424
aS'Trivial.44.A-cad12c9d6f2041e0b0911511b5e78d6b'
p425
aS'Trivial.28.B-d32fe6b0e8cf47926cc4bd4fd82f4610'
p426
aS'Trivial.26-3eb244b6b204b12cf9741c24a94c7b70'
p427
aS'Trivial.31.B-401f48c7e22b9d17dad0ffb8e2d97954'
p428
asS'Hacker'
p429
(lp430
S'Hacker.2-683c72e73803104b37121b72110dcf8f'
p431
aS'Hacker.2-766c6884def9902925a965a651a86eb1'
p432
aS'Hacker.2-c392da0a6a2852d882a7a1b20c838cbb'
p433
aS'Hacker.3-93e04627db30422e483b84456ddc11a0'
p434
asS'Horse'
p435
(lp436
S'Horse.A-3e96fa67d547c08a3fd03b306583a0af'
p437
aS'Horse.B-f9d1d896e8ec7c2c79160c81008b843f'
p438
aS'Horse.B-a2ce82f156425f325aaf20212695bec4'
p439
asS'TinyFamily2'
p440
(lp441
S'TinyFamily2-059bf52023ad1c27fde8a4765065e90a'
p442
asS'Daemaen'
p443
(lp444
S'Daemean-3e880da8be5a9c6165a2e46272c9015c'
p445
asS'Keypress'
p446
(lp447
S'Keypress.II.B-4a11743eb1a321a418f0b3074cc4fb60'
p448
aS'Keypress.3-b54f1b137d61443f4cb3984c64ba0601'
p449
aS'Keypress.3-b54f1b137d61443f4cb3984c64ba0601'
p450
aS'Keypress.II.B-b23d7c6ee655cbb86d5e4281b92e32a2'
p451
aS'Keypress.II.B-b23d7c6ee655cbb86d5e4281b92e32a2'
p452
aS'Keypress.II.B-b23d7c6ee655cbb86d5e4281b92e32a2'
p453
aS'Keypress.II.B-0d0963952bdad4877c2c807be12f16db'
p454
aS'Keypress.II.B-0d0963952bdad4877c2c807be12f16db'
p455
aS'Keypress.II.B-0d0963952bdad4877c2c807be12f16db'
p456
aS'Keypress.II.B-2d1b67dfda305ea9ce066bc1c2dd22b6'
p457
asS'MIR'
p458
(lp459
S'MIR-a4584478bf53924cf04e051e745f9957'
p460
asS'Kode4'
p461
(lp462
S'Kode.4.B-02f894ace67e1a563badb7cae9d00078'
p463
aS'Kode.4.B-280dcd8b310bbcfbac167955ade3ff45'
p464
asS'Pixel'
p465
(lp466
S'Pixel.936-9ed2a2a0045749b3f4922f407397a5b0'
p467
aS'Pixel.296-0544391f2892dada6433d211f09db7bb'
p468
aS'Pixel.10-ff9090294d98ebe77af96bf501f52fc1'
p469
aS'Pixel.296-200d53aa9fbac337f2dd82086001b91b'
p470
aS'Pixel.296-20ffdeb1832b15b7ad7fe53117127cdf'
p471
aS'Pixel.7-4f212308157364b1da4123f8e6d2cc0e'
p472
aS'Pixel.296-6c9813485d42fc779480aad903559a79'
p473
asS'Hero'
p474
(lp475
S'Hero.2-91dbf48d1863fc5f704ce862a5f258f3'
p476
asS'AnkeHuber'
p477
(lp478
S'AnkeHuber-f30e71bb910ccecaf861a7fc99225caf'
p479
asS'Halloechen'
p480
(lp481
S'Halloechen-f22df5609eef2b748c9debe870b8d128'
p482
asS'Natas'
p483
(lp484
S'Natas.b-fd796ff196a6d72101e1cf37d6237cc8'
p485
aS'Natas.b-1ba36a08b42e61d23895927db0adc5ad'
p486
aS'Natas.4744.B-7d21c213522cce66378b522dde055239'
p487
aS'Natas.4746.B-e04c14537dd04bff9d97f08732a568d2'
p488
asS'Wisconson'
p489
(lp490
S'Wisconson-0aac3ef65c13d3909fdbe4866bfb0bde'
p491
asS'Basilisk'
p492
(lp493
S'Basilisk.1639-c0ae6c916bc917bd9a7d1a71cd116103'
p494
asS'Path'
p495
(lp496
S'Path.Hunter.3-4a1fc47897f79bb7609f9616bd6d2119'
p497
asS'Enola'
p498
(lp499
S'Enola.1-49d9cfe4410102bc90e3e6df0410c320'
p500
asS'TPE'
p501
(lp502
S'TPE.Girafe.A.staticsig-35fc21c873083c4ba7260e79122e6599'
p503
asS'Relzfu'
p504
(lp505
S'Relzfu.2-806b016b9258a80944096d1491b20370'
p506
asS'BackForm'
p507
(lp508
S'BackForm2000.1-ceba349593ce8d205f22bb51199d3e6f'
p509
asS'Leningrad_II'
p510
(lp511
S'Leningrad_II.2000-4596d33dec06983dcfc570f53d2d12ca'
p512
asS'SlowDown'
p513
(lp514
S'SlowDown-4f9680f03eadd29457be731cb38eb0d3'
p515
asS'Youth'
p516
(lp517
S'Youth.640-1c50dd9988f1dc8caf41b2aca39e12a2'
p518
asS'Leprosy'
p519
(lp520
S'Leprosy.8-6a50c7d2528fd5864c93c6a8e7442026'
p521
aS'Leprosy.AOD-ab4a5446faff8d375923c31ffd14015b'
p522
aS'Leprosy.570-b661781ee481018ef80d860a05a934e4'
p523
aS'Leprosy.664-7aa2e9571a96373e198314ed0c4be717'
p524
aS'Leprosy.664-7aa2e9571a96373e198314ed0c4be717'
p525
aS'Leprosy.350-91a05cb20cd8f36e8a26ed2c717d88f7'
p526
asS'MPCn'
p527
(lp528
S'MPCn-94c45caf463a431ce54742a0dcc04a13'
p529
asS'MPCP'
p530
(lp531
S'MPCP-060a5c573359e3e6c9af3a955f977168'
p532
aS'MPCP.1-ff6215819f95c736af5967039603e701'
p533
asS'Delyrium'
p534
(lp535
S'Delyrium.2-50453ac4b60cfdf614aa9bd87a0a567f'
p536
asS'Phunnie'
p537
(lp538
S'Phunnie-fbc34db99d6c9ffd82cfa7632ea01799'
p539
asS'CLUSTER'
p540
(lp541
S'CLUSTER-804a7e84f990ad0c85b2316e16b74e75'
p542
asS'Rat'
p543
(lp544
S'Rat.1-02588364e6e67ba863465b1e094bfe69'
p545
asS'DiamondRock'
p546
(lp547
S'DiamondRock.gen-b09a7125e0c130c6dd5d7d64f48bd527'
p548
asS'TaiPan'
p549
(lp550
S'TaiPan.438.A-678c648733b2b830102e5aa89b9bc897'
p551
asS'DualGTM'
p552
(lp553
S'DualGtm-7afe354ef7570b52eb865516dc046e31'
p554
asS'Eliza'
p555
(lp556
S'Eliza.1194-c9aec1cfbcb8d537d6e7a6774bd2bdd6'
p557
asS'Liberty'
p558
(lp559
S'Liberty.2-09d3ffe35685236c2789e220c6b93211'
p560
aS'Liberty.1-22eac7dad4b0b50764f80a55a438bdfa'
p561
aS'Liberty.1-6849488882b508a9d87a7565e795ebfb'
p562
asS'Live'
p563
(lp564
S'Live.800-60808dd807ca0a8fc4f69924f6dfc3be'
p565
asS'Cfsk'
p566
(lp567
S'Cfsk-127ebe1d2f5f99c9e13900867be825e9'
p568
asS'Typo'
p569
(lp570
S'Typo.1-bfaa04d8ee37a3cf3143a1a2a244ac10'
p571
aS'Typo.1-33f2d18ee7ac689a74938b8b21565793'
p572
aS'Typo.1-b237c1dca08a6ba24dce499186cad887'
p573
aS'Typo.1-a694311c755a98891f26b6e35ce85b55'
p574
aS'Typo.1-72768694bb3c5305a3d8f42f2b36732a'
p575
asS'Criminal'
p576
(lp577
S'Criminal.3-15ea15183bce8836da6b4ada5d65a659'
p578
asS'Plastique'
p579
(lp580
S'Plastique.1-6b539cafd32efaa5ea31fe5381dc8c57'
p581
aS'Plastique.2-534494d7218d1938fd142cf43995823c'
p582
aS'Plastique.2-9ff70340cab1c8fe86a579e96fe5e14b'
p583
aS'Plastique.1-b37a152d630f38a526949e738c4f61c9'
p584
aS'Plastique.1-808106c1aeb48b3c055af07d164db0ff'
p585
aS'Plastique.1-eac56caffc7893335a61caa47f634ae1'
p586
aS'Plastique.3-d4aa4d7d7cba16902bc131a6ccdf30a6'
p587
asS'VengG'
p588
(lp589
S'VengG-30490300bb5bf18397ebf70808e7c5b9'
p590
asS'Komp'
p591
(lp592
S'Komp-99546de9c9bd5cc733fc6596800dd3df'
p593
asS'Austr'
p594
(lp595
S'Austr.Parasite.3-afbfb70f550bca15ccba7d0bd1e7fd04'
p596
aS'Austr.Para.306-facef4aa3c8cc49ef90c338fcb873bb0'
p597
aS'Austr.Para.615-77d2d6d79a680ca84832a1b29039e4ce'
p598
asS'Andromeda'
p599
(lp600
S'Andromeda.758.D-e2390e9465ae2958ac12162c9e509c93'
p601
asS'Genesis'
p602
(lp603
S'Genesis.296-1c581e6e5133f99ff7b0ab7306f4dd6b'
p604
aS'Genesis.238-807a0c19bc87e4046bcc374cb537c7c1'
p605
asS'Doom'
p606
(lp607
S'Doom.677-6ecf7a94cad8ae24128fc17075485545'
p608
aS'Doom.II.B.1-19a9be1ceec11ef7533cc2b124966d13'
p609
aS'Doom.II.B-e562f5e7bbc3ee58e6c9d616cd46d94f'
p610
asS'CSL'
p611
(lp612
S'CSL.4-8206fbb5262c69a15947b5a69d9bd2a3'
p613
aS'CSL.4.2-c32679311d04bf8d15ce91eee23ead6c'
p614
asS'Word'
p615
(lp616
S'Word.C.5-7fd959e86fb9fcd4a0aecc88f476cbee'
p617
aS'Word.B-d0f9be1ae1a029a2c23bc32b251a7068'
p618
aS'Word.B-76f6a710b920ecf93b5438e86b9e9e58'
p619
asS'Traceback'
p620
(lp621
S'Traceback.3-ee23a91cb8f76e1d140d3f64b3db8b8f'
p622
aS'MIX1-d702a2e6e4ecb4b765f550db6c87ceba'
p623
asS'Nina'
p624
(lp625
S'Nina.1560-3200fe1f1fe4a57451b3fee2f2b3e4f9'
p626
asS'USSR'
p627
(lp628
S'USSR.707.B-99134c4785529994c62b16b357a0f8f9'
p629
aS'USSR.2144.B-f91600631587c21c8f28e02235fce3b0'
p630
aS'USSR.1049.D-dca9ce7079010a238a85029d4758bc16'
p631
aS'USSR.2144.B-af502d9ba8a3a551ba53e6dbac0639c4'
p632
aS'USSR.1049.D-f91b4a2eab717f83f0384e451ac8b762'
p633
aS'USSR.711-fbbd31cf56d8753c7470572ec38b41d7'
p634
aS'Xuxa.2-f218f8c4fcf63c7348608f2d90e5e4ad'
p635
aS'USSR.2144.B-86f4ff50a37371ae6e98c139d8393c0a'
p636
aS'USSR.2144.B-84706dc1155adf98ecc7d529c54392bb'
p637
aS'USSR.1049.D-54caf0a5f988123667929206f3aa5f6c'
p638
aS'USSR.1049.D-7dae6e36e4bfa75972622923ede1a365'
p639
aS'USSR.1049.D-a190ebca5f1f165dfad7caa160b05ee6'
p640
asS'PoorMan'
p641
(lp642
S'PoorMan-f8a650d3167a067f4ce02e2b2a83a7c9'
p643
asS'Constructor'
p644
(lp645
S'Constructor.THCK.2_0-6574407f2d0fe25b290bf7f6f8f8b3f2'
p646
asS'LoveChild'
p647
(lp648
S'LoveChild-a04ea3afda80c8d134e7c1d594895b7e'
p649
asS'Clinton'
p650
(lp651
S'Clinton-adf9bba03a4de87f4963892a75fd1319'
p652
asS'Chad'
p653
(lp654
S'Chad.1-6c1be564d6e00acc34230ccb0c5f4a2e'
p655
asS'TBS'
p656
(lp657
S'TBS.10-ed155a240a88b1b820ff617a20048be4'
p658
aS'TBS.7-3213717b4efcae34c8f6a4944e670078'
p659
asS'Malmsey'
p660
(lp661
S'Malmsey.495-1d52ba54e71e758232d6874fc29087d1'
p662
asS'MLTI'
p663
(lp664
S'MLTI.2-97ae142435c20de9a2f4f0271829885c'
p665
aS'MLTI.2-d0c0b0227898bb5e3023424b3d53769f'
p666
asS'Zherkov'
p667
(lp668
S'Zherkov.2970-5af90d8ec3a42b74a6b96900feab321e'
p669
aS'Zherkov.1915-6c9c729cf6104acae1dadf54ac21e79b'
p670
asS'Xtratank'
p671
(lp672
S'Xtratank.1-5b3c17cc1b68ff53e8c21b8dd8dac2a9'
p673
asS'Ontario'
p674
(lp675
S'Ontario.3-14482eebef98c07d959dd4832180ee1b'
p676
asS'Traveller'
p677
(lp678
S'Traveller.2-835d1ecfe8d9f537bbd7b08ec04c09d4'
p679
asS'Deicide'
p680
(lp681
S'Deicide.1335-a1ead91ddbb1eecadbe64540b75d09a9'
p682
aS'Deicide.666-a2b3ef504f97d4a3161e68924b7c5c03'
p683
aS'Deicide.666-3a4d66ebf2911c8048505404ca7d15f9'
p684
aS'Deicide.1335-dffb2cdf6b15706d231fa88f1cd554e7'
p685
asS'K4'
p686
(lp687
S'K4.687-e4824333d563128ec7089cb03072948e'
p688
aS'K4.737-6174ab2c21c14242fb19f7afcec794b8'
p689
asS'AIDS'
p690
(lp691
S'AIDSII-d3ffb0106bbf90d6510e77beb6cde1b3'
p692
aS'AIDS.1-2e9ff23c679aab77e95ad42e8563dd66'
p693
aS'AIDS.1-24d1c32fca9658e9456bf144eb0b25d2'
p694
aS'AIDS.1-23e0e7905b542e197cf218c86c5859ce'
p695
aS'AIDSII-ade219afde2ff1acffcd8f759c619303'
p696
asS'Sirius'
p697
(lp698
S'Sirius.545-8e3cdf62e2afdabba7ef8e363c332c63'
p699
aS'Sirius.545-0e49e5aaca8be495eb3bf63812b97ba4'
p700
asS'Slimeline'
p701
(lp702
S'Slimeline-aee909f9729724ee39fd6ffe6be2a12a'
p703
asS'Diamond'
p704
(lp705
S'Diamond-e559c6a2f51dabefb0eec280d02dd9c7'
p706
asS'SeventhSon'
p707
(lp708
S'SeventhSon.284-6bacb88a242312208bf35f821f2f9a4a'
p709
asS'BootSectorDr'
p710
(lp711
S'BootSectorDr-a26664bbf4d09f89e70c6f6f1f8ed628'
p712
aS'BootSectorDr-9c4ca02c360ff848b22a48d0c58cbd9d'
p713
aS'BootSectorDr-b1e44168180bbf8f8bf2a946157f602a'
p714
aS'BootSectorDr-8a5256bd4b7e50f1c674993a03a63d46'
p715
aS'BootSectorDr-3f5460b24798d4b11d849e37eeddf0c1'
p716
aS'BootSectorDr-8175d0f5579a031d00b36597ec43a148'
p717
aS'BootSectorDr-7ae8d80286be8d4b7f7a25587e0f3c0f'
p718
asS'Burghofer'
p719
(lp720
S'Burghofer.2-31cf69cd662569c9b67c6bb67db5ff1b'
p721
asS'Jackel'
p722
(lp723
S'Jackel.2-fdb250aea5d122bec473e2ef1c664c6f'
p724
asS'Lemming'
p725
(lp726
S'Lemming.2-69c3caadf27cefbc03c6464aaafb243c'
p727
aS'Lemming.2-ac0ad3f3c5ef62cbd0ccb116c67f1693'
p728
asS'Sunset'
p729
(lp730
S'Sunset.1-0b9bf09a62688542fc4c8491388b52a4'
p731
asS'Stsv'
p732
(lp733
S'Stsv.200-1094a7adbbae5509eefb0fee270cc3dd'
p734
asS'Betaboys'
p735
(lp736
S'Betaboys.1-b358d7cdbfef8458b097f326dc456216'
p737
asS'TUQ'
p738
(lp739
S'TUQ.RPVS-b851369037d6ec0dd8168f5dde14658c'
p740
asS'KO'
p741
(lp742
S'KO.407-839781eb8e596cf4e80a14f27fb60dae'
p743
aS'KO.407-8c057fd5a05f589d0763ef6bbad6275d'
p744
asS'PSKO'
p745
(lp746
S'PSKO-3c0e25519cd185f8447dd7ba7726f7da'
p747
asS'Pinky'
p748
(lp749
S'Pinky.A-1dc35d9f5ba0c542ab9deea887b8a5eb'
p750
asS'Atomic'
p751
(lp752
S'Atomic.232-5737282f924ac711544715461ec3921e'
p753
asS'Abraxas'
p754
(lp755
S'Abraxas.15xx-b0b12e9e9ed14a7091a49d65a3699fa8'
p756
asS'Arara'
p757
(lp758
S'Arara.1042-3c9e9e20ae07ee983df01f1143458738'
p759
asS'BadBoy'
p760
(lp761
S'Badboy.d-0f8b522c770aad667f34e69f872f7aa9'
p762
aS'BadBoy.2-c561862ec4e9f37a6a7e9fbbe8329e2e'
p763
asS'VirusD'
p764
(lp765
S'VirusD-6596f490bc1ab9a9b881362f009ed01d'
p766
asS'Flex'
p767
(lp768
S'Flex.2-74225734c8e6958dff4844e3882a227e'
p769
asS'Michelangelo'
p770
(lp771
S'Michelangelo.1-474cccc3f701aa10def15f90a442ef25'
p772
asS'Asp'
p773
(lp774
S'Asp-538d36a31eedba6b348bbad623215a58'
p775
asS'Predator'
p776
(lp777
S'Predator.1195-2b48d29239183ebc25faf337125505b3'
p778
asS'Kit'
p779
(lp780
S'Kit.1-a104391a1dd3a1c22b3d1c36aee206c0'
p781
asS'IMI'
p782
(lp783
S'IMI.1-95db4b1b1009fee6451056d97f75a015'
p784
asS'Loki'
p785
(lp786
S'Loki.971-00f5f5ac7b26cd36cebe33fcad080d97'
p787
asS'Boludo'
p788
(lp789
S'Boludo-1cc0d515430b12b150e60645950c5618'
p790
asS'Dy'
p791
(lp792
S'Dy.278-9b72741500864af0c6cb293a0db7182b'
p793
asS'Karlik'
p794
(lp795
S'Karlik.1666-c8afdcd82b8064f4caa2a5d1d76e80d2'
p796
asS'Ash'
p797
(lp798
S'Ash.712-a5fbab25b5d7eafa1b95fd4f14fe7ff3'
p799
aS'Ash.737-46a71152b7a7780127c6043015767857'
p800
asS'Omega'
p801
(lp802
S'Omega.437-b68e8b36aebf8712da8e1f5a64c0c9c7'
p803
asS'Syslock'
p804
(lp805
S'Syslock.2-79113685175a852701c1a1eb746b04c7'
p806
asS'VCL'
p807
(lp808
S'VCL.20372-9fa1ce12d11a7166ebaaa52192ca3ff1'
p809
aS'VCL.based.trojan-cc985764449d2a84c69de92a30606f13'
p810
aS'VCL.394-f4eaaa62443fc7720d1e8081f8a67a36'
p811
aS'VCL.394-f4eaaa62443fc7720d1e8081f8a67a36'
p812
aS'VCL.394-cbdc61b05d3f69e141de7bf848522932'
p813
asS'Alabama'
p814
(lp815
S'Alabama.B-b5ec7f37fdb8a3b5575d9b5c703cc4f2'
p816
asS'Burma'
p817
(lp818
S'Burma.442.A-ef600625c6e9443b436f2229e19b6ace'
p819
aS'Burma.1-faa8f1ecd7ecf80b71ee6d0319bac3ba'
p820
asS'Protecto'
p821
(lp822
S'Protecto-2e890347956f07a0984d990ccdc2a750'
p823
asS'Sticky'
p824
(lp825
S'Sticky-c382a8d02b4c0de38f69731e4b549608'
p826
asS'QD'
p827
(lp828
S'QD.335-35e56e5364e6c85d1f52322f7dc126a2'
p829
asS'Armageddon'
p830
(lp831
S'Armageddon.C-c23af340c69ac15e6abc5ed364115ae7'
p832
aS'Armageddon.C-2bc971ae32a57b870373d1aed2f97654'
p833
aS'Armageddon.C-f82a05a2230f34e6747cd5b546952426'
p834
aS'Armageddon.C-ca43454a9dec1463223f67252144a92e'
p835
asS'TinyFamily1'
p836
(lp837
S'TinyFamily1-16c5bd1b3021dd722656499f4a545097'
p838
asS'Kalah'
p839
(lp840
S'Kalah.390-72d3db6adca07b5419e9cc5a4825fc73'
p841
asS'Kiev'
p842
(lp843
S'Kiev.493-9e48e83d9b05738b571720401a169263'
p844
asS'Flash'
p845
(lp846
S'Flash.Gyorgy-46ae0cde6e57aefb123e17a0a49199eb'
p847
asS'Test'
p848
(lp849
S'Test.Virus.C-0b9df7fab3b1622d67a78a776d2d2178'
p850
asS'Pascal'
p851
(lp852
S'Pascal.440-a7242afd2b3988758770597386855fd2'
p853
aS'Pascal.529-9197e4e3155a5f5ff1596e7895139168'
p854
aS'Pascal.400-0818f30c55cf857afd722ee02bf09baf'
p855
aS'Pascal.440-af4fc51981cb94183abd2afdf43db97b'
p856
asS'Vlad'
p857
(lp858
S'Vlad.Sister-6ee5ce4546850c813ac489b58ce369a7'
p859
asS'PC'
p860
(lp861
S'PC.Flu.1-0a453f75ac4d47542017e34f18ab0fbf'
p862
asS'Saddam'
p863
(lp864
S'Saddam.4-8aae120c098e76752e0e0ac16ca234bf'
p865
asS'Grog'
p866
(lp867
S'Grog.1082-4b4cf27f8f1f49133190272a77f777cd'
p868
aS'Grog.1082-f5be75d1f5e0883ff4a6dd96fe38a515'
p869
asS'Jo'
p870
(lp871
S'Jo.Jo-7a44758a671b9b296f004814783b901a'
p872
asS'Datalock'
p873
(lp874
S'Datalock.2-815879c33d625ef67270c5348c9b38d6'
p875
asS'Clonewar'
p876
(lp877
S'Clonewar.261-45c09ce5f99e2c0675636898695f32af'
p878
aS'Close-779a171073f5a4da9d9af36dcd7f5ea3'
p879
aS'Clonewar.1-eeae246e0dae62d6eb0026dc6b9cab0e'
p880
asS'X'
p881
(lp882
S'X.Fungus-85540ba149286d373cd204e2491327a9'
p883
asS'Plaque'
p884
(lp885
S'Plaque-d7e3d6bf4d65c8968e6c1f41eecb136e'
p886
asS'Italian'
p887
(lp888
S'Italian.2-5c809b40917e2ac38f9fb7676fca4c11'
p889
asS'AlphaStrike'
p890
(lp891
S'AlphaStrike-1c2eeea7708c359b95d19aa136d9c9d8'
p892
asS'Dropper'
p893
(lp894
S'Dropper.1-6729b139036fc78d8b33844da9639d12'
p895
ag895
aS'Dropper.5-3ba44d50e579bb25acb5ea8da42bc1a0'
p896
asS'AntiCAD'
p897
(lp898
S'AntiCAD.4096-7888ff3296772236001e6b78120b29bf'
p899
asS'Hiperion'
p900
(lp901
S'Hiperion.249-12298d0e8aa250a822a4da1a3aa4f450'
p902
aS'Hiperion.1-536b106f55fdf5a69fe3629fba4da8aa'
p903
asS'SillyC'
p904
(lp905
S'SillyC.106-418ed3ad7818840cfe06e1b0d63ad7fb'
p906
aS'SillyC.1-bb034122399577e46286a26d34108b88'
p907
asS'Viruslesson2'
p908
(lp909
S'Viruslesson2-09336e9e0f4d6e0ada8eda279cefb0d6'
p910
asS'FireFly'
p911
(lp912
S'FireFly.1041-c04e06e567746f6397679c6fe3299462'
p913
asS'Darklord'
p914
(lp915
S'Darklord.2-c32266b6cb9138ffc3f196a3a3d21008'
p916
asS'Vacsina'
p917
(lp918
S'Vacsina.4-7350ca30ef5ba906ee6fdc6e67730c6a'
p919
asS'Rosen'
p920
(lp921
S'Rosen-dbc6e8391a7d2a7130476ff78a52667c'
p922
asS'Overdoze'
p923
(lp924
S'Overdoze.472-2ce5cd74150d1dc7623b1ca9029877b2'
p925
asS'VGEN'
p926
(lp927
S'VGEN.74.6-c2f0a9903ce9281aa4f1415ae2dab966'
p928
aS'VGEN.1078.48-b4f3395d7f60a66a31cf12bc82b5523d'
p929
aS'VGEN.705.0-c811bc774bcedd746a9f83c6749613d9'
p930
aS'VGEN.1063.512-d3d899d4e94dc4d7b17f08d83a093077'
p931
aS'VGEN.93.512-7d8f94170df715c7c4efa47bf6f2aa34'
p932
aS'VGEN.750.2-e66af2e7d49482ddd404683ba38db064'
p933
aS'Vgen.1334-867b568ab3a6862e0ea8e114202d5143'
p934
aS'VGEN.12049.512-7534a83d208c74c5694c3952e5116e7f'
p935
aS'VGEN.49781-1725c68991cbee803ecc712c62a12547'
p936
aS'Vgen.40-7b2bbcdc75f21834f815b7e6d8cf9231'
p937
aS'Vgen.166-5610ba8fdf4458a1fcec7773a6b36aa1'
p938
aS'VGEN.56.512-8e78665476e92eb50f8410e5030ba834'
p939
aS'Vgen.43227-3a7036b663940f11423eef0cc22d000a'
p940
aS'VGEN.1135.29-61fb2e1f88e5ebbda021655fe80103c2'
p941
aS'VGEN.137.0-448bdb267a2a8ac5928728e02342fdb7'
p942
aS'VGEN.429.6-1c4cd951db26cdb76ad26879c0ce372f'
p943
aS'Vgen.43227-821b32c0336ca4a1cd985c42335b67ce'
p944
aS'Vgen.23616-9c134558cc96aafd26bed8d7bf28f167'
p945
aS'VGEN.124.512-aaf0a4cdd4e40edd7cdd268847b0b1cd'
p946
aS'VGEN.63.0-d4f613b76ee9aead3f674e72bf6b6b35'
p947
aS'VGEN.211.100-700848a29cdcf301cd6d4b7f6fff608b'
p948
aS'VGEN.505.703.2-58e168fab9f4d270d99eb52b74bc7025'
p949
aS'VGEN.532.0-96b789befe16d8ef61aa13c9df35ecd7'
p950
aS'VGEN.447.0-5f3589ef7bba93b75fb9c4204847714a'
p951
aS'Vgen.43227-d90217100cb2dcb9d2a360bcddf354d7'
p952
aS'VGEN.3325.6-cc06c899f91713a6abc4fb0dd0fe6499'
p953
aS'Vgen.1334-f0e6df4a5fdec3423a6282ab8f54d13f'
p954
aS'VGEN.7.512-0102da15452b89e261e56b2009515ed0'
p955
aS'VGEN.70.3-be59883d55bc80760d7474e9be3bf4d0'
p956
aS'VGEN.171.6-32f1576af9136018a30f21e5383c9afd'
p957
aS'VGEN.41.0-ae545bbb5270852965d00c573dc7e9bc'
p958
aS'VGEN.19.512-9f922a71356c177202a7b88538c234ef'
p959
aS'VGEN.848.9765-18b2bac2d2d56fa823fa4d2ba6b71876'
p960
aS'VGEN.238.30-32f760338e5c30be31bd8a36a3cbbd6d'
p961
aS'VGEN.127.0-a4af78bb249396af9dde3fb4c41825e8'
p962
aS'Vgen.791-340158789261c381981dbca62730f5c4'
p963
aS'VGEN.794.3-3bdecd45323deeef2920ffe963a056d4'
p964
aS'VGEN.976.512-c7d2e0c597b5f2c649509b299f3d704a'
p965
aS'Vgen.1334-b25d3596734b9a4bcb6afd0740826d7e'
p966
aS'VGEN.3170.512-61d9fa137915c5dc94090526b0667fc3'
p967
aS'VGEN.0.0-3ef2291a4eae8cedaa5131fcb0ff7bb0'
p968
aS'VGEN.458.6-f54a492853e63dd0d17eb516fe6baf79'
p969
aS'Vgen.697-66e99666cf32d2127aadb9d5e09d2fd2'
p970
aS'VGEN.99.528-854e29708dde88a6add76d593b58c061'
p971
aS'VGEN.125.363-157eb4a0cce0be8f6c859ed18752582f'
p972
aS'VGEN.118.32-7415d55b82c8e2ec92767aecc7ebc1f9'
p973
aS'VGEN.1054.35-74ff16bf1bf24e7dd2ea0739e33d924d'
p974
aS'MIX1-d702a2e6e4ecb4b765f550db6c87ceba'
p975
aS'VGEN.66.0-ba1486abfa6ff57da900a273af3a3edf'
p976
aS'VGEN.1058.0-271859acd91decc5013c4166d1f2c0f4'
p977
aS'VGEN.14432.713-512f4ac187b7e9383a62e153f83a90f6'
p978
aS'VGEN.155.0-ff9d02c13e05cd9c00cf888117f4d7f9'
p979
aS'VGEN.46373-fde542451d9670a941e0e9dc596ec651'
p980
aS'VGEN.46373-fde542451d9670a941e0e9dc596ec651'
p981
aS'Vgen.47530-f085d9e8749e6baef0e3dcc1faa67c85'
p982
aS'Vgen.1065-100765ba4adb2c8d6f6533bd04721c6a'
p983
aS'VGEN.92.512-17a55ba65b28e13bd5065d93ec90a041'
p984
aS'VGEN.169.0-849b6af77d769ba607b8b4109eb86d53'
p985
aS'VGEN.8.0-c88591efcb1201869f600c021ddce82e'
p986
aS'VGEN.5498.512-d78dfe5eb44bd577d4155b9d861f58cb'
p987
aS'Vgen.43227-b8da43c1b3f767db5bf7257fcf6383a9'
p988
aS'Vgen.43227-b8da43c1b3f767db5bf7257fcf6383a9'
p989
aS'VGEN.483.0-f62965a575f415bdc4157379959aaea7'
p990
aS'Vgen.43227-2d56e648eb721e43f972b484c17bf2eb'
p991
aS'VGEN.77.637-0fa6c4e47b9e3596cda1d6ff79d045c1'
p992
aS'Vgen.43227-aa9a881085cb2bf185640c0988086d9f'
p993
aS'Vgen.43227-aa9a881085cb2bf185640c0988086d9f'
p994
aS'VGEN.53.6-9cee5eb6919d17c0241c72c979fe15d7'
p995
aS'VGEN.1076.92-0c461b398b42cbea8800c840537246bb'
p996
aS'VGEN.51441-36189c3528978043f93717e08514d7d9'
p997
aS'VGEN.1179.512-fb20e67b8e5cec76914b17f959514980'
p998
aS'VGEN.937.8-6922a654512702e3eefeea7f7af6b86c'
p999
aS'VGEN.14432.713-68f40e529d2a3816d713654badd56bfc'
p1000
aS'VGEN.81.512-83fef126f1b173ae0c30d2a3124c50ed'
p1001
aS'VGEN.395.378-095d78692124fcf24bfbc230f66ddf2a'
p1002
aS'VGEN.89.13-47cbf964fdb37da6c38c18d0b2530a76'
p1003
aS'VGEN.40722-f7358472d0389121ae65855b225f3f71'
p1004
aS'Vgen.265-4f237afa2b7da9330f983888ca920a3f'
p1005
aS'Vgen.265-4f237afa2b7da9330f983888ca920a3f'
p1006
aS'VGEN.168.0-aa0c2944c9e0c8dcbc852206f3cefc57'
p1007
aS'VGEN.67.0-a40064f5628d21d1c346f6c91f1a1d1f'
p1008
aS'VGEN.40790-70b5fbffbfdef36a5cac88ba34f64d2e'
p1009
aS'VGEN.198.0-7a23d6adac3779689fb2a29acb34377c'
p1010
aS'VGEN.97.0-6c2e4718011d397f6b1a9b9dac3f3845'
p1011
aS'VGEN.250.0-019a6b5765dd279c7852bd99ca31a373'
p1012
aS'Vgen.14406-a4039d5551d701f7d34c827e71a82739'
p1013
asS'Ritzen'
p1014
(lp1015
S'Ritzen.1088-8ba2fbb23e6a7a08063cea2837ba38c5'
p1016
asS'Marauder'
p1017
(lp1018
S'Marauder.1-81c7aeeb40e41a6d717e967d95503931'
p1019
asS'PS'
p1020
(lp1021
S'PS.MPC.Gen.3-9e4b2ea2c8e60ed910484a1dd81ae12f'
p1022
aS'PS.MPC.Gen.3-016a9a5f87b885fb2090fbd4f3d0c9ee'
p1023
aS'PS.MPC.Gen.3-016a9a5f87b885fb2090fbd4f3d0c9ee'
p1024
aS'PS.MPC.780-81f87bf37297f2b984a3e27cf16ee00d'
p1025
aS'PS.MPC.Eclypse.2-840095180744f0e05ab3fc8ad2dcc777'
p1026
aS'PS.MPC.Gen.2-d0d27b52a932b082aa70e821b09cad6e'
p1027
aS'PS.MPC.Gen.3-e28db559ae87797bf934032009b5c244'
p1028
aS'PS.MPC.Ear.1024.c-cc4421a4dfe507e6028190b8cb495864'
p1029
aS'PS.MPC.Eclypse-49032343490fe8f54460e1ec3bcfdd21'
p1030
aS'PS.MPC.Gen.3-a5d6edd9eccf0abbf0500a0a67e323ed'
p1031
aS'PS.MPC.Z10-48aba37b311a35a9da0502104c5b752c'
p1032
aS'PS.MPC.Doggy-3559b3c266bfa58e27d9f91ae91959d5'
p1033
aS'PS.MPC.Z10-98bac47b20b7871752d3de7b201ad924'
p1034
aS'PS.MPC.Aaron-69a54e9e42a57e79c31f7274a8761fde'
p1035
aS'PS.MPC.Gen-e8530e6260e4c92243b972e8c8ebf989'
p1036
aS'PS.MPC.Gen.3-5d0b8fed65a822c2efba011f5652f47e'
p1037
asS'Bljec'
p1038
(lp1039
S'Bljec.427-8c97abfdb47f2667472223495c5d046f'
p1040
aS'Bljec.1-0107f34a5e0e6ee569620d14a5023955'
p1041
asS'SatanBug'
p1042
(lp1043
S'SatanBug-f1640d506ead6146556b90599c8fbccf'
p1044
asS'Antrhax'
p1045
(lp1046
S'Anthrax.E-385c03ac8822ee52ff20f0eea607f304'
p1047
asS'Quell'
p1048
(lp1049
S'Quell-5dc9ee0472166e783a581348a95996cd'
p1050
asS'GenVir'
p1051
(lp1052
S'GenVir.1-9b89c320a2777e34c3cf97626c030515'
p1053
asS'Fish_damaged'
p1054
(lp1055
S'Fish_damaged.2-c9efef7c17d97b0dc90ac294dcbca8f5'
p1056
asS'Xabaras'
p1057
(lp1058
S'Xabaras.2-a31466c9be15b605d68c9d59b98b5723'
p1059
asS'Bebe'
p1060
(lp1061
S'Bebe.3-a274a53b3768cb6ca7d615c888cbf980'
p1062
asS'Chren'
p1063
(lp1064
S'Chren.4016-0aaec6ebd87ca1fd64780b90a7b336e1'
p1065
asS'C'
p1066
(lp1067
S'C.Virus.packeg-e9d37f814f0c5c2740b88f4876a4348c'
p1068
aS'C.Virus.6-fe89f76796b71b3d814a2ffae40d8ddb'
p1069
aS'C.Virus.6-fe89f76796b71b3d814a2ffae40d8ddb'
p1070
aS'C.Magic.3-24f873831711c31caba70c03a71a2e67'
p1071
asS'P1'
p1072
(lp1073
S'P1.1-3ddf974fdef5e97bbcb5ddbc67034f21'
p1074
asS'Catman'
p1075
(lp1076
S'Catman.1-8cf1cebe2732ab2a63945db9bf8f9cb2'
p1077
asS'BitAddict'
p1078
(lp1079
S'BitAddict.1-d7265cfb92a822562cb0fc2d64996531'
p1080
asS'S'
p1081
(lp1082
S'S.Vir.4-000a50c55a2f4517d2e27b21f4b27e3b'
p1083
asS'TrivMaterial'
p1084
(lp1085
S'TrivMaterial-ad8646307280999db65b7f4cd88072d7'
p1086
asS'Cheeba'
p1087
(lp1088
S'Cheeba.A.2-b85be79cc5cc30e76ac201a0c44a140d'
p1089
asS'EvenBeep'
p1090
(lp1091
S'EvenBeep.2.packed-e6f2a5e1b012859f4d199cfc1255af1b'
p1092
asS'WWT'
p1093
(lp1094
S'WWT.3-6995f8329530e3d5fa5e29abbf71bd6f'
p1095
asS'July13th'
p1096
(lp1097
S'July13th-b53bf7fff672437ff6ca2ab239431671'
p1098
asS'Fish'
p1099
(lp1100
S'Fish.6.B-8683b950152d663ba2d77abda3dd4db8'
p1101
asS'NextGen'
p1102
(lp1103
S'NextGen.2304-99ac225b34845168aac30ab32172ec44'
p1104
asS'Burger'
p1105
(lp1106
S'Burger.398-021c6dcb18784158fa0ca63fc2e34568'
p1107
aS'Burger.382-b73d6e3205f6c291b3d3a56f99cadac4'
p1108
aS'Burger.Pirate-8cc593cf134c6610433b0463d8cfc12b'
p1109
aS'Burger.441-06e0a46e3becc2b062540166e6f52e63'
p1110
aS'Burger.1336.c-21d6c993eaf87fb2192ec09a80877203'
p1111
aS'Burger.560.A15-757880750744ebe31ddc0c87f571d325'
p1112
aS'Burger.560.h-d8a6c35a4512ab1fdfd1965cfc4c9f80'
p1113
asS'Fist'
p1114
(lp1115
S'Fist.Stranger.709.a-b276aef06274a8bd1bee6763a57be2a3'
p1116
aS'Fist.683-008db1424cd7dcf4428d183d7110cd68'
p1117
asS'Pebble'
p1118
(lp1119
S'Pebble-d8de6199db42e2ef0e4ecef76ff13d0a'
p1120
asS'Yankee'
p1121
(lp1122
S'Yankee.5-579b62a3fb78a40ebdeb561319d90083'
p1123
aS'Yankee.1-cce476c53c20a952a10183468938b9c6'
p1124
aS'Yankee.1-68a63e3c0e5f2f23002adee1c660bb86'
p1125
aS'Yankee.5-a56608e7f1b3fbaca574ad0ef0fa6047'
p1126
aS'Yankee.1-ee0309d9890d4bc7e1fc87efbde59620'
p1127
asS'Trident'
p1128
(lp1129
S'Trident.454-3b449ce2200309a154a2b68e1e8340f5'
p1130
asS'Cybertech'
p1131
(lp1132
S'Cybertech.1313-835b547073f4e438bb0f0e8378212e6c'
p1133
aS'CyberTech.2-64f43224cea103be83f2e15ad7aa0b74'
p1134
aS'Cybertech.914-b4b3d26e9f5830df999186fd9b7e19c8'
p1135
asS'DarthVader'
p1136
(lp1137
S'DarthVader.344-b31756352ffe0696fe7c75820b1f288e'
p1138
aS'DarthVader.255-2e2b0467e91f807ef3bc514aa35b88f6'
p1139
asS'_0235_0001_002'
p1140
(lp1141
S'_0235_0001_002-1e93e0c5d5020ca05c31f1bdfd02ed99'
p1142
asS'Turbo'
p1143
(lp1144
S'Turbo.448.A-3c02c79505e2459adaee062daf059396'
p1145
asS'LaLa'
p1146
(lp1147
S'LaLa-efe4b9cbbfd21e4de217c12a00f270e9'
p1148
asS'BloodSugar'
p1149
(lp1150
S'BloodSugar-d6284156500f1b9b6baeaaf98dd8fd1d'
p1151
asS'Neurobasher'
p1152
(lp1153
S'Neurobasher.B.1-1bf96594813451ba2a0181e4cefb8dda'
p1154
asS'Grunt'
p1155
(lp1156
S'Grunt.203-9bbdef2169da6d6f192538b49b787ee5'
p1157
aS'Grunt.529-7397c33c6d43da66e23473c735dd27f0'
p1158
asS'Gen'
p1159
(lp1160
S'Gen.1701.1704CascadeRelated-df82b7c655efd5ec2c1c46cfcb253e27'
p1161
aS'Gen.905.A-27e61cc24788a5c76298e92f5637b12e'
p1162
aS'Gen.5120.B-449ed4d173968d6a3e1a39216b84d018'
p1163
aS'Gen.1992-520eed7d2fb520a9b4e21b113a9aa5d8'
p1164
aS'Gen.1701.1704CascadeRelated-80aa20fe3d8bd7cc0a4e2bbdea29894c'
p1165
aS'Gen.1992-efbe9a26379295d6740f261a4a84939c'
p1166
aS'Gen.1575.B-4dd48493bb7a6e13ae8ce5b12783186b'
p1167
aS'Gen.1701.1704Cascade.VersionB-c36aa9fb99334b75dcfb6cde407963c0'
p1168
aS'Gen.1677-e233fa34e8a66fcd7113b574d0a30325'
p1169
aS'Gen.3072.a-d7d14ce6c7dd733e8fe08b2d471fb858'
p1170
aS'Gen.1575.B-f6b0a8d3236b74017764f85c6ef4f77a'
p1171
aS'Gen.100.Years-6e833ea93667b9768f0b5012444ebeb6'
p1172
aS'Gen.1575.B-f9a40d4c98fe5b8163e556b7d7e626c7'
p1173
aS'Gen.1701.1704CascadeRelated-3ffc40a3a6264e5d3eb23a8400eced16'
p1174
aS'Gen.7Solution-b804d4ca849df4fff756247e8f9688de'
p1175
aS'Gen.1226B-f60deba4b109238ad3669e053cadcac1'
p1176
aS'Gen.1701.1704CascadeRelated-6d12f96239a717570de4b67fd809eef9'
p1177
aS'Gen.0067_-be4de1f03dd47742165c9a347c40dbd3'
p1178
aS'Gen.1376-110b8c3d6587dc3834cc5f5f8407a301'
p1179
aS'Gen.1701.1704CascadeRelated-1d2ab4977838f47cc74271aa04fee222'
p1180
aS'Gen.100.Years.1-776fee7e40f43db901f6eab38d0989e3'
p1181
aS'Gen.1701.1704Cascade.VersionB-f30c9f56da31767dfdc5a386c0a031a5'
p1182
aS'Gen.1355-77548cc2cee0b0df23e8b7be91a66f36'
p1183
aS'Gen.483.C-e13746af4d99867f3546ff2649d93fb0'
p1184
aS'Gen.354-58991bb4e2104fc69cd80a1fe5666094'
p1185
aS'Gen.1701.1704CascadeRelated-231c079a165b0077e8e2963a0a3486bf'
p1186
aS'Gen.100.Years.1-03127c44d06a3aa7d98041de35ee593b'
p1187
aS'Gen.100.Years.1-46b5bf2e61b156fed1918219e98078ff'
p1188
aS'Gen.1575.B-d0f159986a88fe3c53001ef51c4ae199'
p1189
aS'Gen.10Past3-20fd234d25f69cfea8905b7920e63d92'
p1190
aS'Gen.300-ddf4ac243c0126aacb02089ed7cd15f4'
p1191
aS'Gen.100.Years.1-ee5dbb6f142fe652ac74802ebb941019'
p1192
aS'Gen.8.Tunes.A-3b97269b47c9b765ddac194ec87171d4'
p1193
aS'Gen.1554-ade62ff037b7ca20fc1b95fe8d8b8059'
p1194
aS'Gen.905.A-8f51fa1df1e0ba32f2a13ef8dd1ed4fb'
p1195
asS'Barrotes'
p1196
(lp1197
S'Barrotes.2.1-4d845737aa1f41024521b4346299e4cb'
p1198
asS'Setrculius'
p1199
(lp1200
S'Setrculius.3-778bd0848a0a4f7a6db5c7c20db81093'
p1201
asS'Number'
p1202
(lp1203
S'Number.One.2-067aa565a4881d30edcddbae4224e478'
p1204
asS'V1244'
p1205
(lp1206
S'V.1241-6e168fe81ddb4505d1752ab78e3b8f08'
p1207
asS'Nazgul'
p1208
(lp1209
S'Nazgul.1-c787f0cdadfb1204ac9f933fbeaff7aa'
p1210
asS'PLO'
p1211
(lp1212
S'PLO-3e035a0b58478bc5bd727cdb293ec82b'
p1213
asS'Wordswap'
p1214
(lp1215
S'Wordswap.1391-cd47b616fdac66d34ff79135d9182040'
p1216
aS'Wordswap.1503.A-0cfd1f99053c1bfc28326d005af71e3e'
p1217
asS'Tumen'
p1218
(lp1219
S'Tumen.1-8816206f8e13c6564a138e047f5b02b1'
p1220
asS'MtE'
p1221
(lp1222
S'MtE.Encroacher.B-256462f0de7ed8389bc740d243831b24'
p1223
aS'MtE.Pcweevil.staticsig.1-deb95f114b3930e1ddba0cb23b788d3a'
p1224
aS'MtE.Pogue.staticsig-d075e1055db82a5ed2a065386ea165d7'
p1225
asS'Athens'
p1226
(lp1227
S'Athens.2-af5fa0425b58771cd13581df88bff5e9'
p1228
asS'Attention'
p1229
(lp1230
S'Attention.3-077e5f5490eb033f2d5d867349b32841'
p1231
aS'Attention.3-8086e8f3b41948d99ebab27517b049d2'
p1232
aS'Attention.3-b90557b924a722d09512546b12e743a2'
p1233
aS'Attention.3-b9be930b9c6bf966595eb1693d7ea4c4'
p1234
asS'Moron'
p1235
(lp1236
S'Moron-344077e2cccfc789cbf059bffda9aefa'
p1237
asS'Radyum'
p1238
(lp1239
S'Radyum-d95ca429446c8f86bbe14b5019ae57f7'
p1240
asS'Tic'
p1241
(lp1242
S'Xuxa.2-f218f8c4fcf63c7348608f2d90e5e4ad'
p1243
asS'Raubkopie'
p1244
(lp1245
S'Raubkopie.COM-c04e0ee278a2f3dc291282a3eb5c1734'
p1246
asS'Riot'
p1247
(lp1248
S'Riot.378-2f6597144c7f93178bd5b4fc021f30a7'
p1249
aS'Riot-bbee12f53bdbaf4dfbd9be0e590216b8'
p1250
aS'RIOTRIO_1435-6133ae5f26d37d2b805bacd62805ccbd'
p1251
aS'Riot.14-c1563ad84d7d46d03c6e51b0061a848b'
p1252
asS'Polimer'
p1253
(lp1254
S'Polimer.1-addfe478ea7c5293a121eea50d40a7b6'
p1255
asS'Dracula'
p1256
(lp1257
S'Dracula-0fa26a7c08c5066b44b8ba82bd5a5019'
p1258
asS'_0390_0001_003'
p1259
(lp1260
S'_0390_0001_003-7acfc9202bbbe8b7a2afd84c77426fc8'
p1261
asS'V1'
p1262
(lp1263
S'V.981-cc8dd99339fdfbef0c3d2e047df2828f'
p1264
aS'V.512.b-106a3ad8465ec3fa020a645b71e5ab3e'
p1265
aS'V.512.j-2da8badfbb6daf80cc2aea446d2c8bf8'
p1266
aS'V.512.a-b047fa62418b644fe13d1657282f0405'
p1267
aS'V.512.a-8d444f0980354fb6f4b9a72048f3eb56'
p1268
aS'V.512.e-9a8e2bbe693dde14b37fd0c311a5e8d4'
p1269
aS'V.512.f-47b38dcfe33e2ed1531972e0883a4267'
p1270
asS'Brotherhood'
p1271
(lp1272
S'Brotherhood.693-eddf57282e5ad5593525eb8a65aa744c'
p1273
asS'Silver'
p1274
(lp1275
S'Silver.1547-b8c87e8f1a2ce4e4e872f9ab55d784ed'
p1276
asS'Minimal'
p1277
(lp1278
S'Minimal.125-688c5548d1325b177d98ad70dcb7833d'
p1279
asS'dBase'
p1280
(lp1281
S'dBase-59d8fa78e1045ef21c1b5b333a03075d'
p1282
asS'Oropax'
p1283
(lp1284
S'Oropax.1-043c9cf5001d899cdd65a9db5a95af9f'
p1285
asS'Syslock3551'
p1286
(lp1287
S'Syslock3551-8f3cf4498d8d82d08fec40f0c35e15f8'
p1288
asS'MemLapse'
p1289
(lp1290
S'MemLapse.385-96f81c28ef2719ab9c659c16456f778d'
p1291
aS'MemLapse.385-1ab1bd5fa5d1291cbb0b67f9b33e4e74'
p1292
asS'Attitude'
p1293
(lp1294
S'Attitude.548-80cf40163253f4fb344f24ede4e82f56'
p1295
asS'Plovdiv'
p1296
(lp1297
S'Plovdiv.1.3-7232eca80daf74d585c995dfaa40a4b7'
p1298
aS'Plovdiv.3-d166fc5e947fb26e236e506b7040c921'
p1299
asS'Mini'
p1300
(lp1301
S'Mini.93-ada0c99ab935dc326ed24797ec8716e4'
p1302
aS'Mini.1-05024267a013c9c706e2a3ced57bd001'
p1303
aS'Mini.127a-23d06ef2e762827d0e2064d7139a6745'
p1304
asS'Naughty'
p1305
(lp1306
S'Naughty-4a36436f457be9361afd7dddfc6d7954'
p1307
asS'_0251_0002_000'
p1308
(lp1309
S'_0251_0002_000-0fe4cbb1727f856ac563526905003d8e'
p1310
asS'Mayhem'
p1311
(lp1312
S'Mayhem-72aafcb98dc2aa94238e1d2974d17718'
p1313
asS'DoNothing'
p1314
(lp1315
S'DoNothing.1-ad0d2c9286d2bd1e902293e6b68f19fe'
p1316
asS'Sov'
p1317
(lp1318
S'Sov.B-6c5848cac131c0dfc2b9e306de6bb734'
p1319
asS'Jerusalem'
p1320
(lp1321
S'Jerusalem.PuertoExe-d1ad4e40ebda45199b18915c4913cfbb'
p1322
aS'Jerusalem.USA-0d5f50879d4a4cd924fc6be8324923cc'
p1323
aS'Jerusalem.2.Nemesis-69c7d172b596a8e2169352d885684188'
p1324
aS'Jerusalem.PuertoExe-7f0c99f81981837836425165ac172a98'
p1325
aS'Jerusalem.USA-59558311389c3edf287cc980a4e916a2'
p1326
aS'Jerusalem.USA-462ed3c380bbcf486fbecf321e5b22e0'
p1327
aS'Jerusalem.2.Nemesis-d5b20780d87009cd51a3534e78f4e408'
p1328
aS'Jerusalem.USA-aeb11a6b67f72f903e7d3152a9ac14da'
p1329
aS'Jerusalem.USA-e43d3888b7010f4580ad71000bcf7329'
p1330
aS'Jerusalem.USA-00486bcb1accf72b245ab94b396e244e'
p1331
aS'Jerusalem.USA-9dc251ed821324513d5190430ed0b1b3'
p1332
aS'Jerusalem.USA-54fe02c949cd830e5a686afd0352b6c0'
p1333
aS'Jerusalem.USA-025bb92ed5fe6eae30b59b8b7262cb8f'
p1334
aS'Jerusalem.PuertoExe-85e4ce561e2654b37bdea1f40ffc38cb'
p1335
asS'Sunday'
p1336
(lp1337
S'Sunday.4-29e0c5f2801ebec0ba8a54f5ed2ff031'
p1338
aS'Sunday.4-29e0c5f2801ebec0ba8a54f5ed2ff031'
p1339
aS'Sunday.4-3039342faca53ccf1b1751265330c40f'
p1340
aS'Sunday.4-adbb647b2c7198c36be1e31cac0bed9f'
p1341
aS'Sunday.4-e55ecdb60b691148f0eac43a17594c5b'
p1342
aS'Sunday.4-e55ecdb60b691148f0eac43a17594c5b'
p1343
asS'BOO'
p1344
(lp1345
S'BOO.Yesmile-1b970fe187cb121e52143292c0080dc1'
p1346
asS'HBT'
p1347
(lp1348
S'HBT-2bc20ed426f9964a21a0fd8ed5f5ab0c'
p1349
asS'Argentina'
p1350
(lp1351
S'Argentina-7d15e0cdf40c1f9570a40b17eb018b50'
p1352
asS'EvenBeeper'
p1353
(lp1354
S'EvenBeeper.2-22a0afeffcbb27c228ed9df93f8ec5e4'
p1355
asS'Eternity'
p1356
(lp1357
S'Eternity.565-78fdfe29b8aab64d34097fb78db819aa'
p1358
aS'Eternity.599-904d09b7eb9367d1dc48162823679420'
p1359
asS'Lazy'
p1360
(lp1361
S'Lazy-99efc225605f619acabd71d876922c00'
p1362
aS'Lazy-9fff161f162c2b488262beaa70536b4b'
p1363
asS'Solano'
p1364
(lp1365
S'Solano.B1-02d8fb73dc27fe294d96d20841b7853f'
p1366
asS'Antimit'
p1367
(lp1368
S'Antimit-1125c471c39efcfb26e15a456e91b393'
p1369
asS'Friday'
p1370
(lp1371
S'Friday.13th.C-945e81cfb6cf6d43327a5f88202411a0'
p1372
aS'Friday.13th.C-a0167e004b2515308007884a79f00b98'
p1373
aS'Friday.13th.C-a0167e004b2515308007884a79f00b98'
p1374
aS'Friday.13th.C-ed5a24143c4a9c8ce360056bc9dea896'
p1375
asS'VTech'
p1376
(lp1377
S'VTech.B-688377afdbb98ef5380d1f64a0a0d300'
p1378
asS'Tack'
p1379
(lp1380
S'Tack.478-09a4c39dd27496639386ec6db9a46e37'
p1381
asS'MarkII'
p1382
(lp1383
S'MarkII-13cd3b9e5addd29f50220c7b03245af0'
p1384
asS'Squisher'
p1385
(lp1386
S'Squisher-bbc13b6a2844da75c3c47dba2ed73bd4'
p1387
asS'Plaice'
p1388
(lp1389
S'Plaice.1273-830ba9d16bbcebc5819111539a1b24d0'
p1390
aS'Plaice7-024f63eced2dc041558933297ae39e92'
p1391
asS'Wilbur'
p1392
(lp1393
S'Wilbur.2-33c47bca6cb899fb06d30011ae910289'
p1394
aS'Wilbur.1-d0354d5a395a2f4ae8bed677633a1616'
p1395
asS'Mega'
p1396
(lp1397
S'Mega.F-ad4d0c7871f295a36076a4bc2b304924'
p1398
asS'_0500_0001_004'
p1399
(lp1400
S'_0500_0001_004-25d92523b6115ad1eb4b5f3478fc2a52'
p1401
aS'_0500_0001_004-6c2c1a414933553c334931745c3ba55e'
p1402
asS'Joke'
p1403
(lp1404
S'Joke.Screeneater-d95e348afbcd6ee2720752874a9f16f3'
p1405
aS'Joke.Panic.05-7b7e2d572acd9119edfa92b0a710c468'
p1406
asS'SVC'
p1407
(lp1408
S'SVC.3112-099f0e7198795f65b12afb75f93df1b6'
p1409
aS'SVC.6.0.B-12bb63862539270a92e086c69c6badbe'
p1410
asS'Psychosis'
p1411
(lp1412
S'Psychosis.1202-e900ffa7c346c1b0dad97bd23744e56e'
p1413
asS'Greemlin'
p1414
(lp1415
S'Greemlin-b6fe8b1c8c4c7b36a0aa7239a8d57b2a'
p1416
asS'Crucifixion'
p1417
(lp1418
S'Crusifixion.b-0f45ee3b852d78872050103a79eaa655'
p1419
asS'Gusano'
p1420
(lp1421
S'Gusano-b60cd6fd6ae4f1db0a3d89a70d6032a3'
p1422
asS'Dir'
p1423
(lp1424
S'DIRII.k-eff55f1fd17e9f400351ceb8282e1da8'
p1425
aS'Dir.2-5ca3d65ad8757d46c04e81cfa924cb8a'
p1426
aS'Dir.IIb-bc8edb8c0d3fbd129c38fb690e7e2283'
p1427
aS'DIRII.1024.f-04e691c4451f0da054c0372e32485a23'
p1428
asS'Helloween'
p1429
(lp1430
S'Helloween.4-2aa5c697aa81dfd4eaada29289d6c5bb'
p1431
asS'Troi'
p1432
(lp1433
S'Troi.4-40ee241978411f8d917787365259614b'
p1434
asS'Albania'
p1435
(lp1436
S'Albania.429.A-9fa9de5999a8f1932457e905541ecd44'
p1437
asS'Sadost'
p1438
(lp1439
S'Sadist.2-afe807b477ecc3a029985aadb17c4422'
p1440
asS'Fichv'
p1441
(lp1442
S'Fichv.EXE1.0-3aec34a7d838c7a18af66d4f1bf08163'
p1443
asS'Quasar'
p1444
(lp1445
S'Quasar-35ff5a2e1ec977a2b39f03b138e27c3f'
p1446
asS'Sentinel'
p1447
(lp1448
S'Sentinel.6-c84422083fb69c9748d6d7b48a000e28'
p1449
aS'Sentinel.6-705b7f4841339d24eb005032bee985af'
p1450
asS'Polish'
p1451
(lp1452
S'Polish.583-ebda928540491158e42e7fb1630caa76'
p1453
aS'Polish.583-791b027236d3734703851f0bbc41b873'
p1454
asS'Westwood'
p1455
(lp1456
S'Westwood.2-6a355a233e2d00233acb145fbe83cbdd'
p1457
asS'Yanshort'
p1458
(lp1459
S'Yanshort.1961-b90d5a7a46bafda92131cd4fc92f81fc'
p1460
aS'Yanshort.1961-27cc9a6f3de210b013f3635499f15f00'
p1461
asS'Quit'
p1462
(lp1463
S'Quit.2-cc824ca65528745fb140f455c91e0942'
p1464
asS'MIX1'
p1465
(lp1466
S'MIX1.B-efedea0567428692d5dfd1cec9889527'
p1467
aS'MIX1-5df4c6736aa061c6676b02170eddc072'
p1468
aS'MIX1-69514f1ef339c00e9373f4ac3791f981'
p1469
aS'MIX1-df5a49dc703e9858fbd6ed6eab5620d3'
p1470
asS'CivilWar'
p1471
(lp1472
S'CivilWar.144-7908173236e32ed364bf44e2bb4719f8'
p1473
aS'CivilWar.144-3a9df89c4dc0dc8b92e27407c4ccf2b3'
p1474
asS'Tiny'
p1475
(lp1476
S'Tiny.Di.310-998eee4486776771cceac46df07dea6a'
p1477
aS'Tiny.290-4213d56686b6898b44b4f87bc697fc2f'
p1478
aS'Tiny.251-b9d60265933d9cead12ae1c8cdc9b747'
p1479
asS'Catfish'
p1480
(lp1481
S'Catfish.701BB-85f76bde2f3d5264ffb1204e7ac4a8cb'
p1482
asS'New'
p1483
(lp1484
S'New.COM.1-f9092c89af3a613bf0fce7989e5bf45a'
p1485
aS'New.COM.1-98a08bfe8c57674b73432229ea9c4c6f'
p1486
asS'HD'
p1487
(lp1488
S'HD.Format.2-b2b962d21abb96cda1c910af870b56c1'
p1489
aS'HD.Format.2-c2681084530eef942b5c212159c1bec7'
p1490
asS'Vienna'
p1491
(lp1492
S'Vienna.10-d89b3fd0e90ef3d58342a9566592639e'
p1493
aS'Vienna.2-c245435a2bc57c9bececea41fb684f8d'
p1494
aS'Vienna.2-c245435a2bc57c9bececea41fb684f8d'
p1495
aS'Vienna.5520-f473629f2d8bee3e17d3f65e86137cca'
p1496
aS'Vienna.3-fe6487ae868f15e149c2c28039d71cd2'
p1497
aS'Vienna.1-cbf988109b2d4f3d69d4156906621896'
p1498
aS'Vienna.1-f9849d20af0861e7331eebceeb1e5b83'
p1499
aS'Vienna.5520-541ca2a048348027bcc48acb0c0cf291'
p1500
aS'Vienna.2-ea8e8997c56e5fedcb890bf77217fab2'
p1501
aS'Vienna.1-5616140d01d1021ef0cb25470dd2c8a7'
p1502
aS'Vienna.3-52c44280da751913538c30aa133d85c6'
p1503
aS'Vienna.645.A-720c44f9ff2aca05c71a8d65377ff9a2'
p1504
asS'Skism'
p1505
(lp1506
S'Skism.1994-6d6201a9d69340daa381d69476b9e72f'
p1507
asS'Rubb'
p1508
(lp1509
S'Rubb.15.20.21-f8d9f47a2e6347b1df78d1a911218834'
p1510
asS'Killer'
p1511
(lp1512
S'Killer-982fc1133628dc3c67eb54ad5c5629e1'
p1513
aS'Killer-c20126ee4dd081aecdba244ab5e1c6db'
p1514
aS'Killer-73fa443e75ae29c1f52612a7c549563b'
p1515
aS'Killer-31de33dd1b34f9f31d4ee52ff2d1b608'
p1516
asS'Extasy'
p1517
(lp1518
S'Extasy-82ca32958ab0c0e29e5cf9267edd3e5b'
p1519
asS'PSMPC'
p1520
(lp1521
S'PSMPC.5652-aa3fed94ad917764a167ac93562ab236'
p1522
aS'PSMPC.5652-d6f7059699a212cc1fe7a01ac5ed2b9f'
p1523
aS'PSMPC.5652-5c2cf4d58bb953b0c8bde4cc4c2cd86e'
p1524
aS'PSMPC.Spunk-b97d0faed2ec22bb5bd920e94778e387'
p1525
aS'PSMPC.Spunk-3106f350e0bc72ee4433282a99fdfb8f'
p1526
aS'PSMPC.5652-97ac1006d7d3a03c0bae38fa755e93e8'
p1527
aS'PSMPC.Spunk-3ac00823fe8cae7575945f749b1c56cf'
p1528
aS'PSMPC.5652-8225e6cbc96792b5e89e9f8c15a14fb5'
p1529
aS'PSMPC.5652-e4f070134a6b804507d939d46615b356'
p1530
aS'PSMPC.Spunk-7bd496e2178da36aad5ee1857712bb9b'
p1531
aS'PSMPC.5652-b0fa428ed4641c06d50d4ba72100bf98'
p1532
aS'PSMPC.Spunk-255553e5268e6578a7471e4764b093b8'
p1533
aS'PSMPC.Spunk-255553e5268e6578a7471e4764b093b8'
p1534
aS'PSMPC.5652-a8d5bf1cc1d1c53018df369683730223'
p1535
aS'PSMPC.5652-0a2f4092b9d8643b189028d4d42d2c1c'
p1536
aS'PSMPC.5652-743974ae344ec72daf75c448cad420a2'
p1537
aS'PSMPC.5652-2e1017c5674f0f15b6a637731f69df04'
p1538
aS'PSMPC.5652-0a81ae6f830c74ed28bc41ae12e61229'
p1539
aS'PSMPC.5652-9a858c494f491f9df2aa1707687d9a31'
p1540
aS'PSMPC.5652-d4c9e5dc58b9b0a7178769c79aabdea3'
p1541
aS'PSMPC.Spunk-5e724fc323e38377b477c445352603a7'
p1542
aS'PSMPC.Spunk-5e724fc323e38377b477c445352603a7'
p1543
aS'PSMPC.5652-a8d16236327c58668006c74caa22e685'
p1544
aS'PSMPC.5652-bbf6442863c70cc7e84104f2b700be44'
p1545
aS'PSMPC.Spunk-b50495a36f7bb512caaa9c65d8b9b791'
p1546
asS'KeyboardBug'
p1547
(lp1548
S'KeyboardBug.1596-04b6124f9032a2bb566255b04b863180'
p1549
aS'KeyboardBug.1596-b0cb5819c01dd6186ee308bf6588463c'
p1550
asS'Possessed'
p1551
(lp1552
S'Possessed.E-77cccaed5add2a92194a08348676ff21'
p1553
aS'Possessed.E-93574df1346281fc37e18da944b5acad'
p1554
aS'Possessed.E-70648e2156a8aac0f3fe4e8853eb6930'
p1555
aS'Possessed.E-9c08ca0252284419b684e4ed51ff8bdc'
p1556
aS'Possessed.E-b5bdf0f5e33d1f4ac5dfc4768683db17'
p1557
aS'Possessed.E-3901eb364b840f3b74e33fe27c15e136'
p1558
asS'Cascade'
p1559
(lp1560
S'Cascade.1661-22615c3ddb08dfdb93e5975fb4566a5e'
p1561
asS'Bob'
p1562
(lp1563
S'Bob.2-ce93bca9c4c7069c24cc0bbcdf34226c'
p1564
asS'Hello'
p1565
(lp1566
S'Hello.545.B-e4e127c2ed73bc6f47f1164b358e40da'
p1567
asS'KeyKapture'
p1568
(lp1569
S'KeyKapture.923-fdb5813f961e56cde6a108e3b6097a66'
p1570
aS'KeyKapture.107X-8ac410ef0d79050a1428438c957e2b6c'
p1571
asS'Seneca'
p1572
(lp1573
S'Seneca.1-438e6620202914c9e26c816dc4b6b624'
p1574
aS'Seneca-f7d52e2eb88060d8265c0b2369f9767c'
p1575
aS'Seneca.2-a630da37c7e02614cfe986b9c31e5ae8'
p1576
aS'Seneca.2-a787fbc24f73b9d72d65ec85a955d85d'
p1577
asS'MPC'
p1578
(lp1579
S'MPC.Unnamed-f5cc52c21d9ee4cbe7dc24105a510147'
p1580
ag1580
aS'MPC.Unnamed-f5cc52c21d9ee4cbe7dc24105a510147'
p1581
ag1581
aS'MPC.Unnamed.2-a58262bbeef8126a9bf4405c97bbc766'
p1582
ag1582
aS'MPC.Unnamed.2-cbeb710990b57fe9da081a4fc4054da9'
p1583
ag1583
aS'MPC.Unnamed.2-6e8333cf3b9670d78c15c185b1e0d670'
p1584
ag1584
aS'MPC.Unnamed-03f69ebad5f21840637b97f06375c03f'
p1585
ag1585
aS'MPC.Unnamed-03f69ebad5f21840637b97f06375c03f'
p1586
ag1586
aS'MPC.Unnamed-6d6103b0446ab0f3577820dae217a409'
p1587
ag1587
aS'MPC.Unnamed-6d6103b0446ab0f3577820dae217a409'
p1588
ag1588
aS'MPC.Unnamed.2-a3f93ff77b78a237c5810c9ace8253e0'
p1589
ag1589
aS'MPC.Unnamed.2-56cc5db89d74294b104a096f1f7aa25c'
p1590
ag1590
aS'MPC.Unnamed.2-4d06385ce261abd57cd5ddc9631ccd97'
p1591
ag1591
aS'MPC.Unnamed-4c7f38c7c6b5aa62a301de5658ecc39d'
p1592
ag1592
aS'MPC.Unnamed-4c7f38c7c6b5aa62a301de5658ecc39d'
p1593
ag1593
aS'MPC.Unnamed.2-be401cd48a1c2ae6826451d518885e76'
p1594
ag1594
aS'MPC.1a-6ca8141cb6e349fc0442577b62e13cd1'
p1595
ag1595
aS'MPC.Unnamed.2-af26aa68927acbfe047a6c23edfff97f'
p1596
ag1596
aS'MPC.Unnamed-2a25163ba066d1d2fce0e4e5c4080b2d'
p1597
ag1597
aS'MPC.Unnamed-2a25163ba066d1d2fce0e4e5c4080b2d'
p1598
ag1598
aS'MPC.Unnamed-b8c411d10efce0f74968604bc4474024'
p1599
ag1599
aS'MPC.Unnamed-b8c411d10efce0f74968604bc4474024'
p1600
ag1600
aS'MPC.Unnamed-8db01614060645de304061cc39d353ef'
p1601
ag1601
aS'MPC.Unnamed-8db01614060645de304061cc39d353ef'
p1602
ag1602
aS'MPC.Unnamed-820652b98a71f7338d02206b4f63dbcd'
p1603
ag1603
aS'MPC.Unnamed-820652b98a71f7338d02206b4f63dbcd'
p1604
ag1604
asS'DevilsDance'
p1605
(lp1606
S'DevilsDance.2-ce5339f589116bee17483f04d3ff7144'
p1607
asS'DieLamer'
p1608
(lp1609
S'DieLamer-120711fb37f10531dfb7b1571da743c6'
p1610
asS'MemoryLapse'
p1611
(lp1612
S'MemoryLapse.449-3400a6a51667209d8b459a57684da937'
p1613
asS'IVP'
p1614
(lp1615
S'IVP.927-0bc037bb74c57d713b07fb43302ae1b7'
p1616
aS'IVP.665-e10330a450054113509fc63e646fd581'
p1617
aS'IVP.2385-6c2db44e66cbaa096a165b6c313b8437'
p1618
aS'IVP.Flex-251662426f261cdf4883f67463a60b3d'
p1619
aS'IVP.Bubbles.684-209a183299d8f98c4e7133e9b2900c47'
p1620
asS'Necrfear'
p1621
(lp1622
S'Necrfear-9b5f0b094525473c6777fb65e1ce5818'
p1623
asS'Datacrime'
p1624
(lp1625
S'Datacrime.II.C-c8a9c7f02d77c76dceafbec5c35e602d'
p1626
aS'Datacrime.1-a50e7f2390c2f954f08f9bd78e4cd537'
p1627
aS'Datacrime.1-2ad8cf8feb989f6deda06eccc9bc895a'
p1628
aS'Datacrime.1-04fff5cccc9a3fefbd81e35fd5a419f3'
p1629
asS'Rape'
p1630
(lp1631
S'Rape.2-32dee56666c9636fe9e621eef1c8bcf1'
p1632
aS'Rape.1882-df7a89d248184a1d3abce68a111d3b27'
p1633
asS'Scr'
p1634
(lp1635
S'Scr.Fist.II.696-f36ea25814a16e2c19e7d08fc9c05499'
p1636
asS'Icelandic'
p1637
(lp1638
S'Icelandic.Saratoga-415f1b7d4ce937b83b63da7ed27f0948'
p1639
asS'Reboot'
p1640
(lp1641
S'Reboot-a6300811606e0762ca8bd562ce7852df'
p1642
asS'Blaze'
p1643
(lp1644
S'Blaze.284-656d146f8de41d733d3c59623ef6d0b5'
p1645
aS'Blaze.MSK-8e7abf8479ae76cfe626ab84e997170e'
p1646
asS'Arcv'
p1647
(lp1648
S'Arcv.Ice.250-8f0f567e2191d212e402fcc8f97a93c7'
p1649
aS'Arcv.1060-25c48005b4667e989f47a8705b0402fd'
p1650
aS'ARCV.5-ad90c9ae56b52e14a9294492c6ed167f'
p1651
aS'ARCV.562-a74329b3a10fef9899ffdab9b0494465'
p1652
aS'ARCV.718-0161aa675d74d789f8d2d1324951e1d7'
p1653
aS'ARCV.330-bb2ab0f79d2d4122622ca6e232ffb4bf'
p1654
asS'Durban'
p1655
(lp1656
S'Durban-90dc00f00f849df7988d9afaa2f45374'
p1657
asS'Pojer'
p1658
(lp1659
S'Pojer.1941-89ca558e13ba3f7bf6cf378d35e92fb1'
p1660
asS'Enemy2G'
p1661
(lp1662
S'Enemy2G-e72154f2180eabdea53ef6a0018f27d3'
p1663
asS'MtE2'
p1664
(lp1665
S'MtE2.staticsig-0cef59cbf60037551136b08fd0002e92'
p1666
aS'MtE2.staticsig-9664bac838bfd8968596c82e09edcd1b'
p1667
aS'MtE2.staticsig-e3c64a41984dbe7c95bebffd97c5480d'
p1668
aS'MtE2.staticsig-417ecba22a90512cc1d938eaa2f6a072'
p1669
asS'Rael'
p1670
(lp1671
S'Rael-372a36cfa91ff63a3910ae14194ea85e'
p1672
asS'NTIT'
p1673
(lp1674
S'NTIT.B-478c931a533ee6934fb05e7d5152aa4e'
p1675
asS'Silly'
p1676
(lp1677
S'Silly.215-966b12c9dd0483869332a09ab4577d5b'
p1678
asS'Small'
p1679
(lp1680
S'Small.130.gen-a56e66befa283707287a504d9943c91f'
p1681
aS'Small.130.gen-0717eece4b240bd1595898e937fb8ff4'
p1682
ag1682
aS'Small.130.gen-1ccb66b3258f08d9ea36da01b3255a29'
p1683
aS'Small.130.gen-e9ac3487d509907b6ef4d82122830947'
p1684
aS'Small.130.gen-fd7b6ad0a74d43ec207e32ec65cacd83'
p1685
aS'Small.130.gen-bed970043374b7532e0709639911e128'
p1686
aS'Small.130.gen-675922be8dc7c7d696b5eedd29a0ef4b'
p1687
aS'Small.130.gen-ed40f12fd551e79f7f5b5ba9dfe0d1b3'
p1688
aS'Small.130.gen-3468be4c2d90bd6f1c15314bc896f5e2'
p1689
ag1689
aS'Small.130.gen-5433bf7bc61e728834fabced4c9cf12a'
p1690
aS'Small.130.gen-e5c2cb8a5468ff8856468bee08c74823'
p1691
ag1691
aS'Small.130.gen-bfdb9b0f8c240db7ccb734373cdfad86'
p1692
aS'Small.130.gen-b518a59a1e965a973492f84fca8c67b0'
p1693
aS'Small.130.gen-f75f8078dc7936000bdf364316e0f6c5'
p1694
aS'Small.130.gen-808e2ddac2efb8070f55500155d7eb9b'
p1695
ag1695
aS'Small.130.gen-37c68f5870d8ac54ac8c8e4b3286c777'
p1696
aS'Small.130.gen-98f90d7e26c4ecdbf79300d1dab24203'
p1697
asS'GP'
p1698
(lp1699
S'GP.1.A-a59958bd4e6b7e49450001e5602af42c'
p1700
asS'Irish'
p1701
(lp1702
S'Irish.3-0e8d2d7d4eb4ebcbe97c1dcd13b8c112'
p1703
asS'Invader'
p1704
(lp1705
S'Invader.1-efb82f74d49954f6b9112c06aa69129b'
p1706
asS'Minnow'
p1707
(lp1708
S'Minnow-93c8f533e46ae1c2d7b3d9c12898550f'
p1709
asS'QRabid'
p1710
(lp1711
S'QRabid.BTW.2-8c1a69c38942c7842c35860fcb863fe8'
p1712
asS'Twin'
p1713
(lp1714
S'Twin-2b457b5ce91df7725522a7da509c1f1f'
p1715
asS'Cybercide'
p1716
(lp1717
S'Cybercide-12d10bca0f2c8b033f02e5cc5057f8d4'
p1718
aS'Cybercide.1307-7980dda120cbc0a79da3fa50c1b13b4c'
p1719
asS'Ice'
p1720
(lp1721
S'Ice.2-b6d758da7c62c07a0d8d0bdcec990ed5'
p1722
asS'PCFlu_2G'
p1723
(lp1724
S'PCFlu_2G-fa52ea7256e2333fb527d6b1fc03cd5e'
p1725
asS'Chemist'
p1726
(lp1727
S'Chemist.1-37b060c4aa8c54eab4e3cfbd8f30f16c'
p1728
asS'Amstrad'
p1729
(lp1730
S'Amstrad.1-a2449e70009a32ad9f3304fdffbef9ff'
p1731
aS'Amstrad.1-a2449e70009a32ad9f3304fdffbef9ff'
p1732
aS'Amstrad.1-f1a7de7b174a7436af11adcc47f6ae4f'
p1733
aS'Amstrad.2-452cf8df84b19f6c5ae2b718abe0bdd4'
p1734
asS'Gotcha'
p1735
(lp1736
S'Gotcha.1-0eb5e68f83178cb4959d1d83b8543167'
p1737
aS'Gotcha.D-dd20c438d45adaa54ab19f6649963558'
p1738
aS'Gotcha.1-d60fe80e9b5e5727ec225aa055aa283b'
p1739
aS'Gotcha.1-9566d5ffb2f70c7c6e19aa7abed30053'
p1740
aS'Gotcha.1-15d75b8aab586e234e719978a65244ea'
p1741
asS'Dark'
p1742
(lp1743
S'Dark.Avenger.1801-614c826bd8c7793239109d627d5a4eaf'
p1744
aS'DarkAvenger.1947-6de6313ab69000b2cdf60e823735091c'
p1745
aS'DarkAvenger.1947-12ba92fad2f39e1e6ecac620393bd70d'
p1746
aS'DarkAvenger.1947-434f9075665016f1a89a114e99811230'
p1747
aS'Dark.Avenger.1063-577922e896fae33ae474cb0ae5c98050'
p1748
aS'DarkAvenger.1947-ca018616d0fbdac2ec81349c3ada1760'
p1749
asS'BlackMonday'
p1750
(lp1751
S'BlackMonday.4-8487d0aa0b8f302e3e09589ab30ab9c1'
p1752
aS'BlackMonday.4-dc63de07a50eefee4f10184dcb529d02'
p1753
aS'BlackMonday.4-8369e021058388dc491ecafe13ae5278'
p1754
asS'Sistor'
p1755
(lp1756
S'Sistor.2630-0d8d9fa81ad77d4e86ee1db4b5679396'
p1757
aS'Sistor.1149-cb352a4649ecedc73f84102020aabef3'
p1758
asS'XMas'
p1759
(lp1760
S'XMas.Violator.1-57ef36af4b594050af1a658bdb7d0eef'
p1761
asS'_2623'
p1762
(lp1763
S'_2623-3a9ddf32b7fd964e2f60ef480041f2bb'
p1764
asS'KLF'
p1765
(lp1766
S'KLF-7253971d2d06aced4fb5ac9cacf7a763'
p1767
asS'HollandGirl'
p1768
(lp1769
S'HollandGirl-6a085d692ffbb413bf9137c1bd58ba25'
p1770
aS'HollandGirl-02fe5d807c4d134d83284d2ca9a2a6e2'
p1771
asS'Cheef'
p1772
(lp1773
S'Cheef.300-d853066f62595d70df3b554a449fb160'
p1774
asS'December24th'
p1775
(lp1776
S'December24th-9ab2a5652b718f570862dbea2f2a6592'
p1777
asS'Flue'
p1778
(lp1779
S'Flue.1-243428023506345874035ae0a5d6b1a1'
p1780
asS'April'
p1781
(lp1782
S'April.1st.A-67950df2523160220f43d1c7d9301c1d'
p1783
aS'April.1st.E-b022ffaf0f7a14e169feabc2de0c97bf'
p1784
aS'April.1st.E-9a894bead030a9ffafe6c0a3dd4c4a4b'
p1785
asS'Int86'
p1786
(lp1787
S'Int86-44d32fd1f64fd7dcdc9171904a2e52bb'
p1788
asS'Brain'
p1789
(lp1790
S'Brain.2-9fff68f3a922b13cc0a70316eadde7ec'
p1791
asS'Spanish'
p1792
(lp1793
S'Spanish-c1eefdcb6776fb6270e34c43bd811d66'
p1794
aS'Spanish.Telecom.1-fde1947a3eef28c60c36854a2f891e8a'
p1795
asS'HHH'
p1796
(lp1797
S'HHH.1-852574cd16288f981670e18bc6951d18'
p1798
asS'Phalcon'
p1799
(lp1800
S'Phalcon.5-c7fbc5a28c4a6e3a8f411b5ce3864663'
p1801
aS'Phalcon.1-f8466426c7bc2a5934a6cf1216531db4'
p1802
as.