(dp0
S'18-fe5e8c1bd8291d61eaeb791821a20885.raw'
p1
(lp2
S'18-0a2d6f20fb149e9943e3da6342e3aa00.raw,0.965126903553'
p3
asS'4.2-1b0b292f998270f06d3dfd5ce0e09bfe.raw'
p4
(lp5
S'4.2-0ad5a75da3d7773120fa04c92cd3db6c.raw,0.865431034483'
p6
asS'27.1-9287789d5fa163b76fb37324d72439e8.raw'
p7
(lp8
S'27.1-ab179e4c4ac589ed3c62709ac7a303db.raw,1.61363636364'
p9
asS'5.2-5a63cd881fbb0e8e949435af162f66a1.raw'
p10
(lp11
S'5.2-5a63cd881fbb0e8e949435af162f66a1.raw,1.08108108108'
p12
asS'27.1-c6271d80e2ee3fa6cfb23bb9aa2f3990.raw'
p13
(lp14
S'27.1-ab179e4c4ac589ed3c62709ac7a303db.raw,1.61363636364'
p15
asS'18-2aa9591f791c94e68eec402e2cd4001c.raw'
p16
(lp17
S'18-0a2d6f20fb149e9943e3da6342e3aa00.raw,0.924705882353'
p18
asS'18-ad82c7ae9ac6e8fe687bd1564874c72c.raw'
p19
(lp20
S'18-0a2d6f20fb149e9943e3da6342e3aa00.raw,0.997215189873'
p21
asS'22.3.2-08b44d3ce119d92d63d71d84d8a06cec.raw'
p22
(lp23
S'22.3.2-5b97311bdf1099fa994dbd2168300e12.raw,0.992051282051'
p24
asS'18-d54518652204bf0176d138f7e13d2620.raw'
p25
(lp26
S'18-0a2d6f20fb149e9943e3da6342e3aa00.raw,0.966767676768'
p27
asS'12-be64d678f26456582854796b5ff13bf6.raw'
p28
(lp29
S'12-63f4ef9fedf2e6cb56ffecc61154e040.raw,1.64475524476'
p30
asS'18-ec9d093dcc76aa1b0e7fc85fe1d4908a.raw'
p31
(lp32
S'18-0a2d6f20fb149e9943e3da6342e3aa00.raw,0.903638676845'
p33
asS'14.6-76e8f6f9bd06d43aaccfbe7177742f76.raw'
p34
(lp35
S'14.1.2-ad85fd04665793ec30b30cd2c7952ce0.raw,1.83351588171'
p36
asS'27.1-ef24332132de511c670eab43b6f9e4b3.raw'
p37
(lp38
S'27.1-ab179e4c4ac589ed3c62709ac7a303db.raw,1.07363636364'
p39
asS'18-a007919d3b6c2269a0ac5ec40c270c3b.raw'
p40
(lp41
S'18-0a2d6f20fb149e9943e3da6342e3aa00.raw,0.994683544304'
p42
asS'27'
p43
(lp44
S'27.1-3941138ef3c32bff63426686c636ac91.raw'
p45
ag7
aS'27.1-ab179e4c4ac589ed3c62709ac7a303db.raw'
p46
aS'27.1-398710d6fa8388dcc4fdf1c75b3750fe.raw'
p47
ag37
ag13
aS'27.1-afda9cbcae6e14cb124e69e01c1097ad.raw'
p48
aS'27.1-c5b561e02d256335c664d72a5902ebd8.raw'
p49
aS'27.1-ec959179d203cda789049ab3e9941d5a.raw'
p50
aS'27.1-c59ebdb083ea1dafecca6210944d6038.raw'
p51
asS'20'
p52
(lp53
S'20-8f2c131566e0fa0797167136e4c66f68.raw'
p54
aS'20-0201aa1bf4a1200a54d236f1c49449fa.raw'
p55
aS'20-1dc8b8cf46b4a7cef873e8cbb3ea481f.raw'
p56
aS'20-9fe5317a305e0281b9565a65af03da0e.raw'
p57
aS'20-14ae103e4740fce8665807cdab0349ff.raw'
p58
aS'20-2d4b0f06e65449a9f94540f58eca448e.raw'
p59
aS'20-79d83b3d5e58ded9eb9e6503e2a5493b.raw'
p60
aS'20-3fff1e94006e74e16e0c47605950b546.raw'
p61
aS'20-6e9220159317af01785a33b283f4002d.raw'
p62
aS'20-8d68920c4c2ae30980aa45c55fbe797e.raw'
p63
asS'22'
p64
(lp65
S'22.3.2-7ea4921beff80e610ebf67cff4add312.raw'
p66
aS'22.3.2-0aeeab04849a80ac395535ee41a5d99f.raw'
p67
aS'22.3.2-25ac72d71808c9d02a6769c3fc74ebe0.raw'
p68
aS'22.3.2-0a99a3d3fc48a8ade8a484d1d333d2f8.raw'
p69
aS'22.3.2-6c08abd154da88a98e70e9d87340d01c.raw'
p70
aS'22.3.2-2d55436efdcf261469b7f74447d6c49a.raw'
p71
aS'22.3.2-0e9d98ae4246bf29697bb8618ad56770.raw'
p72
aS'22.3.2-5b97311bdf1099fa994dbd2168300e12.raw'
p73
aS'22.3.2-3f2ff1cc7837880a76ff903f018e3710.raw'
p74
ag22
asS'12-23fa60e4782edfada8ba8bb071a54a07.raw'
p75
(lp76
S'12-63f4ef9fedf2e6cb56ffecc61154e040.raw,1.70662100457'
p77
asS'11-78ef0a12b949f2cbac528610ceb59f14.raw'
p78
(lp79
S'11-3a28452fc0b7572a345514aa66a5e628.raw,1.1954887218'
p80
asS'29'
p81
(lp82
S'29-22fd724b05b00687fa19a10b7357a8ac.raw'
p83
aS'29-8d216fb284c55725d577c8506418dff4.raw'
p84
aS'29-7e1342bba879767880aaf65d9e6859c9.raw'
p85
aS'29-50eba7c78b50c61d5e964c3bccad2ec4.raw'
p86
aS'29-20cfefbca05c2faa7fe643cd0fe6487c.raw'
p87
aS'29-15af40c347a16f4206b564d4d5e58be2.raw'
p88
aS'29-28689bc4d451c05931e7903d0ee17d2f.raw'
p89
aS'29-55bd961af45636738c7c5e1891bc53a9.raw'
p90
aS'29-31dc126226fbefdc012bee8dce22539d.raw'
p91
aS'29-8da56c9d1ed977fc2aec41e085241b4c.raw'
p92
aS'29-7d153ea9f08017d5b539621d88792597.raw'
p93
asS'18-e8946c832dce383383ef8f8556a0830e.raw'
p94
(lp95
S'18-0a2d6f20fb149e9943e3da6342e3aa00.raw,0.996767676768'
p96
asS'13.3-af18f4527ec7c85a6abfeb25e3b4e62c.raw'
p97
(lp98
S'13.4-5910c183bfb66d874a7b0978b42eb786.raw,0.986869806094'
p99
asg56
(lp100
S'20-0201aa1bf4a1200a54d236f1c49449fa.raw,1.59171597633'
p101
asS'4.2-0d0127fea275480b67f0b2cc281dfcff.raw'
p102
(lp103
S'4.2-0ad5a75da3d7773120fa04c92cd3db6c.raw,0.864353448276'
p104
asS'4'
p105
(lp106
S'4.2-f2c84f2faea8e4493988ad3b0bad761c.raw'
p107
aS'4.2-3d65196a475c37ee0d3832471b1611c3.raw'
p108
aS'4.2-1a69e53297a98207ddff7dfd84294ab7.raw'
p109
aS'4.2-0c46eace7006b062883311d87a6ddcac.raw'
p110
aS'4.2-0d74503c28746d410a1ec27bebb6b39f.raw'
p111
aS'4.2-0a9857941967e55cc74dd84c1b208581.raw'
p112
aS'4.2-0ad5a75da3d7773120fa04c92cd3db6c.raw'
p113
aS'4.2-2ecc12bbfeac1010c7e0401f0951be9e.raw'
p114
ag4
aS'4.2-0e8c2a74252999e50b36112bbe8ecd82.raw'
p115
ag102
asg61
(lp116
S'20-0201aa1bf4a1200a54d236f1c49449fa.raw,0.981034482759'
p117
asS'18-7f361fd51036a64ba60fb9d71d270966.raw'
p118
(lp119
S'18-0a2d6f20fb149e9943e3da6342e3aa00.raw,1.0246835443'
p120
asS'8'
p121
(lp122
S'8-6ebb313ee65a5915aadd971df455ce02.raw'
p123
aS'8-6c5b9065372dddec27eb4fb49fe160d8.raw'
p124
aS'8-0b7d99c126630c338d6dc51fc387d0b8.raw'
p125
aS'8-2a83e7f5b96d7e36e1512fef88bc0de6.raw'
p126
aS'8-5d1055fe2e8bc8697474fc261336b476.raw'
p127
aS'8-4ec0c06a0e1c517206431c8b8e173fd5.raw'
p128
aS'8-ddc13f738bfde488e90a7ef5a71a6db1.raw'
p129
aS'8-0b24deaba05f352d96b58df0ffac475a.raw'
p130
aS'8-2868ff07e1bc760488962955a850a7be.raw'
p131
aS'8-2f949a63fccdb4458a081aa33172b0a0.raw'
p132
aS'8-4a549a6dbcf2ee4c2bc220b644278cf5.raw'
p133
asS'12-056b991a69facc31a7c0add58eacb05b.raw'
p134
(lp135
S'12-63f4ef9fedf2e6cb56ffecc61154e040.raw,1.63342696629'
p136
asS'11-1e5efe8964d4ff3255f415e51a8781e8.raw'
p137
(lp138
S'11-3a28452fc0b7572a345514aa66a5e628.raw,1.59398496241'
p139
asg90
(lp140
S'29-7e1342bba879767880aaf65d9e6859c9.raw,1.34615384615'
p141
asS'11'
p142
(lp143
S'11-6c1bc1614d57c66fe536d3c31a05cafd.raw'
p144
aS'11-3b8daf3643167e3d7395ad71074b2e7e.raw'
p145
aS'11-5f09831df5e3d93b56c5d0b628f0dec2.raw'
p146
aS'11-8d3ab9604c4b711df7a62725e00d200f.raw'
p147
ag137
aS'11-3a28452fc0b7572a345514aa66a5e628.raw'
p148
ag78
aS'11-86a20bfefe2b942b9c105963480e81a7.raw'
p149
aS'11-48d2ab64c90e4a2983ba1b1e76442b07.raw'
p150
aS'11-55e418aed640087cd142b9f2a6d9e448.raw'
p151
asg124
(lp152
S'8-6c5b9065372dddec27eb4fb49fe160d8.raw,1.03703703704'
p153
asS'14.6-10ba8d0e754458237fb50442d3c2ca42.raw'
p154
(lp155
S'14.5-035d206e2b3b4810e7f12f8fffd903d4.raw,1.83497757848'
p156
asS'18-07fe449397be518966075d35851d910e.raw'
p157
(lp158
S'18-0a2d6f20fb149e9943e3da6342e3aa00.raw,1.0246835443'
p159
asg126
(lp160
S'8-6c5b9065372dddec27eb4fb49fe160d8.raw,0.972592592593'
p161
asS'18-e8e976b95b6372bea0cd186bbe4e7a08.raw'
p162
(lp163
S'18-0a2d6f20fb149e9943e3da6342e3aa00.raw,0.974683544304'
p164
asS'14.1.2-c3b69b7940ffab4f7ab1c6776621c174.raw'
p165
(lp166
S'14.1.2-bb50eab41b5b5da6811b498ba787ebd0.raw,0.904216281896'
p167
asS'18-f762208ebf755a34e3b2c66c7d66f4e0.raw'
p168
(lp169
S'18-0a2d6f20fb149e9943e3da6342e3aa00.raw,1.02766497462'
p170
asS'13.3-d88a44af955b31b0510976f14e2fbd78.raw'
p171
(lp172
S'13.4-5910c183bfb66d874a7b0978b42eb786.raw,0.996565096953'
p173
asS'18-1e736444770b6d0133bd4c6172e7452f.raw'
p174
(lp175
S'18-0a2d6f20fb149e9943e3da6342e3aa00.raw,1.02676767677'
p176
asS'18-00c8670e9b3dcb9cdb85537c244dda5e.raw'
p177
(lp178
S'18-0a2d6f20fb149e9943e3da6342e3aa00.raw,1.02512690355'
p179
asg67
(lp180
S'22.3.2-5b97311bdf1099fa994dbd2168300e12.raw,0.973846153846'
p181
asS'5.2-1b1f137c7c020fb02936967ac3f90af4.raw'
p182
(lp183
S'5.2-5a63cd881fbb0e8e949435af162f66a1.raw,1.51351351351'
p184
asS'18-09bacec6a7af20f8eac8d241a6b782cf.raw'
p185
(lp186
S'18-0a2d6f20fb149e9943e3da6342e3aa00.raw,0.975126903553'
p187
asS'14.5-392b618c7ab897ccfe8cbdad9a1531db.raw'
p188
(lp189
S'14.5-035d206e2b3b4810e7f12f8fffd903d4.raw,1.29058295964'
p190
asS'18-1cac979a552ce0ede9994ed05c42210d.raw'
p191
(lp192
S'18-0a2d6f20fb149e9943e3da6342e3aa00.raw,0.992151898734'
p193
asS'18-738b03b782750f86b5ab5397a3bf5191.raw'
p194
(lp195
S'18-0a2d6f20fb149e9943e3da6342e3aa00.raw,0.973027989822'
p196
asS'2-4c6784225bb509cd6d33e2ed852d22d1.raw'
p197
(lp198
S'2-8b95ea1626adbeb7a0320dbbcc1a5ca9.raw,1.47916666667'
p199
asg63
(lp200
S'20-0201aa1bf4a1200a54d236f1c49449fa.raw,0.957931034483'
p201
asS'18-4ac46cfee13e9bb90c17a46fe3cc725c.raw'
p202
(lp203
S'18-0a2d6f20fb149e9943e3da6342e3aa00.raw,1.02721518987'
p204
asS'18-0a1a36f2686601e1686fcb8b216781b1.raw'
p205
(lp206
S'18-0a2d6f20fb149e9943e3da6342e3aa00.raw,0.974683544304'
p207
asS'14.5-b5c50b8bd0b9db915fdfed483f87f3fc.raw'
p208
(lp209
S'14.5-035d206e2b3b4810e7f12f8fffd903d4.raw,1.37219730942'
p210
asS'18-21ae24a37ec25b92cd724f298b8cf957.raw'
p211
(lp212
S'18-0a2d6f20fb149e9943e3da6342e3aa00.raw,0.962151898734'
p213
asg148
(lp214
S'11-3a28452fc0b7572a345514aa66a5e628.raw,1.06766917293'
p215
asS'18-03b01a356aa089eac02cb26579ed4636.raw'
p216
(lp217
S'18-0a2d6f20fb149e9943e3da6342e3aa00.raw,0.942151898734'
p218
asS'14.5-0f02ed7e077d741b8e93c5f1084c055a.raw'
p219
(lp220
S'14.5-035d206e2b3b4810e7f12f8fffd903d4.raw,1.2639011474'
p221
asS'18-536283fa71e99605b7e9342464c49577.raw'
p222
(lp223
S'18-0a2d6f20fb149e9943e3da6342e3aa00.raw,1.03557251908'
p224
asS'18'
p225
(lp226
g40
aS'18-c71bbef5badcc5ce2a5cc81992caf45e.raw'
p227
aS'18-0d77888a42f45fa665ae01d586131c4e.raw'
p228
aS'18-b1b4dd0426ce83bd540701f2d5a6085f.raw'
p229
aS'18-22cb7f661306c1582aac7b18d03b10bd.raw'
p230
ag174
aS'18-7a834510fdd8483c812d160b46efb968.raw'
p231
aS'18-b041a0875916f3a813c68a6e18016a99.raw'
p232
aS'18-431ca0464b4870d9d3ee6cde69d563fd.raw'
p233
aS'18-52869b2b96962f9595d3be817f197f56.raw'
p234
aS'18-d7535adefffd3895cd099a6a63a3ba76.raw'
p235
aS'18-25ef57a63dd8af2be2a23ee1860ff01b.raw'
p236
aS'18-8792bfc7820a187d423af9845722ec8c.raw'
p237
aS'18-4f78788fdab1c0bada019581ec0809a4.raw'
p238
ag157
aS'18-c3f19c50d945f9c54c93656e971d5c56.raw'
p239
aS'18-cda5d2462c981d13dd1084550441c206.raw'
p240
aS'18-9eff7063aab80022ebc0057189374766.raw'
p241
ag19
aS'18-432013eae7d7ed9672a37cd48be125c0.raw'
p242
aS'18-b9dc80adcd578aaf5aa4e56d0bc62e81.raw'
p243
ag194
aS'18-ea29bc79d019326cbe80da5e821c2d97.raw'
p244
aS'18-2e4a3fd553eb340bac869bf2e128bdde.raw'
p245
aS'18-7f3c1808e399d4c8a364a7a64534ccbd.raw'
p246
aS'18-0a3da9cf8edbba354126ddea59fbdec9.raw'
p247
aS'18-62680d51f0eed9d5b30da59624433951.raw'
p248
aS'18-97866e8a5c0b4b40263850ec909ab410.raw'
p249
ag162
ag118
aS'18-d253f8cfb2aaa5ebc66c5acc8a7ab44d.raw'
p250
aS'18-fa1e34c4f1dee7d8e22e28521199c9a7.raw'
p251
aS'18-a4dc863524161559c929e8fc983f01ee.raw'
p252
aS'18-1f0137d6a8c3cf2f146c74730cf6403c.raw'
p253
aS'18-4e3bcaa89a686ce1506cad15213ca37f.raw'
p254
ag202
ag16
aS'18-01f111a0dda50c0bd24efe1a0b8538dd.raw'
p255
aS'18-4d4389f51f9075ebebb71222a08f7a91.raw'
p256
ag185
aS'18-5c377b9fa6b4c4b9d9c0fb184aa6ecc8.raw'
p257
aS'18-b3a5751f62c1bd25d9f09425534c711e.raw'
p258
aS'18-0f85140b6693a5be55a3dbccd169ab60.raw'
p259
aS'18-1d35d9b1e0e63ff42fc2def8a250fd29.raw'
p260
aS'18-47cc34218b9eea15774c07d3b5c3503b.raw'
p261
aS'18-c9d74bcde672cf1d40b04d8ee0e1c42f.raw'
p262
aS'18-2009a521d8d7453e8943396368ac9921.raw'
p263
aS'18-0a5c969937b9cd958b52af8983a249ec.raw'
p264
aS'18-28ef904d3cec7b4b374eb978b9b7acc3.raw'
p265
ag216
aS'18-0a2d6f20fb149e9943e3da6342e3aa00.raw'
p266
aS'18-5042199e2f891cfe8098cbcde37d8ae4.raw'
p267
ag31
aS'18-c37ddfb8d9f8a9500e6169e66a1ca363.raw'
p268
aS'18-12c610d9613de9ad0d00c57e3e8a60a9.raw'
p269
aS'18-0970d69bb15e898b21f7ad1f0eed40d0.raw'
p270
aS'18-e32a55b2ac18903b592f5993e6784f01.raw'
p271
ag211
aS'18-5dea7a120851d481f84f5651f5ca9c44.raw'
p272
aS'18-c7f6675859468a6de41d39c8722dad4b.raw'
p273
aS'18-d73aa09a7ac1baf852f79a5ef73ab38e.raw'
p274
ag177
aS'18-340312a531c18855acc977bae124ec80.raw'
p275
ag205
aS'18-88577f56a2e4eda6fbc80f4b10cc93e0.raw'
p276
aS'18-3bff94f44da43a07f352bda4d18221a3.raw'
p277
ag168
aS'18-00f18888317e19dba8f68e704cb08ae7.raw'
p278
aS'18-0a3b842dd9b5f65edd4b2e7dda2fb8ff.raw'
p279
aS'18-041f233ce21cec16c886fd890d9e192b.raw'
p280
aS'18-0a6b21081220a224bc00f3f7bb8a37e5.raw'
p281
aS'18-bbdc4e5c0717432a13573f2491c1e3a8.raw'
p282
aS'18-3cf87e06b8210342de94016336d9ea16.raw'
p283
aS'18-0a6c12bfbfbc5760a44576e4b69a8edd.raw'
p284
aS'18-d616249939c90baacd7e9848f6b075b3.raw'
p285
ag94
aS'18-95d81076c2728cef687f3bb7e2b06d50.raw'
p286
aS'18-f7258187cb15af382820a8e1934659b7.raw'
p287
aS'18-912b48ccaa4a1b3a58417d32e6af22ac.raw'
p288
aS'18-6179da1735dbe728081cc9777e34a943.raw'
p289
ag191
aS'18-14ec5a8be4dd7b4a7c1cb9cc650e69e7.raw'
p290
ag222
aS'18-2778ea0fff795b00a7e53651bd0d0918.raw'
p291
aS'18-0a4f49f012d9e6d3d351429d21067f80.raw'
p292
ag1
aS'18-b94fa95baf38c5ef2fd86c3cb0a4df80.raw'
p293
aS'18-381cc747998d7051190bc664320adb02.raw'
p294
aS'18-c81009dff546a60518b8ec0e2ae585ef.raw'
p295
aS'18-0a2e7517f212cfdb07e53fb40ca88a3b.raw'
p296
aS'18-e2b1b4e0bf4b90990a40f7a34ae948b1.raw'
p297
aS'18-44215390c24722a1f3312ff6c971ed5d.raw'
p298
aS'18-b2ebf70fe337f60aca09b08324f1298f.raw'
p299
aS'18-ac2043756687ae5c577a9c5536b1be4f.raw'
p300
aS'18-55a908af392f7b0fa3610429bd41d261.raw'
p301
aS'18-b77a92b99fc1b9901b025a88f2f53223.raw'
p302
aS'18-57df85db3da0ff1579711c2951fdcf8e.raw'
p303
ag25
aS'18-64cb3200922af17f409aa0c5cb06d821.raw'
p304
asg291
(lp305
S'18-0a2d6f20fb149e9943e3da6342e3aa00.raw,0.846005089059'
p306
asS'14.6-727db1fdb8bb6e9b18cf2cace89dbd74.raw'
p307
(lp308
S'14.1.2-ad85fd04665793ec30b30cd2c7952ce0.raw,1.84371807967'
p309
asg262
(lp310
S'18-0a2d6f20fb149e9943e3da6342e3aa00.raw,0.977215189873'
p311
asg85
(lp312
S'29-7e1342bba879767880aaf65d9e6859c9.raw,1.125'
p313
asg293
(lp314
S'18-0a2d6f20fb149e9943e3da6342e3aa00.raw,0.975572519084'
p315
asg128
(lp316
S'8-6c5b9065372dddec27eb4fb49fe160d8.raw,0.8'
p317
asS'14.1.2-545358c4de6b0f3b7a4ae540ccf16732.raw'
p318
(lp319
S'14.1.2-bb50eab41b5b5da6811b498ba787ebd0.raw,0.915151883354'
p320
asg303
(lp321
S'18-0a2d6f20fb149e9943e3da6342e3aa00.raw,1.03721518987'
p322
asS'14.6-0c7de3e28d712110b9693c97e55cda73.raw'
p323
(lp324
S'14.1.2-ad85fd04665793ec30b30cd2c7952ce0.raw,1.83351588171'
p325
asS'14.6-0af88469d89e56e428a2cd0c70fdf905.raw'
p326
(lp327
S'14.5-035d206e2b3b4810e7f12f8fffd903d4.raw,1.83408071749'
p328
asg87
(lp329
S'29-7e1342bba879767880aaf65d9e6859c9.raw,1.32'
p330
asg297
(lp331
S'18-0a2d6f20fb149e9943e3da6342e3aa00.raw,1.00512690355'
p332
asg298
(lp333
S'18-0a2d6f20fb149e9943e3da6342e3aa00.raw,0.974683544304'
p334
asg55
(lp335
S'20-0201aa1bf4a1200a54d236f1c49449fa.raw,1.05517241379'
p336
asg59
(lp337
S'20-0201aa1bf4a1200a54d236f1c49449fa.raw,0.962191780822'
p338
asg91
(lp339
S'29-7e1342bba879767880aaf65d9e6859c9.raw,1.29166666667'
p340
asS'14.1.2-29303771b81258c99d79d852ad1bb56d.raw'
p341
(lp342
S'14.1.2-bb50eab41b5b5da6811b498ba787ebd0.raw,0.871506682868'
p343
asg270
(lp344
S'18-0a2d6f20fb149e9943e3da6342e3aa00.raw,0.995126903553'
p345
asg277
(lp346
S'18-0a2d6f20fb149e9943e3da6342e3aa00.raw,0.914683544304'
p347
asg232
(lp348
S'18-0a2d6f20fb149e9943e3da6342e3aa00.raw,0.994683544304'
p349
asg130
(lp350
S'8-6c5b9065372dddec27eb4fb49fe160d8.raw,0.887777777778'
p351
asg93
(lp352
S'29-7e1342bba879767880aaf65d9e6859c9.raw,1.25'
p353
asS'14.5-c0e600b27a7de6714e7d75c66967151f.raw'
p354
(lp355
S'14.5-035d206e2b3b4810e7f12f8fffd903d4.raw,1.28609865471'
p356
asg237
(lp357
S'18-0a2d6f20fb149e9943e3da6342e3aa00.raw,0.967215189873'
p358
asS'13.1-288c8038afd9b6cc56c3f5caafc46659.raw'
p359
(lp360
S'13.4-5910c183bfb66d874a7b0978b42eb786.raw,1.54752066116'
p361
asg286
(lp362
S'18-0a2d6f20fb149e9943e3da6342e3aa00.raw,1.00766497462'
p363
asg280
(lp364
S'18-0a2d6f20fb149e9943e3da6342e3aa00.raw,0.962151898734'
p365
asg261
(lp366
S'18-0a2d6f20fb149e9943e3da6342e3aa00.raw,0.995126903553'
p367
asg301
(lp368
S'18-0a2d6f20fb149e9943e3da6342e3aa00.raw,0.997215189873'
p369
asS'2-3175eb2416c74a21578880850279a9b9.raw'
p370
(lp371
S'2-8b95ea1626adbeb7a0320dbbcc1a5ca9.raw,1.60655737705'
p372
asS'14.1.2-c2ebd8e7c451ee66d3be2c0d4bc8fa3a.raw'
p373
(lp374
S'14.1.2-bb50eab41b5b5da6811b498ba787ebd0.raw,0.911676718938'
p375
asg302
(lp376
S'18-0a2d6f20fb149e9943e3da6342e3aa00.raw,1.02721518987'
p377
asg70
(lp378
S'22.3.2-5b97311bdf1099fa994dbd2168300e12.raw,1.02769230769'
p379
asg45
(lp380
S'27.1-ab179e4c4ac589ed3c62709ac7a303db.raw,1.63636363636'
p381
asS'5.2-6c46afb635caee9a2a0507755f9d3bf5.raw'
p382
(lp383
S'5.2-5a63cd881fbb0e8e949435af162f66a1.raw,1.54054054054'
p384
asS'2-3198a859272ea31824e4ed89a323e25d.raw'
p385
(lp386
S'2-8b95ea1626adbeb7a0320dbbcc1a5ca9.raw,1.67796610169'
p387
asg234
(lp388
S'18-0a2d6f20fb149e9943e3da6342e3aa00.raw,0.974683544304'
p389
asg113
(lp390
S'4.2-0ad5a75da3d7773120fa04c92cd3db6c.raw,1.02047413793'
p391
asS'12-841c1f8c7c3ed9e12d557080b43b2d15.raw'
p392
(lp393
S'12-63f4ef9fedf2e6cb56ffecc61154e040.raw,1.21542897328'
p394
asS'13.4-47ea273905201c9e02e0fe09b7fb9f8f.raw'
p395
(lp396
S'13.4-5910c183bfb66d874a7b0978b42eb786.raw,0.813305670816'
p397
asS'14.6-35d864d008ed3f859bc0152e399b7cf7.raw'
p398
(lp399
S'14.1.2-ad85fd04665793ec30b30cd2c7952ce0.raw,1.83552631579'
p400
asS'13.4-abd246a1cbdc0cde74e6b1cd53452538.raw'
p401
(lp402
S'13.4-5910c183bfb66d874a7b0978b42eb786.raw,0.80648199446'
p403
asS'14.6-18e21d0add83d0452212a39cc4f30cc3.raw'
p404
(lp405
S'14.5-035d206e2b3b4810e7f12f8fffd903d4.raw,1.83497757848'
p406
asg267
(lp407
S'18-0a2d6f20fb149e9943e3da6342e3aa00.raw,0.944683544304'
p408
asS'13.3-45866d6a2a2b63c23fea2a4add3f45e7.raw'
p409
(lp410
S'13.4-5910c183bfb66d874a7b0978b42eb786.raw,0.997482710927'
p411
asg287
(lp412
S'18-0a2d6f20fb149e9943e3da6342e3aa00.raw,0.977215189873'
p413
asg66
(lp414
S'22.3.2-5b97311bdf1099fa994dbd2168300e12.raw,0.986666666667'
p415
asS'13.3-a3a326578f510500d496da838e861e39.raw'
p416
(lp417
S'13.4-5910c183bfb66d874a7b0978b42eb786.raw,0.982409972299'
p418
asg73
(lp419
S'22.3.2-5b97311bdf1099fa994dbd2168300e12.raw,1.05128205128'
p420
asg147
(lp421
S'11-3a28452fc0b7572a345514aa66a5e628.raw,1.45679012346'
p422
asS'2-46f0a11bf9418eb4f7d17aa5921068ff.raw'
p423
(lp424
S'2-8b95ea1626adbeb7a0320dbbcc1a5ca9.raw,1.625'
p425
asg88
(lp426
S'29-7e1342bba879767880aaf65d9e6859c9.raw,1.32'
p427
asg112
(lp428
S'4.2-0ad5a75da3d7773120fa04c92cd3db6c.raw,0.77099137931'
p429
asS'14.5-0f142c762c2ee6a43998a9b1eab39bf9.raw'
p430
(lp431
S'14.5-035d206e2b3b4810e7f12f8fffd903d4.raw,1.3730941704'
p432
asg295
(lp433
S'18-0a2d6f20fb149e9943e3da6342e3aa00.raw,1.0246835443'
p434
asS'14.1.2-bb50eab41b5b5da6811b498ba787ebd0.raw'
p435
(lp436
S'14.1.2-bb50eab41b5b5da6811b498ba787ebd0.raw,1.04009720535'
p437
asS'13.3-5146ee29ac94df89999dbae30adbcbce.raw'
p438
(lp439
S'13.4-5910c183bfb66d874a7b0978b42eb786.raw,0.997482710927'
p440
asS'14.5-035d206e2b3b4810e7f12f8fffd903d4.raw'
p441
(lp442
S'14.5-035d206e2b3b4810e7f12f8fffd903d4.raw,1.05739910314'
p443
asS'12-377ef3eb6fc66dca14c689ba50093822.raw'
p444
(lp445
S'12-63f4ef9fedf2e6cb56ffecc61154e040.raw,0.931562064156'
p446
asg149
(lp447
S'11-3a28452fc0b7572a345514aa66a5e628.raw,1.17293233083'
p448
asg250
(lp449
S'18-0a2d6f20fb149e9943e3da6342e3aa00.raw,0.997215189873'
p450
asg253
(lp451
S'18-0a2d6f20fb149e9943e3da6342e3aa00.raw,0.997215189873'
p452
asS'13.4-94fffddce8696589bf864bde06f9c404.raw'
p453
(lp454
S'13.4-5910c183bfb66d874a7b0978b42eb786.raw,0.859252077562'
p455
asg227
(lp456
S'18-0a2d6f20fb149e9943e3da6342e3aa00.raw,0.974683544304'
p457
asg258
(lp458
S'18-0a2d6f20fb149e9943e3da6342e3aa00.raw,0.977215189873'
p459
asS'13.4-c6a0c5b1cc5d0a0f8b394c09d8e73898.raw'
p460
(lp461
S'13.4-5910c183bfb66d874a7b0978b42eb786.raw,0.823102493075'
p462
asg144
(lp463
S'11-3a28452fc0b7572a345514aa66a5e628.raw,1.56'
p464
asg239
(lp465
S'18-0a2d6f20fb149e9943e3da6342e3aa00.raw,1.02721518987'
p466
asg92
(lp467
S'29-7e1342bba879767880aaf65d9e6859c9.raw,1.30769230769'
p468
asS'14.6-60edf812cf3e97b888713d6b695e5e1b.raw'
p469
(lp470
S'14.5-035d206e2b3b4810e7f12f8fffd903d4.raw,1.83497757848'
p471
asS'12-9cd1d6aaefada16a119db43a95c6c99d.raw'
p472
(lp473
S'12-63f4ef9fedf2e6cb56ffecc61154e040.raw,1.07826815642'
p474
asS'13.4-0607a0bf149c643e03c78d5af2e8d0ba.raw'
p475
(lp476
S'13.4-5910c183bfb66d874a7b0978b42eb786.raw,0.89756232687'
p477
asg289
(lp478
S'18-0a2d6f20fb149e9943e3da6342e3aa00.raw,1.0046835443'
p479
asg72
(lp480
S'22.3.2-5b97311bdf1099fa994dbd2168300e12.raw,0.992051282051'
p481
asS'13.3-b9464dc3399bf9a7b16fe79a7228addb.raw'
p482
(lp483
S'13.4-5910c183bfb66d874a7b0978b42eb786.raw,0.982409972299'
p484
asg48
(lp485
S'27.1-ab179e4c4ac589ed3c62709ac7a303db.raw,1.61363636364'
p486
asS'13.4-9103109fb14ae9a52874887a738ef1e3.raw'
p487
(lp488
S'13.4-5910c183bfb66d874a7b0978b42eb786.raw,0.92756232687'
p489
asg275
(lp490
S'18-0a2d6f20fb149e9943e3da6342e3aa00.raw,0.995126903553'
p491
asg290
(lp492
S'18-0a2d6f20fb149e9943e3da6342e3aa00.raw,0.944683544304'
p493
asS'2-8b95ea1626adbeb7a0320dbbcc1a5ca9.raw'
p494
(lp495
S'2-8b95ea1626adbeb7a0320dbbcc1a5ca9.raw,1.0625'
p496
asg248
(lp497
S'18-0a2d6f20fb149e9943e3da6342e3aa00.raw,0.964683544304'
p498
asg58
(lp499
S'20-0201aa1bf4a1200a54d236f1c49449fa.raw,0.967931034483'
p500
asg296
(lp501
S'18-0a2d6f20fb149e9943e3da6342e3aa00.raw,1.02512690355'
p502
asS'14.6-5c8c0cf8755b027234eb50717723113e.raw'
p503
(lp504
S'14.5-035d206e2b3b4810e7f12f8fffd903d4.raw,1.83587443946'
p505
asg109
(lp506
S'4.2-0ad5a75da3d7773120fa04c92cd3db6c.raw,0.823275862069'
p507
asS'2-07102bc47086fd712224bb9f153ebfcc.raw'
p508
(lp509
S'2-8b95ea1626adbeb7a0320dbbcc1a5ca9.raw,0.754166666667'
p510
asS'5.2-4e062f22fb165a7dafbd4f3aaea7a3e9.raw'
p511
(lp512
S'5.2-5a63cd881fbb0e8e949435af162f66a1.raw,1.54054054054'
p513
asg264
(lp514
S'18-0a2d6f20fb149e9943e3da6342e3aa00.raw,1.03258883249'
p515
asg46
(lp516
S'27.1-ab179e4c4ac589ed3c62709ac7a303db.raw,1.06818181818'
p517
asg245
(lp518
S'18-0a2d6f20fb149e9943e3da6342e3aa00.raw,1.02721518987'
p519
asS'12-63f4ef9fedf2e6cb56ffecc61154e040.raw'
p520
(lp521
S'12-63f4ef9fedf2e6cb56ffecc61154e040.raw,1.0253164557'
p522
asg276
(lp523
S'18-0a2d6f20fb149e9943e3da6342e3aa00.raw,1.02721518987'
p524
asg284
(lp525
S'18-0a2d6f20fb149e9943e3da6342e3aa00.raw,0.974683544304'
p526
asg241
(lp527
S'18-0a2d6f20fb149e9943e3da6342e3aa00.raw,0.975126903553'
p528
asS'2'
p529
(lp530
S'2-1ab33f0980ffdaf71a80fa1e9b34a8da.raw'
p531
ag197
aS'2-0914a08287845112141cf3563170b8c0.raw'
p532
ag494
ag423
ag385
aS'2-9fc3f20b92dc5b2a2d39e4f3c39465eb.raw'
p533
aS'2-1d58be103d9de9739318d1428d6aaaad.raw'
p534
ag370
ag508
asg83
(lp535
S'29-7e1342bba879767880aaf65d9e6859c9.raw,1.37037037037'
p536
asS'5.2-2ad3ffa74c561a87cdf03e6edd4f0e66.raw'
p537
(lp538
S'5.2-5a63cd881fbb0e8e949435af162f66a1.raw,1.54054054054'
p539
asg145
(lp540
S'11-3a28452fc0b7572a345514aa66a5e628.raw,1.12781954887'
p541
asS'13.3-af5ac74936f3423dda283bda6eaec5f3.raw'
p542
(lp543
S'13.4-5910c183bfb66d874a7b0978b42eb786.raw,1.02563535912'
p544
asg243
(lp545
S'18-0a2d6f20fb149e9943e3da6342e3aa00.raw,1.02215189873'
p546
asS'14.1.2-ad85fd04665793ec30b30cd2c7952ce0.raw'
p547
(lp548
S'14.1.2-bb50eab41b5b5da6811b498ba787ebd0.raw,0.858987043581'
p549
asg266
(lp550
S'18-0a2d6f20fb149e9943e3da6342e3aa00.raw,1.02544529262'
p551
asg115
(lp552
S'4.2-0ad5a75da3d7773120fa04c92cd3db6c.raw,0.860043103448'
p553
asS'13.3-648f3855faf8e9d978649435a9b6c668.raw'
p554
(lp555
S'13.4-5910c183bfb66d874a7b0978b42eb786.raw,1.38271604938'
p556
asg146
(lp557
S'11-3a28452fc0b7572a345514aa66a5e628.raw,1.15037593985'
p558
asg84
(lp559
S'29-7e1342bba879767880aaf65d9e6859c9.raw,1.29166666667'
p560
asg271
(lp561
S'18-0a2d6f20fb149e9943e3da6342e3aa00.raw,1.0246835443'
p562
asS'5.2-3eebecf1fb743037423b711d06bab4e6.raw'
p563
(lp564
S'5.2-5a63cd881fbb0e8e949435af162f66a1.raw,1.54054054054'
p565
asg150
(lp566
S'11-3a28452fc0b7572a345514aa66a5e628.raw,1.47368421053'
p567
asg125
(lp568
S'8-6c5b9065372dddec27eb4fb49fe160d8.raw,0.974814814815'
p569
asg151
(lp570
S'11-3a28452fc0b7572a345514aa66a5e628.raw,1.0977443609'
p571
asS'14.5-47248b4882fdd25c8ffbdec4401233ff.raw'
p572
(lp573
S'14.5-035d206e2b3b4810e7f12f8fffd903d4.raw,1.29775784753'
p574
asS'5.2-6c0d6173e751df0bfa8e7d872b7a2475.raw'
p575
(lp576
S'5.2-5a63cd881fbb0e8e949435af162f66a1.raw,1.54054054054'
p577
asg60
(lp578
S'20-0201aa1bf4a1200a54d236f1c49449fa.raw,1.01793103448'
p579
asS'13.4-5910c183bfb66d874a7b0978b42eb786.raw'
p580
(lp581
S'13.4-5910c183bfb66d874a7b0978b42eb786.raw,1.02493074792'
p582
asg50
(lp583
S'27.1-ab179e4c4ac589ed3c62709ac7a303db.raw,1.61363636364'
p584
asg238
(lp585
S'18-0a2d6f20fb149e9943e3da6342e3aa00.raw,0.942588832487'
p586
asg74
(lp587
S'22.3.2-5b97311bdf1099fa994dbd2168300e12.raw,0.932564102564'
p588
asg254
(lp589
S'18-0a2d6f20fb149e9943e3da6342e3aa00.raw,0.995126903553'
p590
asg62
(lp591
S'20-0201aa1bf4a1200a54d236f1c49449fa.raw,0.987931034483'
p592
asS'14.6-afb3a89e813e29b90a1ed791577a3100.raw'
p593
(lp594
S'14.1.2-ad85fd04665793ec30b30cd2c7952ce0.raw,1.83424209378'
p595
asg285
(lp596
S'18-0a2d6f20fb149e9943e3da6342e3aa00.raw,1.03512690355'
p597
asg260
(lp598
S'18-0a2d6f20fb149e9943e3da6342e3aa00.raw,1.03512690355'
p599
asS'12-28e53f7f15e38ffc3d3bb6f6b00fdf71.raw'
p600
(lp601
S'12-63f4ef9fedf2e6cb56ffecc61154e040.raw,1.63431786217'
p602
asS'13'
p603
(lp604
S'13.4-623d1927af531d6fb99c39868a14d943.raw'
p605
ag171
ag359
ag416
ag487
aS'13.4-53150ca0f9e16cef2cf5049671377fce.raw'
p606
aS'13.4-0cb632c320b38a27aaacf609f569dca2.raw'
p607
ag475
ag580
ag438
ag460
ag554
ag409
aS'13.3-b3350817df8b4325a32beb9fbe3c6dee.raw'
p608
ag482
ag401
ag97
ag453
ag395
aS'13.3-7615402ce799c327e8045c070a389762.raw'
p609
ag542
asS'12'
p610
(lp611
g520
ag28
ag600
ag392
ag75
aS'12-a217768c5844790c5c90a2fe1f09be8c.raw'
p612
ag444
ag472
ag134
aS'12-b9fe2c1354670d81c61a3d222cfa587f.raw'
p613
asg282
(lp614
S'18-0a2d6f20fb149e9943e3da6342e3aa00.raw,1.0246835443'
p615
asS'14'
p616
(lp617
S'14.1.2-883516c63f6ca421f208f02e0a53dfda.raw'
p618
ag593
ag307
aS'14.1.2-a83d8b396c494895f572bc3988952a7c.raw'
p619
ag326
ag165
aS'14.1.2-ae4652b546a10c092c22036bbc0db641.raw'
p620
ag323
ag572
ag435
ag547
aS'14.5-7f7e973fe844fa162f3025843cf4782e.raw'
p621
aS'14.1.2-ab5267f5c1bd6b8ec1b52aabccb083a7.raw'
p622
ag373
ag430
ag404
ag441
ag219
ag354
ag188
ag503
ag318
aS'14.5-821e9c215d84e3db9f8bd1fc0fecb3dc.raw'
p623
ag341
ag469
ag398
ag154
ag34
aS'14.6-95ae2769884f19218ea4e2983c69d6d7.raw'
p624
ag208
aS'14.5-561bd3c9ec7acc959e13d005efe759c1.raw'
p625
asg269
(lp626
S'18-0a2d6f20fb149e9943e3da6342e3aa00.raw,1.00721518987'
p627
asg620
(lp628
S'14.1.2-bb50eab41b5b5da6811b498ba787ebd0.raw,0.915431348724'
p629
asS'5.2-4cd886b30d0e401c15e6e77f84ec82ff.raw'
p630
(lp631
S'5.2-5a63cd881fbb0e8e949435af162f66a1.raw,1.54054054054'
p632
asg127
(lp633
S'8-6c5b9065372dddec27eb4fb49fe160d8.raw,1.02259259259'
p634
asg613
(lp635
S'12-63f4ef9fedf2e6cb56ffecc61154e040.raw,0.925724331927'
p636
asg278
(lp637
S'18-0a2d6f20fb149e9943e3da6342e3aa00.raw,1.03721518987'
p638
asg123
(lp639
S'8-6c5b9065372dddec27eb4fb49fe160d8.raw,0.934074074074'
p640
asg622
(lp641
S'14.1.2-bb50eab41b5b5da6811b498ba787ebd0.raw,0.902727272727'
p642
asg86
(lp643
S'29-7e1342bba879767880aaf65d9e6859c9.raw,1.34615384615'
p644
asg107
(lp645
S'4.2-0ad5a75da3d7773120fa04c92cd3db6c.raw,0.777456896552'
p646
asg288
(lp647
S'18-0a2d6f20fb149e9943e3da6342e3aa00.raw,0.944683544304'
p648
asg299
(lp649
S'18-0a2d6f20fb149e9943e3da6342e3aa00.raw,0.994683544304'
p650
asg256
(lp651
S'18-0a2d6f20fb149e9943e3da6342e3aa00.raw,0.994683544304'
p652
asg131
(lp653
S'8-6c5b9065372dddec27eb4fb49fe160d8.raw,1.00185185185'
p654
asg257
(lp655
S'18-0a2d6f20fb149e9943e3da6342e3aa00.raw,0.974683544304'
p656
asg612
(lp657
S'12-63f4ef9fedf2e6cb56ffecc61154e040.raw,1.63764044944'
p658
asg249
(lp659
S'18-0a2d6f20fb149e9943e3da6342e3aa00.raw,0.975126903553'
p660
asg68
(lp661
S'22.3.2-5b97311bdf1099fa994dbd2168300e12.raw,0.948205128205'
p662
asg236
(lp663
S'18-0a2d6f20fb149e9943e3da6342e3aa00.raw,1.0046835443'
p664
asg235
(lp665
S'18-0a2d6f20fb149e9943e3da6342e3aa00.raw,1.03258883249'
p666
asg229
(lp667
S'18-0a2d6f20fb149e9943e3da6342e3aa00.raw,1.02676767677'
p668
asg252
(lp669
S'18-0a2d6f20fb149e9943e3da6342e3aa00.raw,0.893638676845'
p670
asg57
(lp671
S'20-0201aa1bf4a1200a54d236f1c49449fa.raw,0.994827586207'
p672
asg89
(lp673
S'29-7e1342bba879767880aaf65d9e6859c9.raw,1.34615384615'
p674
asg51
(lp675
S'27.1-ab179e4c4ac589ed3c62709ac7a303db.raw,1.65909090909'
p676
asg233
(lp677
S'18-0a2d6f20fb149e9943e3da6342e3aa00.raw,0.995126903553'
p678
asS'5.2-1ebf3a323982d3b61617f866ed3b5551.raw'
p679
(lp680
S'5.2-5a63cd881fbb0e8e949435af162f66a1.raw,1.54054054054'
p681
asg54
(lp682
S'20-0201aa1bf4a1200a54d236f1c49449fa.raw,1.00482758621'
p683
asg108
(lp684
S'4.2-0ad5a75da3d7773120fa04c92cd3db6c.raw,0.824353448276'
p685
asg609
(lp686
S'13.4-5910c183bfb66d874a7b0978b42eb786.raw,0.942409972299'
p687
asg619
(lp688
S'14.1.2-bb50eab41b5b5da6811b498ba787ebd0.raw,0.916363636364'
p689
asg69
(lp690
S'22.3.2-5b97311bdf1099fa994dbd2168300e12.raw,0.956666666667'
p691
asg292
(lp692
S'18-0a2d6f20fb149e9943e3da6342e3aa00.raw,0.994683544304'
p693
asS'5.2-6e7354142c10c6937f8dec04728b2454.raw'
p694
(lp695
S'5.2-5a63cd881fbb0e8e949435af162f66a1.raw,1.51351351351'
p696
asg294
(lp697
S'18-0a2d6f20fb149e9943e3da6342e3aa00.raw,0.964683544304'
p698
asg133
(lp699
S'8-6c5b9065372dddec27eb4fb49fe160d8.raw,0.943333333333'
p700
asg240
(lp701
S'18-0a2d6f20fb149e9943e3da6342e3aa00.raw,0.975126903553'
p702
asg259
(lp703
S'18-0a2d6f20fb149e9943e3da6342e3aa00.raw,0.925572519084'
p704
asg231
(lp705
S'18-0a2d6f20fb149e9943e3da6342e3aa00.raw,1.02302798982'
p706
asg49
(lp707
S'27.1-ab179e4c4ac589ed3c62709ac7a303db.raw,1.63636363636'
p708
asg623
(lp709
S'14.5-035d206e2b3b4810e7f12f8fffd903d4.raw,0.803094170404'
p710
asg110
(lp711
S'4.2-0ad5a75da3d7773120fa04c92cd3db6c.raw,0.900818965517'
p712
asS'5'
p713
(lp714
g10
ag630
ag563
ag537
ag382
ag679
ag575
ag694
ag511
ag182
asg607
(lp715
S'13.4-5910c183bfb66d874a7b0978b42eb786.raw,0.831717451524'
p716
asg304
(lp717
S'18-0a2d6f20fb149e9943e3da6342e3aa00.raw,1.0246835443'
p718
asg274
(lp719
S'18-0a2d6f20fb149e9943e3da6342e3aa00.raw,0.994683544304'
p720
asg129
(lp721
S'8-6c5b9065372dddec27eb4fb49fe160d8.raw,1.00259259259'
p722
asg263
(lp723
S'18-0a2d6f20fb149e9943e3da6342e3aa00.raw,0.974683544304'
p724
asg272
(lp725
S'18-0a2d6f20fb149e9943e3da6342e3aa00.raw,0.927664974619'
p726
asg273
(lp727
S'18-0a2d6f20fb149e9943e3da6342e3aa00.raw,0.968117048346'
p728
asg621
(lp729
S'14.5-035d206e2b3b4810e7f12f8fffd903d4.raw,1.32381801963'
p730
asg300
(lp731
S'18-0a2d6f20fb149e9943e3da6342e3aa00.raw,0.992151898734'
p732
asg625
(lp733
S'14.5-035d206e2b3b4810e7f12f8fffd903d4.raw,1.28968609865'
p734
asg230
(lp735
S'18-0a2d6f20fb149e9943e3da6342e3aa00.raw,1.0346835443'
p736
asg618
(lp737
S'14.1.2-bb50eab41b5b5da6811b498ba787ebd0.raw,0.906646415553'
p738
asg247
(lp739
S'18-0a2d6f20fb149e9943e3da6342e3aa00.raw,1.02721518987'
p740
asg532
(lp741
S'2-3175eb2416c74a21578880850279a9b9.raw,1.62857142857'
p742
asg246
(lp743
S'18-0a2d6f20fb149e9943e3da6342e3aa00.raw,0.964683544304'
p744
asg251
(lp745
S'18-0a2d6f20fb149e9943e3da6342e3aa00.raw,1.02424242424'
p746
asg47
(lp747
S'27.1-ab179e4c4ac589ed3c62709ac7a303db.raw,1.61363636364'
p748
asg255
(lp749
S'18-0a2d6f20fb149e9943e3da6342e3aa00.raw,0.995572519084'
p750
asg71
(lp751
S'22.3.2-5b97311bdf1099fa994dbd2168300e12.raw,0.992051282051'
p752
asg244
(lp753
S'18-0a2d6f20fb149e9943e3da6342e3aa00.raw,1.02215189873'
p754
asg531
(lp755
S'2-8b95ea1626adbeb7a0320dbbcc1a5ca9.raw,1.44897959184'
p756
asg228
(lp757
S'18-0a2d6f20fb149e9943e3da6342e3aa00.raw,0.972151898734'
p758
asg608
(lp759
S'13.4-5910c183bfb66d874a7b0978b42eb786.raw,1.0447164592'
p760
asg606
(lp761
S'13.4-5910c183bfb66d874a7b0978b42eb786.raw,0.867867036011'
p762
asg114
(lp763
S'4.2-0ad5a75da3d7773120fa04c92cd3db6c.raw,1.02496062992'
p764
asg132
(lp765
S'8-6c5b9065372dddec27eb4fb49fe160d8.raw,0.937037037037'
p766
asg242
(lp767
S'18-0a2d6f20fb149e9943e3da6342e3aa00.raw,1.03676767677'
p768
asg281
(lp769
S'18-0a2d6f20fb149e9943e3da6342e3aa00.raw,0.964683544304'
p770
asg283
(lp771
S'18-0a2d6f20fb149e9943e3da6342e3aa00.raw,1.02215189873'
p772
asg111
(lp773
S'4.2-0ad5a75da3d7773120fa04c92cd3db6c.raw,0.863275862069'
p774
asg624
(lp775
S'14.5-035d206e2b3b4810e7f12f8fffd903d4.raw,1.83408071749'
p776
asg279
(lp777
S'18-0a2d6f20fb149e9943e3da6342e3aa00.raw,0.998117048346'
p778
asg534
(lp779
S'2-8b95ea1626adbeb7a0320dbbcc1a5ca9.raw,1.6724137931'
p780
asg265
(lp781
S'18-0a2d6f20fb149e9943e3da6342e3aa00.raw,0.975126903553'
p782
asg605
(lp783
S'13.4-5910c183bfb66d874a7b0978b42eb786.raw,0.803102493075'
p784
asg268
(lp785
S'18-0a2d6f20fb149e9943e3da6342e3aa00.raw,1.03721518987'
p786
asg533
(lp787
S'2-8b95ea1626adbeb7a0320dbbcc1a5ca9.raw,1.5'
p788
as.