(dp0
S'60'
p1
(lp2
S'60-windowsshellreverse_ipv6_http.exe'
p3
aS'60-windowsshellbind_ipv6_tcp.exe'
p4
aS'60-windowsshellreverse_ord_tcp.exe'
p5
aS'60-windowsshell_reverse_tcp.exe'
p6
aS'60-windowsshellreverse_tcp.exe'
p7
aS'60-windowsshellreverse_ipv6_tcp.exe'
p8
aS'60-windowsshellreverse_tcp_allports.exe'
p9
aS'60-windowsshellbind_tcp.exe'
p10
aS'60-windowsshellbind_nonx_tcp.exe'
p11
aS'60-windowsshell_bind_tcp_xpfw.exe'
p12
aS'60-windowsshellreverse_nonx_tcp.exe'
p13
aS'60-windowsshellfind_tag.exe'
p14
aS'60-windowsshell_bind_tcp.exe'
p15
aS'60-windowsshellreverse_http.exe'
p16
aS'60-windowsshellreverse_tcp_dns.exe'
p17
asS'61'
p18
(lp19
S'61-windowsshellreverse_nonx_tcp.raw'
p20
aS'61-windowsshellreverse_ord_tcp.raw'
p21
aS'61-windowsshellreverse_tcp.raw'
p22
aS'61-windowsshell_bind_tcp_xpfw.raw'
p23
aS'61-windowsshellbind_ipv6_tcp.raw'
p24
aS'61-windowsshell_bind_tcp.raw'
p25
aS'61-windowsshellfind_tag.raw'
p26
aS'61-windowsshellbind_tcp.raw'
p27
aS'61-windowsshellreverse_tcp_allports.raw'
p28
aS'61-windowsshell_reverse_tcp.raw'
p29
aS'61-windowsshellreverse_ipv6_tcp.raw'
p30
aS'61-windowsshellreverse_tcp_dns.raw'
p31
aS'61-windowsshellreverse_http.raw'
p32
aS'61-windowsshellbind_nonx_tcp.raw'
p33
aS'61-windowsshellreverse_ipv6_http.raw'
p34
asS'62'
p35
(lp36
S'62-windowsvncinjectreverse_http.exe'
p37
aS'62-windowsvncinjectreverse_http.exe'
p38
aS'62-windowsvncinjectreverse_http.exe'
p39
aS'62-windowsvncinjectreverse_tcp_dns.exe'
p40
aS'62-windowsvncinjectreverse_tcp_dns.exe'
p41
aS'62-windowsvncinjectbind_nonx_tcp.exe'
p42
aS'62-windowsvncinjectreverse_tcp.exe'
p43
aS'62-windowsvncinjectreverse_tcp.exe'
p44
aS'62-windowsvncinjectfind_tag.exe'
p45
aS'62-windowsvncinjectfind_tag.exe'
p46
aS'62-windowsvncinjectreverse_ipv6_http.exe'
p47
aS'62-windowsvncinjectreverse_ipv6_http.exe'
p48
aS'62-windowsvncinjectreverse_ipv6_http.exe'
p49
aS'62-windowsvncinjectreverse_nonx_tcp.exe'
p50
aS'62-windowsvncinjectreverse_nonx_tcp.exe'
p51
aS'62-windowsvncinjectbind_ipv6_tcp.exe'
p52
aS'62-windowsvncinjectbind_ipv6_tcp.exe'
p53
aS'62-windowsvncinjectbind_ipv6_tcp.exe'
p54
aS'62-windowsvncinjectreverse_tcp_allports.exe'
p55
aS'62-windowsvncinjectreverse_tcp_allports.exe'
p56
aS'62-windowsvncinjectreverse_tcp_allports.exe'
p57
aS'62-windowsvncinjectreverse_ord_tcp.exe'
p58
aS'62-windowsvncinjectreverse_ord_tcp.exe'
p59
aS'62-windowsvncinjectbind_tcp.exe'
p60
aS'62-windowsvncinjectbind_tcp.exe'
p61
aS'62-windowsvncinjectbind_tcp.exe'
p62
aS'62-windowsvncinjectreverse_ipv6_tcp.exe'
p63
aS'62-windowsvncinjectreverse_ipv6_tcp.exe'
p64
aS'62-windowsvncinjectreverse_ipv6_tcp.exe'
p65
asS'63'
p66
(lp67
S'63-windowsupexecbind_nonx_tcp.exe'
p68
aS'63-windowsupexecbind_ipv6_tcp.exe'
p69
aS'63-windowsupexecreverse_http.exe'
p70
aS'63-windowsupexecfind_tag.exe'
p71
aS'63-windowsupexecreverse_tcp_allports.exe'
p72
aS'63-windowsupexecreverse_tcp_dns.exe'
p73
aS'63-windowsupexecreverse_tcp.exe'
p74
aS'63-windowsupexecreverse_ipv6_tcp.exe'
p75
aS'63-windowsupexecbind_tcp.exe'
p76
aS'63-windowsupexecreverse_nonx_tcp.exe'
p77
aS'63-windowsupexecreverse_ord_tcp.exe'
p78
aS'63-windowsupexecreverse_ipv6_http.exe'
p79
asS'66'
p80
(lp81
S'66-linuxx86shellreverse_nonx_tcp.exe'
p82
aS'66-linuxx86shell_bind_ipv6_tcp.exe'
p83
aS'66-linuxx86shellreverse_tcp.exe'
p84
aS'66-linuxx86shellfind_tag.exe'
p85
aS'66-linuxx86shellbind_ipv6_tcp.exe'
p86
aS'66-linuxx86shellreverse_ipv6_tcp.exe'
p87
aS'66-linuxx86shell_bind_tcp.exe'
p88
aS'66-linuxx86shell_find_tag.exe'
p89
aS'66-linuxx86shell_reverse_tcp2.exe'
p90
aS'66-linuxx86shellbind_tcp.exe'
p91
aS'66-linuxx86shell_find_port.exe'
p92
aS'66-linuxx86shell_reverse_tcp.exe'
p93
aS'66-linuxx86shellbind_nonx_tcp.exe'
p94
as.